
./ebpf-samples/all/bpf_overlay.o:	file format elf64-bpf

Disassembly of section 2/1:

0000000000000000 <__send_drop_notify>:
       0:	bf 16 00 00 00 00 00 00	r6 = r1
       1:	61 67 00 00 00 00 00 00	r7 = *(u32 *)(r6 + 0)
       2:	85 00 00 00 22 00 00 00	call 34
       3:	61 61 34 00 00 00 00 00	r1 = *(u32 *)(r6 + 52)
       4:	b7 02 00 00 00 00 00 00	r2 = 0
       5:	6b 2a e2 ff 00 00 00 00	*(u16 *)(r10 - 30) = r2
       6:	b7 02 00 00 01 00 00 00	r2 = 1
       7:	73 2a e0 ff 00 00 00 00	*(u8 *)(r10 - 32) = r2
       8:	63 0a e4 ff 00 00 00 00	*(u32 *)(r10 - 28) = r0
       9:	bf 12 00 00 00 00 00 00	r2 = r1
      10:	77 02 00 00 10 00 00 00	r2 >>= 16
      11:	63 2a f0 ff 00 00 00 00	*(u32 *)(r10 - 16) = r2
      12:	57 01 00 00 ff ff 00 00	r1 &= 65535
      13:	63 1a f4 ff 00 00 00 00	*(u32 *)(r10 - 12) = r1
      14:	63 7a e8 ff 00 00 00 00	*(u32 *)(r10 - 24) = r7
      15:	a5 07 01 00 80 00 00 00	if r7 < 128 goto +1 <LBB0_2>
      16:	b7 07 00 00 80 00 00 00	r7 = 128

0000000000000088 <LBB0_2>:
      17:	63 7a ec ff 00 00 00 00	*(u32 *)(r10 - 20) = r7
      18:	61 61 3c 00 00 00 00 00	r1 = *(u32 *)(r6 + 60)
      19:	63 1a f8 ff 00 00 00 00	*(u32 *)(r10 - 8) = r1
      20:	61 61 40 00 00 00 00 00	r1 = *(u32 *)(r6 + 64)
      21:	63 1a fc ff 00 00 00 00	*(u32 *)(r10 - 4) = r1
      22:	67 07 00 00 20 00 00 00	r7 <<= 32
      23:	18 01 00 00 ff ff ff ff 00 00 00 00 00 00 00 00	r1 = 4294967295 ll
      25:	4f 17 00 00 00 00 00 00	r7 |= r1
      26:	61 61 38 00 00 00 00 00	r1 = *(u32 *)(r6 + 56)
      27:	bf 12 00 00 00 00 00 00	r2 = r1
      28:	67 02 00 00 20 00 00 00	r2 <<= 32
      29:	c7 02 00 00 3f 00 00 00	r2 s>>= 63
      30:	0f 21 00 00 00 00 00 00	r1 += r2
      31:	af 21 00 00 00 00 00 00	r1 ^= r2
      32:	73 1a e1 ff 00 00 00 00	*(u8 *)(r10 - 31) = r1
      33:	bf a4 00 00 00 00 00 00	r4 = r10
      34:	07 04 00 00 e0 ff ff ff	r4 += -32
      35:	bf 61 00 00 00 00 00 00	r1 = r6
      36:	18 02 00 00 00 00 00 00 00 00 00 00 00 00 00 00	r2 = 0 ll
      38:	bf 73 00 00 00 00 00 00	r3 = r7
      39:	b7 05 00 00 20 00 00 00	r5 = 32
      40:	85 00 00 00 19 00 00 00	call 25
      41:	61 60 30 00 00 00 00 00	r0 = *(u32 *)(r6 + 48)
      42:	95 00 00 00 00 00 00 00	exit

Disassembly of section 2/3:

0000000000000000 <tail_icmp6_send_echo_reply>:
       0:	bf 16 00 00 00 00 00 00	r6 = r1
       1:	61 61 34 00 00 00 00 00	r1 = *(u32 *)(r6 + 52)
       2:	7b 1a 90 ff 00 00 00 00	*(u64 *)(r10 - 112) = r1
       3:	61 67 30 00 00 00 00 00	r7 = *(u32 *)(r6 + 48)
       4:	b7 08 00 00 00 00 00 00	r8 = 0
       5:	7b 8a a0 ff 00 00 00 00	*(u64 *)(r10 - 96) = r8
       6:	bf 61 00 00 00 00 00 00	r1 = r6
       7:	85 00 00 00 22 00 00 00	call 34
       8:	63 0a ec ff 00 00 00 00	*(u32 *)(r10 - 20) = r0
       9:	b7 01 00 00 02 0c 00 00	r1 = 3074
      10:	63 1a e8 ff 00 00 00 00	*(u32 *)(r10 - 24) = r1
      11:	63 8a f4 ff 00 00 00 00	*(u32 *)(r10 - 12) = r8
      12:	63 8a f8 ff 00 00 00 00	*(u32 *)(r10 - 8) = r8
      13:	63 7a f0 ff 00 00 00 00	*(u32 *)(r10 - 16) = r7
      14:	bf a4 00 00 00 00 00 00	r4 = r10
      15:	07 04 00 00 e8 ff ff ff	r4 += -24
      16:	bf 61 00 00 00 00 00 00	r1 = r6
      17:	18 02 00 00 00 00 00 00 00 00 00 00 00 00 00 00	r2 = 0 ll
      19:	18 03 00 00 ff ff ff ff 00 00 00 00 00 00 00 00	r3 = 4294967295 ll
      21:	b7 05 00 00 14 00 00 00	r5 = 20
      22:	85 00 00 00 19 00 00 00	call 25
      23:	bf 78 00 00 00 00 00 00	r8 = r7
      24:	07 08 00 00 28 00 00 00	r8 += 40
      25:	bf a3 00 00 00 00 00 00	r3 = r10
      26:	07 03 00 00 98 ff ff ff	r3 += -104
      27:	bf 61 00 00 00 00 00 00	r1 = r6
      28:	bf 82 00 00 00 00 00 00	r2 = r8
      29:	b7 04 00 00 08 00 00 00	r4 = 8
      30:	85 00 00 00 1a 00 00 00	call 26
      31:	18 09 00 00 7a ff ff ff 00 00 00 00 00 00 00 00	r9 = 4294967162 ll
      33:	67 00 00 00 20 00 00 00	r0 <<= 32
      34:	c7 00 00 00 20 00 00 00	r0 s>>= 32
      35:	c5 00 c8 00 00 00 00 00	if r0 s< 0 goto +200 <LBB1_15>
      36:	b7 01 00 00 81 00 00 00	r1 = 129
      37:	6b 1a a0 ff 00 00 00 00	*(u16 *)(r10 - 96) = r1
      38:	69 a1 9a ff 00 00 00 00	r1 = *(u16 *)(r10 - 102)
      39:	6b 1a a2 ff 00 00 00 00	*(u16 *)(r10 - 94) = r1
      40:	69 a1 9c ff 00 00 00 00	r1 = *(u16 *)(r10 - 100)
      41:	6b 1a a4 ff 00 00 00 00	*(u16 *)(r10 - 92) = r1
      42:	69 a1 9e ff 00 00 00 00	r1 = *(u16 *)(r10 - 98)
      43:	6b 1a a6 ff 00 00 00 00	*(u16 *)(r10 - 90) = r1
      44:	bf a3 00 00 00 00 00 00	r3 = r10
      45:	07 03 00 00 a0 ff ff ff	r3 += -96
      46:	bf 61 00 00 00 00 00 00	r1 = r6
      47:	bf 82 00 00 00 00 00 00	r2 = r8
      48:	b7 04 00 00 08 00 00 00	r4 = 8
      49:	b7 05 00 00 00 00 00 00	r5 = 0
      50:	85 00 00 00 09 00 00 00	call 9
      51:	18 09 00 00 73 ff ff ff 00 00 00 00 00 00 00 00	r9 = 4294967155 ll
      53:	67 00 00 00 20 00 00 00	r0 <<= 32
      54:	c7 00 00 00 20 00 00 00	r0 s>>= 32
      55:	c5 00 b4 00 00 00 00 00	if r0 s< 0 goto +180 <LBB1_15>
      56:	bf 78 00 00 00 00 00 00	r8 = r7
      57:	07 08 00 00 2a 00 00 00	r8 += 42
      58:	bf a1 00 00 00 00 00 00	r1 = r10
      59:	07 01 00 00 98 ff ff ff	r1 += -104
      60:	bf a3 00 00 00 00 00 00	r3 = r10
      61:	07 03 00 00 a0 ff ff ff	r3 += -96
      62:	b7 02 00 00 08 00 00 00	r2 = 8
      63:	b7 04 00 00 08 00 00 00	r4 = 8
      64:	b7 05 00 00 00 00 00 00	r5 = 0
      65:	85 00 00 00 1c 00 00 00	call 28
      66:	bf 61 00 00 00 00 00 00	r1 = r6
      67:	bf 82 00 00 00 00 00 00	r2 = r8
      68:	b7 03 00 00 00 00 00 00	r3 = 0
      69:	bf 04 00 00 00 00 00 00	r4 = r0
      70:	b7 05 00 00 10 00 00 00	r5 = 16
      71:	85 00 00 00 0b 00 00 00	call 11
      72:	18 09 00 00 66 ff ff ff 00 00 00 00 00 00 00 00	r9 = 4294967142 ll
      74:	67 00 00 00 20 00 00 00	r0 <<= 32
      75:	c7 00 00 00 20 00 00 00	r0 s>>= 32
      76:	c5 00 9f 00 00 00 00 00	if r0 s< 0 goto +159 <LBB1_15>
      77:	7b 8a 88 ff 00 00 00 00	*(u64 *)(r10 - 120) = r8
      78:	18 01 00 00 de ad be ef 00 00 00 00 c0 de 00 00	r1 = 244920237338078 ll
      80:	7b 1a d8 ff 00 00 00 00	*(u64 *)(r10 - 40) = r1
      81:	bf 78 00 00 00 00 00 00	r8 = r7
      82:	07 08 00 00 08 00 00 00	r8 += 8
      83:	bf a3 00 00 00 00 00 00	r3 = r10
      84:	07 03 00 00 c8 ff ff ff	r3 += -56
      85:	bf 61 00 00 00 00 00 00	r1 = r6
      86:	bf 82 00 00 00 00 00 00	r2 = r8
      87:	b7 04 00 00 10 00 00 00	r4 = 16
      88:	85 00 00 00 1a 00 00 00	call 26
      89:	67 00 00 00 20 00 00 00	r0 <<= 32
      90:	c7 00 00 00 20 00 00 00	r0 s>>= 32
      91:	18 09 00 00 7a ff ff ff 00 00 00 00 00 00 00 00	r9 = 4294967162 ll
      93:	c5 00 8e 00 00 00 00 00	if r0 s< 0 goto +142 <LBB1_15>
      94:	07 07 00 00 18 00 00 00	r7 += 24
      95:	bf a3 00 00 00 00 00 00	r3 = r10
      96:	07 03 00 00 b8 ff ff ff	r3 += -72
      97:	bf 61 00 00 00 00 00 00	r1 = r6
      98:	bf 72 00 00 00 00 00 00	r2 = r7
      99:	b7 04 00 00 10 00 00 00	r4 = 16
     100:	85 00 00 00 1a 00 00 00	call 26
     101:	67 00 00 00 20 00 00 00	r0 <<= 32
     102:	c7 00 00 00 20 00 00 00	r0 s>>= 32
     103:	18 09 00 00 7a ff ff ff 00 00 00 00 00 00 00 00	r9 = 4294967162 ll
     105:	c5 00 82 00 00 00 00 00	if r0 s< 0 goto +130 <LBB1_15>
     106:	b7 01 00 00 be ef 00 00	r1 = 61374
     107:	7b 1a a8 ff 00 00 00 00	*(u64 *)(r10 - 88) = r1
     108:	18 01 00 00 00 00 00 01 00 00 00 00 00 01 00 00	r1 = 1099528404992 ll
     110:	7b 1a b0 ff 00 00 00 00	*(u64 *)(r10 - 80) = r1
     111:	bf a3 00 00 00 00 00 00	r3 = r10
     112:	07 03 00 00 a8 ff ff ff	r3 += -88
     113:	bf 61 00 00 00 00 00 00	r1 = r6
     114:	bf 82 00 00 00 00 00 00	r2 = r8
     115:	b7 04 00 00 10 00 00 00	r4 = 16
     116:	b7 05 00 00 00 00 00 00	r5 = 0
     117:	85 00 00 00 09 00 00 00	call 9
     118:	67 00 00 00 20 00 00 00	r0 <<= 32
     119:	c7 00 00 00 20 00 00 00	r0 s>>= 32
     120:	18 09 00 00 73 ff ff ff 00 00 00 00 00 00 00 00	r9 = 4294967155 ll
     122:	c5 00 71 00 00 00 00 00	if r0 s< 0 goto +113 <LBB1_15>
     123:	bf a3 00 00 00 00 00 00	r3 = r10
     124:	07 03 00 00 c8 ff ff ff	r3 += -56
     125:	bf 61 00 00 00 00 00 00	r1 = r6
     126:	bf 72 00 00 00 00 00 00	r2 = r7
     127:	b7 04 00 00 10 00 00 00	r4 = 16
     128:	b7 05 00 00 00 00 00 00	r5 = 0
     129:	85 00 00 00 09 00 00 00	call 9
     130:	67 00 00 00 20 00 00 00	r0 <<= 32
     131:	c7 00 00 00 20 00 00 00	r0 s>>= 32
     132:	18 09 00 00 73 ff ff ff 00 00 00 00 00 00 00 00	r9 = 4294967155 ll
     134:	c5 00 65 00 00 00 00 00	if r0 s< 0 goto +101 <LBB1_15>
     135:	bf a1 00 00 00 00 00 00	r1 = r10
     136:	07 01 00 00 c8 ff ff ff	r1 += -56
     137:	bf a3 00 00 00 00 00 00	r3 = r10
     138:	07 03 00 00 a8 ff ff ff	r3 += -88
     139:	b7 02 00 00 10 00 00 00	r2 = 16
     140:	b7 04 00 00 10 00 00 00	r4 = 16
     141:	b7 05 00 00 00 00 00 00	r5 = 0
     142:	85 00 00 00 1c 00 00 00	call 28
     143:	bf 61 00 00 00 00 00 00	r1 = r6
     144:	79 a2 88 ff 00 00 00 00	r2 = *(u64 *)(r10 - 120)
     145:	b7 03 00 00 00 00 00 00	r3 = 0
     146:	bf 04 00 00 00 00 00 00	r4 = r0
     147:	b7 05 00 00 10 00 00 00	r5 = 16
     148:	85 00 00 00 0b 00 00 00	call 11
     149:	18 09 00 00 66 ff ff ff 00 00 00 00 00 00 00 00	r9 = 4294967142 ll
     151:	67 00 00 00 20 00 00 00	r0 <<= 32
     152:	c7 00 00 00 20 00 00 00	r0 s>>= 32
     153:	c5 00 52 00 00 00 00 00	if r0 s< 0 goto +82 <LBB1_15>
     154:	bf a1 00 00 00 00 00 00	r1 = r10
     155:	07 01 00 00 b8 ff ff ff	r1 += -72
     156:	bf a3 00 00 00 00 00 00	r3 = r10
     157:	07 03 00 00 c8 ff ff ff	r3 += -56
     158:	b7 02 00 00 10 00 00 00	r2 = 16
     159:	b7 04 00 00 10 00 00 00	r4 = 16
     160:	b7 05 00 00 00 00 00 00	r5 = 0
     161:	85 00 00 00 1c 00 00 00	call 28
     162:	bf 61 00 00 00 00 00 00	r1 = r6
     163:	79 a2 88 ff 00 00 00 00	r2 = *(u64 *)(r10 - 120)
     164:	b7 03 00 00 00 00 00 00	r3 = 0
     165:	bf 04 00 00 00 00 00 00	r4 = r0
     166:	b7 05 00 00 10 00 00 00	r5 = 16
     167:	85 00 00 00 0b 00 00 00	call 11
     168:	67 00 00 00 20 00 00 00	r0 <<= 32
     169:	c7 00 00 00 20 00 00 00	r0 s>>= 32
     170:	c5 00 41 00 00 00 00 00	if r0 s< 0 goto +65 <LBB1_15>
     171:	bf a3 00 00 00 00 00 00	r3 = r10
     172:	07 03 00 00 e0 ff ff ff	r3 += -32
     173:	bf 61 00 00 00 00 00 00	r1 = r6
     174:	b7 02 00 00 06 00 00 00	r2 = 6
     175:	b7 04 00 00 06 00 00 00	r4 = 6
     176:	85 00 00 00 1a 00 00 00	call 26
     177:	67 00 00 00 20 00 00 00	r0 <<= 32
     178:	c7 00 00 00 20 00 00 00	r0 s>>= 32
     179:	18 09 00 00 7a ff ff ff 00 00 00 00 00 00 00 00	r9 = 4294967162 ll
     181:	c5 00 36 00 00 00 00 00	if r0 s< 0 goto +54 <LBB1_15>
     182:	bf a3 00 00 00 00 00 00	r3 = r10
     183:	07 03 00 00 e0 ff ff ff	r3 += -32
     184:	bf 61 00 00 00 00 00 00	r1 = r6
     185:	b7 02 00 00 00 00 00 00	r2 = 0
     186:	b7 04 00 00 06 00 00 00	r4 = 6
     187:	b7 05 00 00 00 00 00 00	r5 = 0
     188:	85 00 00 00 09 00 00 00	call 9
     189:	67 00 00 00 20 00 00 00	r0 <<= 32
     190:	c7 00 00 00 20 00 00 00	r0 s>>= 32
     191:	18 09 00 00 73 ff ff ff 00 00 00 00 00 00 00 00	r9 = 4294967155 ll
     193:	c5 00 2a 00 00 00 00 00	if r0 s< 0 goto +42 <LBB1_15>
     194:	bf a3 00 00 00 00 00 00	r3 = r10
     195:	07 03 00 00 d8 ff ff ff	r3 += -40
     196:	bf 61 00 00 00 00 00 00	r1 = r6
     197:	b7 02 00 00 06 00 00 00	r2 = 6
     198:	b7 04 00 00 06 00 00 00	r4 = 6
     199:	b7 05 00 00 00 00 00 00	r5 = 0
     200:	85 00 00 00 09 00 00 00	call 9
     201:	67 00 00 00 20 00 00 00	r0 <<= 32
     202:	c7 00 00 00 20 00 00 00	r0 s>>= 32
     203:	18 09 00 00 73 ff ff ff 00 00 00 00 00 00 00 00	r9 = 4294967155 ll
     205:	c5 00 1e 00 00 00 00 00	if r0 s< 0 goto +30 <LBB1_15>
     206:	61 67 00 00 00 00 00 00	r7 = *(u32 *)(r6 + 0)
     207:	61 68 28 00 00 00 00 00	r8 = *(u32 *)(r6 + 40)
     208:	bf 61 00 00 00 00 00 00	r1 = r6
     209:	85 00 00 00 22 00 00 00	call 34
     210:	63 0a ec ff 00 00 00 00	*(u32 *)(r10 - 20) = r0
     211:	b7 01 00 00 03 04 00 00	r1 = 1027
     212:	63 1a e8 ff 00 00 00 00	*(u32 *)(r10 - 24) = r1
     213:	63 8a f8 ff 00 00 00 00	*(u32 *)(r10 - 8) = r8
     214:	63 7a f0 ff 00 00 00 00	*(u32 *)(r10 - 16) = r7
     215:	a5 07 01 00 80 00 00 00	if r7 < 128 goto +1 <LBB1_14>
     216:	b7 07 00 00 80 00 00 00	r7 = 128

00000000000006c8 <LBB1_14>:
     217:	63 7a f4 ff 00 00 00 00	*(u32 *)(r10 - 12) = r7
     218:	67 07 00 00 20 00 00 00	r7 <<= 32
     219:	18 01 00 00 ff ff ff ff 00 00 00 00 00 00 00 00	r1 = 4294967295 ll
     221:	4f 17 00 00 00 00 00 00	r7 |= r1
     222:	b7 01 00 00 00 00 00 00	r1 = 0
     223:	63 1a fc ff 00 00 00 00	*(u32 *)(r10 - 4) = r1
     224:	bf a4 00 00 00 00 00 00	r4 = r10
     225:	07 04 00 00 e8 ff ff ff	r4 += -24
     226:	bf 61 00 00 00 00 00 00	r1 = r6
     227:	18 02 00 00 00 00 00 00 00 00 00 00 00 00 00 00	r2 = 0 ll
     229:	bf 73 00 00 00 00 00 00	r3 = r7
     230:	b7 05 00 00 18 00 00 00	r5 = 24
     231:	85 00 00 00 19 00 00 00	call 25
     232:	61 61 28 00 00 00 00 00	r1 = *(u32 *)(r6 + 40)
     233:	b7 02 00 00 00 00 00 00	r2 = 0
     234:	85 00 00 00 17 00 00 00	call 23
     235:	bf 09 00 00 00 00 00 00	r9 = r0

0000000000000760 <LBB1_15>:
     236:	bf 91 00 00 00 00 00 00	r1 = r9
     237:	67 01 00 00 20 00 00 00	r1 <<= 32
     238:	77 01 00 00 20 00 00 00	r1 >>= 32
     239:	b7 02 00 00 01 00 00 00	r2 = 1
     240:	15 01 01 00 02 00 00 00	if r1 == 2 goto +1 <LBB1_17>
     241:	b7 02 00 00 00 00 00 00	r2 = 0

0000000000000790 <LBB1_17>:
     242:	77 01 00 00 1f 00 00 00	r1 >>= 31
     243:	4f 21 00 00 00 00 00 00	r1 |= r2
     244:	15 01 2e 00 00 00 00 00	if r1 == 0 goto +46 <LBB1_22>
     245:	b7 01 00 00 02 00 00 00	r1 = 2
     246:	63 16 30 00 00 00 00 00	*(u32 *)(r6 + 48) = r1
     247:	b7 01 00 00 00 00 00 00	r1 = 0
     248:	63 16 34 00 00 00 00 00	*(u32 *)(r6 + 52) = r1
     249:	63 96 38 00 00 00 00 00	*(u32 *)(r6 + 56) = r9
     250:	63 16 3c 00 00 00 00 00	*(u32 *)(r6 + 60) = r1
     251:	63 16 40 00 00 00 00 00	*(u32 *)(r6 + 64) = r1
     252:	61 67 00 00 00 00 00 00	r7 = *(u32 *)(r6 + 0)
     253:	7b 1a f0 ff 00 00 00 00	*(u64 *)(r10 - 16) = r1
     254:	7b 1a e8 ff 00 00 00 00	*(u64 *)(r10 - 24) = r1
     255:	7b 1a c8 ff 00 00 00 00	*(u64 *)(r10 - 56) = r1
     256:	79 a1 90 ff 00 00 00 00	r1 = *(u64 *)(r10 - 112)
     257:	57 01 00 00 03 00 00 00	r1 &= 3
     258:	73 1a c9 ff 00 00 00 00	*(u8 *)(r10 - 55) = r1
     259:	87 09 00 00 00 00 00 00	r9 = -r9
     260:	73 9a c8 ff 00 00 00 00	*(u8 *)(r10 - 56) = r9
     261:	bf a2 00 00 00 00 00 00	r2 = r10
     262:	07 02 00 00 c8 ff ff ff	r2 += -56
     263:	18 01 00 00 00 00 00 00 00 00 00 00 00 00 00 00	r1 = 0 ll
     265:	85 00 00 00 01 00 00 00	call 1
     266:	15 00 07 00 00 00 00 00	if r0 == 0 goto +7 <LBB1_20>
     267:	79 01 00 00 00 00 00 00	r1 = *(u64 *)(r0 + 0)
     268:	07 01 00 00 01 00 00 00	r1 += 1
     269:	7b 10 00 00 00 00 00 00	*(u64 *)(r0 + 0) = r1
     270:	79 01 08 00 00 00 00 00	r1 = *(u64 *)(r0 + 8)
     271:	0f 71 00 00 00 00 00 00	r1 += r7
     272:	7b 10 08 00 00 00 00 00	*(u64 *)(r0 + 8) = r1
     273:	05 00 0b 00 00 00 00 00	goto +11 <LBB1_21>

0000000000000890 <LBB1_20>:
     274:	7b 7a f0 ff 00 00 00 00	*(u64 *)(r10 - 16) = r7
     275:	b7 01 00 00 01 00 00 00	r1 = 1
     276:	7b 1a e8 ff 00 00 00 00	*(u64 *)(r10 - 24) = r1
     277:	bf a2 00 00 00 00 00 00	r2 = r10
     278:	07 02 00 00 c8 ff ff ff	r2 += -56
     279:	bf a3 00 00 00 00 00 00	r3 = r10
     280:	07 03 00 00 e8 ff ff ff	r3 += -24
     281:	18 01 00 00 00 00 00 00 00 00 00 00 00 00 00 00	r1 = 0 ll
     283:	b7 04 00 00 00 00 00 00	r4 = 0
     284:	85 00 00 00 02 00 00 00	call 2

00000000000008e8 <LBB1_21>:
     285:	bf 61 00 00 00 00 00 00	r1 = r6
     286:	18 02 00 00 00 00 00 00 00 00 00 00 00 00 00 00	r2 = 0 ll
     288:	b7 03 00 00 01 00 00 00	r3 = 1
     289:	85 00 00 00 0c 00 00 00	call 12
     290:	b7 09 00 00 02 00 00 00	r9 = 2

0000000000000918 <LBB1_22>:
     291:	bf 90 00 00 00 00 00 00	r0 = r9
     292:	95 00 00 00 00 00 00 00	exit

Disassembly of section 2/5:

0000000000000000 <tail_icmp6_send_time_exceeded>:
       0:	bf 16 00 00 00 00 00 00	r6 = r1
       1:	61 61 34 00 00 00 00 00	r1 = *(u32 *)(r6 + 52)
       2:	7b 1a 48 ff 00 00 00 00	*(u64 *)(r10 - 184) = r1
       3:	61 67 30 00 00 00 00 00	r7 = *(u32 *)(r6 + 48)
       4:	b7 08 00 00 00 00 00 00	r8 = 0
       5:	73 8a a7 ff 00 00 00 00	*(u8 *)(r10 - 89) = r8
       6:	73 8a a6 ff 00 00 00 00	*(u8 *)(r10 - 90) = r8
       7:	73 8a a5 ff 00 00 00 00	*(u8 *)(r10 - 91) = r8
       8:	73 8a a4 ff 00 00 00 00	*(u8 *)(r10 - 92) = r8
       9:	73 8a a3 ff 00 00 00 00	*(u8 *)(r10 - 93) = r8
      10:	73 8a a2 ff 00 00 00 00	*(u8 *)(r10 - 94) = r8
      11:	73 8a a1 ff 00 00 00 00	*(u8 *)(r10 - 95) = r8
      12:	73 8a a0 ff 00 00 00 00	*(u8 *)(r10 - 96) = r8
      13:	73 8a 9f ff 00 00 00 00	*(u8 *)(r10 - 97) = r8
      14:	73 8a 9e ff 00 00 00 00	*(u8 *)(r10 - 98) = r8
      15:	73 8a 9d ff 00 00 00 00	*(u8 *)(r10 - 99) = r8
      16:	73 8a 9c ff 00 00 00 00	*(u8 *)(r10 - 100) = r8
      17:	73 8a 9b ff 00 00 00 00	*(u8 *)(r10 - 101) = r8
      18:	73 8a 9a ff 00 00 00 00	*(u8 *)(r10 - 102) = r8
      19:	73 8a 99 ff 00 00 00 00	*(u8 *)(r10 - 103) = r8
      20:	73 8a 98 ff 00 00 00 00	*(u8 *)(r10 - 104) = r8
      21:	73 8a 97 ff 00 00 00 00	*(u8 *)(r10 - 105) = r8
      22:	73 8a 96 ff 00 00 00 00	*(u8 *)(r10 - 106) = r8
      23:	73 8a 95 ff 00 00 00 00	*(u8 *)(r10 - 107) = r8
      24:	73 8a 94 ff 00 00 00 00	*(u8 *)(r10 - 108) = r8
      25:	73 8a 93 ff 00 00 00 00	*(u8 *)(r10 - 109) = r8
      26:	73 8a 92 ff 00 00 00 00	*(u8 *)(r10 - 110) = r8
      27:	73 8a 91 ff 00 00 00 00	*(u8 *)(r10 - 111) = r8
      28:	73 8a 90 ff 00 00 00 00	*(u8 *)(r10 - 112) = r8
      29:	73 8a 8f ff 00 00 00 00	*(u8 *)(r10 - 113) = r8
      30:	73 8a 8e ff 00 00 00 00	*(u8 *)(r10 - 114) = r8
      31:	73 8a 8d ff 00 00 00 00	*(u8 *)(r10 - 115) = r8
      32:	73 8a 8c ff 00 00 00 00	*(u8 *)(r10 - 116) = r8
      33:	73 8a 8b ff 00 00 00 00	*(u8 *)(r10 - 117) = r8
      34:	73 8a 8a ff 00 00 00 00	*(u8 *)(r10 - 118) = r8
      35:	73 8a 89 ff 00 00 00 00	*(u8 *)(r10 - 119) = r8
      36:	73 8a 88 ff 00 00 00 00	*(u8 *)(r10 - 120) = r8
      37:	73 8a 87 ff 00 00 00 00	*(u8 *)(r10 - 121) = r8
      38:	73 8a 86 ff 00 00 00 00	*(u8 *)(r10 - 122) = r8
      39:	73 8a 85 ff 00 00 00 00	*(u8 *)(r10 - 123) = r8
      40:	73 8a 84 ff 00 00 00 00	*(u8 *)(r10 - 124) = r8
      41:	73 8a 83 ff 00 00 00 00	*(u8 *)(r10 - 125) = r8
      42:	73 8a 82 ff 00 00 00 00	*(u8 *)(r10 - 126) = r8
      43:	73 8a 81 ff 00 00 00 00	*(u8 *)(r10 - 127) = r8
      44:	73 8a 80 ff 00 00 00 00	*(u8 *)(r10 - 128) = r8
      45:	73 8a 7f ff 00 00 00 00	*(u8 *)(r10 - 129) = r8
      46:	73 8a 7e ff 00 00 00 00	*(u8 *)(r10 - 130) = r8
      47:	73 8a 7d ff 00 00 00 00	*(u8 *)(r10 - 131) = r8
      48:	73 8a 7c ff 00 00 00 00	*(u8 *)(r10 - 132) = r8
      49:	73 8a 7b ff 00 00 00 00	*(u8 *)(r10 - 133) = r8
      50:	73 8a 7a ff 00 00 00 00	*(u8 *)(r10 - 134) = r8
      51:	73 8a 79 ff 00 00 00 00	*(u8 *)(r10 - 135) = r8
      52:	73 8a 78 ff 00 00 00 00	*(u8 *)(r10 - 136) = r8
      53:	73 8a 77 ff 00 00 00 00	*(u8 *)(r10 - 137) = r8
      54:	73 8a 76 ff 00 00 00 00	*(u8 *)(r10 - 138) = r8
      55:	73 8a 75 ff 00 00 00 00	*(u8 *)(r10 - 139) = r8
      56:	73 8a 74 ff 00 00 00 00	*(u8 *)(r10 - 140) = r8
      57:	73 8a 73 ff 00 00 00 00	*(u8 *)(r10 - 141) = r8
      58:	73 8a 72 ff 00 00 00 00	*(u8 *)(r10 - 142) = r8
      59:	73 8a 71 ff 00 00 00 00	*(u8 *)(r10 - 143) = r8
      60:	73 8a 70 ff 00 00 00 00	*(u8 *)(r10 - 144) = r8
      61:	73 8a 6f ff 00 00 00 00	*(u8 *)(r10 - 145) = r8
      62:	73 8a 6e ff 00 00 00 00	*(u8 *)(r10 - 146) = r8
      63:	73 8a 6d ff 00 00 00 00	*(u8 *)(r10 - 147) = r8
      64:	73 8a 6c ff 00 00 00 00	*(u8 *)(r10 - 148) = r8
      65:	73 8a 6b ff 00 00 00 00	*(u8 *)(r10 - 149) = r8
      66:	73 8a 6a ff 00 00 00 00	*(u8 *)(r10 - 150) = r8
      67:	73 8a 69 ff 00 00 00 00	*(u8 *)(r10 - 151) = r8
      68:	73 8a 68 ff 00 00 00 00	*(u8 *)(r10 - 152) = r8
      69:	73 8a 67 ff 00 00 00 00	*(u8 *)(r10 - 153) = r8
      70:	73 8a 66 ff 00 00 00 00	*(u8 *)(r10 - 154) = r8
      71:	73 8a 65 ff 00 00 00 00	*(u8 *)(r10 - 155) = r8
      72:	73 8a 64 ff 00 00 00 00	*(u8 *)(r10 - 156) = r8
      73:	73 8a 63 ff 00 00 00 00	*(u8 *)(r10 - 157) = r8
      74:	73 8a 62 ff 00 00 00 00	*(u8 *)(r10 - 158) = r8
      75:	73 8a 61 ff 00 00 00 00	*(u8 *)(r10 - 159) = r8
      76:	73 8a 60 ff 00 00 00 00	*(u8 *)(r10 - 160) = r8
      77:	6b 8a 56 ff 00 00 00 00	*(u16 *)(r10 - 170) = r8
      78:	b7 01 00 00 3a 00 00 00	r1 = 58
      79:	73 1a 55 ff 00 00 00 00	*(u8 *)(r10 - 171) = r1
      80:	b7 01 00 00 03 00 00 00	r1 = 3
      81:	63 1a 58 ff 00 00 00 00	*(u32 *)(r10 - 168) = r1
      82:	63 8a 5c ff 00 00 00 00	*(u32 *)(r10 - 164) = r8
      83:	bf 61 00 00 00 00 00 00	r1 = r6
      84:	85 00 00 00 22 00 00 00	call 34
      85:	63 0a ec ff 00 00 00 00	*(u32 *)(r10 - 20) = r0
      86:	b7 01 00 00 02 0e 00 00	r1 = 3586
      87:	63 1a e8 ff 00 00 00 00	*(u32 *)(r10 - 24) = r1
      88:	7b 8a f0 ff 00 00 00 00	*(u64 *)(r10 - 16) = r8
      89:	63 8a f8 ff 00 00 00 00	*(u32 *)(r10 - 8) = r8
      90:	bf a4 00 00 00 00 00 00	r4 = r10
      91:	07 04 00 00 e8 ff ff ff	r4 += -24
      92:	bf 61 00 00 00 00 00 00	r1 = r6
      93:	18 02 00 00 00 00 00 00 00 00 00 00 00 00 00 00	r2 = 0 ll
      95:	18 03 00 00 ff ff ff ff 00 00 00 00 00 00 00 00	r3 = 4294967295 ll
      97:	b7 05 00 00 14 00 00 00	r5 = 20
      98:	85 00 00 00 19 00 00 00	call 25
      99:	bf a3 00 00 00 00 00 00	r3 = r10
     100:	07 03 00 00 60 ff ff ff	r3 += -160
     101:	bf 61 00 00 00 00 00 00	r1 = r6
     102:	bf 72 00 00 00 00 00 00	r2 = r7
     103:	b7 04 00 00 28 00 00 00	r4 = 40
     104:	85 00 00 00 1a 00 00 00	call 26
     105:	18 09 00 00 7a ff ff ff 00 00 00 00 00 00 00 00	r9 = 4294967162 ll
     107:	67 00 00 00 20 00 00 00	r0 <<= 32
     108:	c7 00 00 00 20 00 00 00	r0 s>>= 32
     109:	c5 00 78 01 00 00 00 00	if r0 s< 0 goto +376 <LBB2_26>
     110:	bf 72 00 00 00 00 00 00	r2 = r7
     111:	07 02 00 00 06 00 00 00	r2 += 6
     112:	bf a3 00 00 00 00 00 00	r3 = r10
     113:	07 03 00 00 55 ff ff ff	r3 += -171
     114:	bf 61 00 00 00 00 00 00	r1 = r6
     115:	b7 04 00 00 01 00 00 00	r4 = 1
     116:	b7 05 00 00 00 00 00 00	r5 = 0
     117:	85 00 00 00 09 00 00 00	call 9
     118:	67 00 00 00 20 00 00 00	r0 <<= 32
     119:	c7 00 00 00 20 00 00 00	r0 s>>= 32
     120:	18 09 00 00 73 ff ff ff 00 00 00 00 00 00 00 00	r9 = 4294967155 ll
     122:	c5 00 6b 01 00 00 00 00	if r0 s< 0 goto +363 <LBB2_26>
     123:	bf a3 00 00 00 00 00 00	r3 = r10
     124:	07 03 00 00 88 ff ff ff	r3 += -120
     125:	71 a1 66 ff 00 00 00 00	r1 = *(u8 *)(r10 - 154)
     126:	15 01 60 00 06 00 00 00	if r1 == 6 goto +96 <LBB2_9>
     127:	15 01 03 00 3a 00 00 00	if r1 == 58 goto +3 <LBB2_5>
     128:	18 09 00 00 72 ff ff ff 00 00 00 00 00 00 00 00	r9 = 4294967154 ll
     130:	55 01 63 01 11 00 00 00	if r1 != 17 goto +355 <LBB2_26>

0000000000000418 <LBB2_5>:
     131:	bf 78 00 00 00 00 00 00	r8 = r7
     132:	07 08 00 00 28 00 00 00	r8 += 40
     133:	bf 61 00 00 00 00 00 00	r1 = r6
     134:	bf 82 00 00 00 00 00 00	r2 = r8
     135:	b7 04 00 00 08 00 00 00	r4 = 8
     136:	85 00 00 00 1a 00 00 00	call 26
     137:	67 00 00 00 20 00 00 00	r0 <<= 32
     138:	c7 00 00 00 20 00 00 00	r0 s>>= 32
     139:	18 09 00 00 7a ff ff ff 00 00 00 00 00 00 00 00	r9 = 4294967162 ll
     141:	c5 00 58 01 00 00 00 00	if r0 s< 0 goto +344 <LBB2_26>
     142:	bf a3 00 00 00 00 00 00	r3 = r10
     143:	07 03 00 00 58 ff ff ff	r3 += -168
     144:	b7 01 00 00 00 00 00 00	r1 = 0
     145:	b7 02 00 00 00 00 00 00	r2 = 0
     146:	b7 04 00 00 38 00 00 00	r4 = 56
     147:	b7 05 00 00 00 00 00 00	r5 = 0
     148:	85 00 00 00 1c 00 00 00	call 28
     149:	b7 01 00 00 00 00 00 38	r1 = 939524096
     150:	63 1a e8 ff 00 00 00 00	*(u32 *)(r10 - 24) = r1
     151:	b7 01 00 00 00 00 00 3a	r1 = 973078528
     152:	63 1a c8 ff 00 00 00 00	*(u32 *)(r10 - 56) = r1
     153:	bf a3 00 00 00 00 00 00	r3 = r10
     154:	07 03 00 00 68 ff ff ff	r3 += -152
     155:	b7 01 00 00 00 00 00 00	r1 = 0
     156:	b7 02 00 00 00 00 00 00	r2 = 0
     157:	b7 04 00 00 10 00 00 00	r4 = 16
     158:	bf 05 00 00 00 00 00 00	r5 = r0
     159:	85 00 00 00 1c 00 00 00	call 28
     160:	bf a3 00 00 00 00 00 00	r3 = r10
     161:	07 03 00 00 78 ff ff ff	r3 += -136
     162:	b7 01 00 00 00 00 00 00	r1 = 0
     163:	b7 02 00 00 00 00 00 00	r2 = 0
     164:	b7 04 00 00 10 00 00 00	r4 = 16
     165:	bf 05 00 00 00 00 00 00	r5 = r0
     166:	85 00 00 00 1c 00 00 00	call 28
     167:	bf a3 00 00 00 00 00 00	r3 = r10
     168:	07 03 00 00 e8 ff ff ff	r3 += -24
     169:	b7 01 00 00 00 00 00 00	r1 = 0
     170:	b7 02 00 00 00 00 00 00	r2 = 0
     171:	b7 04 00 00 04 00 00 00	r4 = 4
     172:	bf 05 00 00 00 00 00 00	r5 = r0
     173:	85 00 00 00 1c 00 00 00	call 28
     174:	bf a3 00 00 00 00 00 00	r3 = r10
     175:	07 03 00 00 c8 ff ff ff	r3 += -56
     176:	b7 01 00 00 00 00 00 00	r1 = 0
     177:	b7 02 00 00 00 00 00 00	r2 = 0
     178:	b7 04 00 00 04 00 00 00	r4 = 4
     179:	bf 05 00 00 00 00 00 00	r5 = r0
     180:	85 00 00 00 1c 00 00 00	call 28
     181:	7b 0a 40 ff 00 00 00 00	*(u64 *)(r10 - 192) = r0
     182:	b7 01 00 00 00 38 00 00	r1 = 14336
     183:	6b 1a 56 ff 00 00 00 00	*(u16 *)(r10 - 170) = r1
     184:	69 a1 64 ff 00 00 00 00	r1 = *(u16 *)(r10 - 156)
     185:	dc 01 00 00 10 00 00 00	r1 = be16 r1
     186:	61 62 00 00 00 00 00 00	r2 = *(u32 *)(r6 + 0)
     187:	07 02 00 00 38 00 00 00	r2 += 56
     188:	1f 12 00 00 00 00 00 00	r2 -= r1
     189:	bf 61 00 00 00 00 00 00	r1 = r6
     190:	b7 03 00 00 00 00 00 00	r3 = 0
     191:	85 00 00 00 26 00 00 00	call 38
     192:	67 00 00 00 20 00 00 00	r0 <<= 32
     193:	c7 00 00 00 20 00 00 00	r0 s>>= 32
     194:	18 09 00 00 73 ff ff ff 00 00 00 00 00 00 00 00	r9 = 4294967155 ll
     196:	c5 00 21 01 00 00 00 00	if r0 s< 0 goto +289 <LBB2_26>
     197:	bf a3 00 00 00 00 00 00	r3 = r10
     198:	07 03 00 00 58 ff ff ff	r3 += -168
     199:	bf 61 00 00 00 00 00 00	r1 = r6
     200:	bf 82 00 00 00 00 00 00	r2 = r8
     201:	b7 04 00 00 38 00 00 00	r4 = 56
     202:	b7 05 00 00 00 00 00 00	r5 = 0
     203:	85 00 00 00 09 00 00 00	call 9
     204:	67 00 00 00 20 00 00 00	r0 <<= 32
     205:	c7 00 00 00 20 00 00 00	r0 s>>= 32
     206:	18 09 00 00 73 ff ff ff 00 00 00 00 00 00 00 00	r9 = 4294967155 ll
     208:	c5 00 15 01 00 00 00 00	if r0 s< 0 goto +277 <LBB2_26>
     209:	bf 72 00 00 00 00 00 00	r2 = r7
     210:	07 02 00 00 04 00 00 00	r2 += 4
     211:	bf a3 00 00 00 00 00 00	r3 = r10
     212:	07 03 00 00 56 ff ff ff	r3 += -170
     213:	bf 61 00 00 00 00 00 00	r1 = r6
     214:	b7 04 00 00 02 00 00 00	r4 = 2
     215:	b7 05 00 00 00 00 00 00	r5 = 0
     216:	85 00 00 00 09 00 00 00	call 9
     217:	67 00 00 00 20 00 00 00	r0 <<= 32
     218:	c7 00 00 00 20 00 00 00	r0 s>>= 32
     219:	18 09 00 00 73 ff ff ff 00 00 00 00 00 00 00 00	r9 = 4294967155 ll
     221:	c5 00 08 01 00 00 00 00	if r0 s< 0 goto +264 <LBB2_26>
     222:	05 00 5b 00 00 00 00 00	goto +91 <LBB2_13>

00000000000006f8 <LBB2_9>:
     223:	bf 78 00 00 00 00 00 00	r8 = r7
     224:	07 08 00 00 28 00 00 00	r8 += 40
     225:	bf 61 00 00 00 00 00 00	r1 = r6
     226:	bf 82 00 00 00 00 00 00	r2 = r8
     227:	b7 04 00 00 14 00 00 00	r4 = 20
     228:	85 00 00 00 1a 00 00 00	call 26
     229:	67 00 00 00 20 00 00 00	r0 <<= 32
     230:	c7 00 00 00 20 00 00 00	r0 s>>= 32
     231:	18 09 00 00 7a ff ff ff 00 00 00 00 00 00 00 00	r9 = 4294967162 ll
     233:	c5 00 fc 00 00 00 00 00	if r0 s< 0 goto +252 <LBB2_26>
     234:	bf a3 00 00 00 00 00 00	r3 = r10
     235:	07 03 00 00 58 ff ff ff	r3 += -168
     236:	b7 01 00 00 00 00 00 00	r1 = 0
     237:	b7 02 00 00 00 00 00 00	r2 = 0
     238:	b7 04 00 00 44 00 00 00	r4 = 68
     239:	b7 05 00 00 00 00 00 00	r5 = 0
     240:	85 00 00 00 1c 00 00 00	call 28
     241:	b7 01 00 00 00 00 00 44	r1 = 1140850688
     242:	63 1a e8 ff 00 00 00 00	*(u32 *)(r10 - 24) = r1
     243:	b7 01 00 00 00 00 00 3a	r1 = 973078528
     244:	63 1a c8 ff 00 00 00 00	*(u32 *)(r10 - 56) = r1
     245:	bf a3 00 00 00 00 00 00	r3 = r10
     246:	07 03 00 00 68 ff ff ff	r3 += -152
     247:	b7 01 00 00 00 00 00 00	r1 = 0
     248:	b7 02 00 00 00 00 00 00	r2 = 0
     249:	b7 04 00 00 10 00 00 00	r4 = 16
     250:	bf 05 00 00 00 00 00 00	r5 = r0
     251:	85 00 00 00 1c 00 00 00	call 28
     252:	bf a3 00 00 00 00 00 00	r3 = r10
     253:	07 03 00 00 78 ff ff ff	r3 += -136
     254:	b7 01 00 00 00 00 00 00	r1 = 0
     255:	b7 02 00 00 00 00 00 00	r2 = 0
     256:	b7 04 00 00 10 00 00 00	r4 = 16
     257:	bf 05 00 00 00 00 00 00	r5 = r0
     258:	85 00 00 00 1c 00 00 00	call 28
     259:	bf a3 00 00 00 00 00 00	r3 = r10
     260:	07 03 00 00 e8 ff ff ff	r3 += -24
     261:	b7 01 00 00 00 00 00 00	r1 = 0
     262:	b7 02 00 00 00 00 00 00	r2 = 0
     263:	b7 04 00 00 04 00 00 00	r4 = 4
     264:	bf 05 00 00 00 00 00 00	r5 = r0
     265:	85 00 00 00 1c 00 00 00	call 28
     266:	bf a3 00 00 00 00 00 00	r3 = r10
     267:	07 03 00 00 c8 ff ff ff	r3 += -56
     268:	b7 01 00 00 00 00 00 00	r1 = 0
     269:	b7 02 00 00 00 00 00 00	r2 = 0
     270:	b7 04 00 00 04 00 00 00	r4 = 4
     271:	bf 05 00 00 00 00 00 00	r5 = r0
     272:	85 00 00 00 1c 00 00 00	call 28
     273:	7b 0a 40 ff 00 00 00 00	*(u64 *)(r10 - 192) = r0
     274:	b7 01 00 00 00 44 00 00	r1 = 17408
     275:	6b 1a 56 ff 00 00 00 00	*(u16 *)(r10 - 170) = r1
     276:	69 a1 64 ff 00 00 00 00	r1 = *(u16 *)(r10 - 156)
     277:	dc 01 00 00 10 00 00 00	r1 = be16 r1
     278:	61 62 00 00 00 00 00 00	r2 = *(u32 *)(r6 + 0)
     279:	07 02 00 00 44 00 00 00	r2 += 68
     280:	1f 12 00 00 00 00 00 00	r2 -= r1
     281:	bf 61 00 00 00 00 00 00	r1 = r6
     282:	b7 03 00 00 00 00 00 00	r3 = 0
     283:	85 00 00 00 26 00 00 00	call 38
     284:	67 00 00 00 20 00 00 00	r0 <<= 32
     285:	c7 00 00 00 20 00 00 00	r0 s>>= 32
     286:	18 09 00 00 73 ff ff ff 00 00 00 00 00 00 00 00	r9 = 4294967155 ll
     288:	c5 00 c5 00 00 00 00 00	if r0 s< 0 goto +197 <LBB2_26>
     289:	bf a3 00 00 00 00 00 00	r3 = r10
     290:	07 03 00 00 58 ff ff ff	r3 += -168
     291:	bf 61 00 00 00 00 00 00	r1 = r6
     292:	bf 82 00 00 00 00 00 00	r2 = r8
     293:	b7 04 00 00 44 00 00 00	r4 = 68
     294:	b7 05 00 00 00 00 00 00	r5 = 0
     295:	85 00 00 00 09 00 00 00	call 9
     296:	67 00 00 00 20 00 00 00	r0 <<= 32
     297:	c7 00 00 00 20 00 00 00	r0 s>>= 32
     298:	18 09 00 00 73 ff ff ff 00 00 00 00 00 00 00 00	r9 = 4294967155 ll
     300:	c5 00 b9 00 00 00 00 00	if r0 s< 0 goto +185 <LBB2_26>
     301:	bf 72 00 00 00 00 00 00	r2 = r7
     302:	07 02 00 00 04 00 00 00	r2 += 4
     303:	bf a3 00 00 00 00 00 00	r3 = r10
     304:	07 03 00 00 56 ff ff ff	r3 += -170
     305:	bf 61 00 00 00 00 00 00	r1 = r6
     306:	b7 04 00 00 02 00 00 00	r4 = 2
     307:	b7 05 00 00 00 00 00 00	r5 = 0
     308:	85 00 00 00 09 00 00 00	call 9
     309:	67 00 00 00 20 00 00 00	r0 <<= 32
     310:	c7 00 00 00 20 00 00 00	r0 s>>= 32
     311:	18 09 00 00 73 ff ff ff 00 00 00 00 00 00 00 00	r9 = 4294967155 ll
     313:	c5 00 ac 00 00 00 00 00	if r0 s< 0 goto +172 <LBB2_26>

00000000000009d0 <LBB2_13>:
     314:	bf 78 00 00 00 00 00 00	r8 = r7
     315:	07 08 00 00 2a 00 00 00	r8 += 42
     316:	bf 61 00 00 00 00 00 00	r1 = r6
     317:	bf 82 00 00 00 00 00 00	r2 = r8
     318:	b7 03 00 00 00 00 00 00	r3 = 0
     319:	79 a4 40 ff 00 00 00 00	r4 = *(u64 *)(r10 - 192)
     320:	b7 05 00 00 10 00 00 00	r5 = 16
     321:	85 00 00 00 0b 00 00 00	call 11
     322:	18 09 00 00 66 ff ff ff 00 00 00 00 00 00 00 00	r9 = 4294967142 ll
     324:	67 00 00 00 20 00 00 00	r0 <<= 32
     325:	c7 00 00 00 20 00 00 00	r0 s>>= 32
     326:	c5 00 9f 00 00 00 00 00	if r0 s< 0 goto +159 <LBB2_26>
     327:	7b 8a 40 ff 00 00 00 00	*(u64 *)(r10 - 192) = r8
     328:	18 01 00 00 de ad be ef 00 00 00 00 c0 de 00 00	r1 = 244920237338078 ll
     330:	7b 1a d8 ff 00 00 00 00	*(u64 *)(r10 - 40) = r1
     331:	bf 78 00 00 00 00 00 00	r8 = r7
     332:	07 08 00 00 08 00 00 00	r8 += 8
     333:	bf a3 00 00 00 00 00 00	r3 = r10
     334:	07 03 00 00 c8 ff ff ff	r3 += -56
     335:	bf 61 00 00 00 00 00 00	r1 = r6
     336:	bf 82 00 00 00 00 00 00	r2 = r8
     337:	b7 04 00 00 10 00 00 00	r4 = 16
     338:	85 00 00 00 1a 00 00 00	call 26
     339:	67 00 00 00 20 00 00 00	r0 <<= 32
     340:	c7 00 00 00 20 00 00 00	r0 s>>= 32
     341:	18 09 00 00 7a ff ff ff 00 00 00 00 00 00 00 00	r9 = 4294967162 ll
     343:	c5 00 8e 00 00 00 00 00	if r0 s< 0 goto +142 <LBB2_26>
     344:	07 07 00 00 18 00 00 00	r7 += 24
     345:	bf a3 00 00 00 00 00 00	r3 = r10
     346:	07 03 00 00 b8 ff ff ff	r3 += -72
     347:	bf 61 00 00 00 00 00 00	r1 = r6
     348:	bf 72 00 00 00 00 00 00	r2 = r7
     349:	b7 04 00 00 10 00 00 00	r4 = 16
     350:	85 00 00 00 1a 00 00 00	call 26
     351:	67 00 00 00 20 00 00 00	r0 <<= 32
     352:	c7 00 00 00 20 00 00 00	r0 s>>= 32
     353:	18 09 00 00 7a ff ff ff 00 00 00 00 00 00 00 00	r9 = 4294967162 ll
     355:	c5 00 82 00 00 00 00 00	if r0 s< 0 goto +130 <LBB2_26>
     356:	b7 01 00 00 be ef 00 00	r1 = 61374
     357:	7b 1a a8 ff 00 00 00 00	*(u64 *)(r10 - 88) = r1
     358:	18 01 00 00 00 00 00 01 00 00 00 00 00 01 00 00	r1 = 1099528404992 ll
     360:	7b 1a b0 ff 00 00 00 00	*(u64 *)(r10 - 80) = r1
     361:	bf a3 00 00 00 00 00 00	r3 = r10
     362:	07 03 00 00 a8 ff ff ff	r3 += -88
     363:	bf 61 00 00 00 00 00 00	r1 = r6
     364:	bf 82 00 00 00 00 00 00	r2 = r8
     365:	b7 04 00 00 10 00 00 00	r4 = 16
     366:	b7 05 00 00 00 00 00 00	r5 = 0
     367:	85 00 00 00 09 00 00 00	call 9
     368:	67 00 00 00 20 00 00 00	r0 <<= 32
     369:	c7 00 00 00 20 00 00 00	r0 s>>= 32
     370:	18 09 00 00 73 ff ff ff 00 00 00 00 00 00 00 00	r9 = 4294967155 ll
     372:	c5 00 71 00 00 00 00 00	if r0 s< 0 goto +113 <LBB2_26>
     373:	bf a3 00 00 00 00 00 00	r3 = r10
     374:	07 03 00 00 c8 ff ff ff	r3 += -56
     375:	bf 61 00 00 00 00 00 00	r1 = r6
     376:	bf 72 00 00 00 00 00 00	r2 = r7
     377:	b7 04 00 00 10 00 00 00	r4 = 16
     378:	b7 05 00 00 00 00 00 00	r5 = 0
     379:	85 00 00 00 09 00 00 00	call 9
     380:	67 00 00 00 20 00 00 00	r0 <<= 32
     381:	c7 00 00 00 20 00 00 00	r0 s>>= 32
     382:	18 09 00 00 73 ff ff ff 00 00 00 00 00 00 00 00	r9 = 4294967155 ll
     384:	c5 00 65 00 00 00 00 00	if r0 s< 0 goto +101 <LBB2_26>
     385:	bf a1 00 00 00 00 00 00	r1 = r10
     386:	07 01 00 00 c8 ff ff ff	r1 += -56
     387:	bf a3 00 00 00 00 00 00	r3 = r10
     388:	07 03 00 00 a8 ff ff ff	r3 += -88
     389:	b7 02 00 00 10 00 00 00	r2 = 16
     390:	b7 04 00 00 10 00 00 00	r4 = 16
     391:	b7 05 00 00 00 00 00 00	r5 = 0
     392:	85 00 00 00 1c 00 00 00	call 28
     393:	bf 61 00 00 00 00 00 00	r1 = r6
     394:	79 a2 40 ff 00 00 00 00	r2 = *(u64 *)(r10 - 192)
     395:	b7 03 00 00 00 00 00 00	r3 = 0
     396:	bf 04 00 00 00 00 00 00	r4 = r0
     397:	b7 05 00 00 10 00 00 00	r5 = 16
     398:	85 00 00 00 0b 00 00 00	call 11
     399:	18 09 00 00 66 ff ff ff 00 00 00 00 00 00 00 00	r9 = 4294967142 ll
     401:	67 00 00 00 20 00 00 00	r0 <<= 32
     402:	c7 00 00 00 20 00 00 00	r0 s>>= 32
     403:	c5 00 52 00 00 00 00 00	if r0 s< 0 goto +82 <LBB2_26>
     404:	bf a1 00 00 00 00 00 00	r1 = r10
     405:	07 01 00 00 b8 ff ff ff	r1 += -72
     406:	bf a3 00 00 00 00 00 00	r3 = r10
     407:	07 03 00 00 c8 ff ff ff	r3 += -56
     408:	b7 02 00 00 10 00 00 00	r2 = 16
     409:	b7 04 00 00 10 00 00 00	r4 = 16
     410:	b7 05 00 00 00 00 00 00	r5 = 0
     411:	85 00 00 00 1c 00 00 00	call 28
     412:	bf 61 00 00 00 00 00 00	r1 = r6
     413:	79 a2 40 ff 00 00 00 00	r2 = *(u64 *)(r10 - 192)
     414:	b7 03 00 00 00 00 00 00	r3 = 0
     415:	bf 04 00 00 00 00 00 00	r4 = r0
     416:	b7 05 00 00 10 00 00 00	r5 = 16
     417:	85 00 00 00 0b 00 00 00	call 11
     418:	67 00 00 00 20 00 00 00	r0 <<= 32
     419:	c7 00 00 00 20 00 00 00	r0 s>>= 32
     420:	c5 00 41 00 00 00 00 00	if r0 s< 0 goto +65 <LBB2_26>
     421:	bf a3 00 00 00 00 00 00	r3 = r10
     422:	07 03 00 00 e0 ff ff ff	r3 += -32
     423:	bf 61 00 00 00 00 00 00	r1 = r6
     424:	b7 02 00 00 06 00 00 00	r2 = 6
     425:	b7 04 00 00 06 00 00 00	r4 = 6
     426:	85 00 00 00 1a 00 00 00	call 26
     427:	67 00 00 00 20 00 00 00	r0 <<= 32
     428:	c7 00 00 00 20 00 00 00	r0 s>>= 32
     429:	18 09 00 00 7a ff ff ff 00 00 00 00 00 00 00 00	r9 = 4294967162 ll
     431:	c5 00 36 00 00 00 00 00	if r0 s< 0 goto +54 <LBB2_26>
     432:	bf a3 00 00 00 00 00 00	r3 = r10
     433:	07 03 00 00 e0 ff ff ff	r3 += -32
     434:	bf 61 00 00 00 00 00 00	r1 = r6
     435:	b7 02 00 00 00 00 00 00	r2 = 0
     436:	b7 04 00 00 06 00 00 00	r4 = 6
     437:	b7 05 00 00 00 00 00 00	r5 = 0
     438:	85 00 00 00 09 00 00 00	call 9
     439:	67 00 00 00 20 00 00 00	r0 <<= 32
     440:	c7 00 00 00 20 00 00 00	r0 s>>= 32
     441:	18 09 00 00 73 ff ff ff 00 00 00 00 00 00 00 00	r9 = 4294967155 ll
     443:	c5 00 2a 00 00 00 00 00	if r0 s< 0 goto +42 <LBB2_26>
     444:	bf a3 00 00 00 00 00 00	r3 = r10
     445:	07 03 00 00 d8 ff ff ff	r3 += -40
     446:	bf 61 00 00 00 00 00 00	r1 = r6
     447:	b7 02 00 00 06 00 00 00	r2 = 6
     448:	b7 04 00 00 06 00 00 00	r4 = 6
     449:	b7 05 00 00 00 00 00 00	r5 = 0
     450:	85 00 00 00 09 00 00 00	call 9
     451:	67 00 00 00 20 00 00 00	r0 <<= 32
     452:	c7 00 00 00 20 00 00 00	r0 s>>= 32
     453:	18 09 00 00 73 ff ff ff 00 00 00 00 00 00 00 00	r9 = 4294967155 ll
     455:	c5 00 1e 00 00 00 00 00	if r0 s< 0 goto +30 <LBB2_26>
     456:	61 67 00 00 00 00 00 00	r7 = *(u32 *)(r6 + 0)
     457:	61 68 28 00 00 00 00 00	r8 = *(u32 *)(r6 + 40)
     458:	bf 61 00 00 00 00 00 00	r1 = r6
     459:	85 00 00 00 22 00 00 00	call 34
     460:	63 0a ec ff 00 00 00 00	*(u32 *)(r10 - 20) = r0
     461:	b7 01 00 00 03 04 00 00	r1 = 1027
     462:	63 1a e8 ff 00 00 00 00	*(u32 *)(r10 - 24) = r1
     463:	63 8a f8 ff 00 00 00 00	*(u32 *)(r10 - 8) = r8
     464:	63 7a f0 ff 00 00 00 00	*(u32 *)(r10 - 16) = r7
     465:	a5 07 01 00 80 00 00 00	if r7 < 128 goto +1 <LBB2_25>
     466:	b7 07 00 00 80 00 00 00	r7 = 128

0000000000000e98 <LBB2_25>:
     467:	63 7a f4 ff 00 00 00 00	*(u32 *)(r10 - 12) = r7
     468:	67 07 00 00 20 00 00 00	r7 <<= 32
     469:	18 01 00 00 ff ff ff ff 00 00 00 00 00 00 00 00	r1 = 4294967295 ll
     471:	4f 17 00 00 00 00 00 00	r7 |= r1
     472:	b7 01 00 00 00 00 00 00	r1 = 0
     473:	63 1a fc ff 00 00 00 00	*(u32 *)(r10 - 4) = r1
     474:	bf a4 00 00 00 00 00 00	r4 = r10
     475:	07 04 00 00 e8 ff ff ff	r4 += -24
     476:	bf 61 00 00 00 00 00 00	r1 = r6
     477:	18 02 00 00 00 00 00 00 00 00 00 00 00 00 00 00	r2 = 0 ll
     479:	bf 73 00 00 00 00 00 00	r3 = r7
     480:	b7 05 00 00 18 00 00 00	r5 = 24
     481:	85 00 00 00 19 00 00 00	call 25
     482:	61 61 28 00 00 00 00 00	r1 = *(u32 *)(r6 + 40)
     483:	b7 02 00 00 00 00 00 00	r2 = 0
     484:	85 00 00 00 17 00 00 00	call 23
     485:	bf 09 00 00 00 00 00 00	r9 = r0

0000000000000f30 <LBB2_26>:
     486:	bf 91 00 00 00 00 00 00	r1 = r9
     487:	67 01 00 00 20 00 00 00	r1 <<= 32
     488:	77 01 00 00 20 00 00 00	r1 >>= 32
     489:	b7 02 00 00 01 00 00 00	r2 = 1
     490:	15 01 01 00 02 00 00 00	if r1 == 2 goto +1 <LBB2_28>
     491:	b7 02 00 00 00 00 00 00	r2 = 0

0000000000000f60 <LBB2_28>:
     492:	77 01 00 00 1f 00 00 00	r1 >>= 31
     493:	4f 21 00 00 00 00 00 00	r1 |= r2
     494:	15 01 2e 00 00 00 00 00	if r1 == 0 goto +46 <LBB2_33>
     495:	b7 01 00 00 02 00 00 00	r1 = 2
     496:	63 16 30 00 00 00 00 00	*(u32 *)(r6 + 48) = r1
     497:	b7 01 00 00 00 00 00 00	r1 = 0
     498:	63 16 34 00 00 00 00 00	*(u32 *)(r6 + 52) = r1
     499:	63 96 38 00 00 00 00 00	*(u32 *)(r6 + 56) = r9
     500:	63 16 3c 00 00 00 00 00	*(u32 *)(r6 + 60) = r1
     501:	63 16 40 00 00 00 00 00	*(u32 *)(r6 + 64) = r1
     502:	61 67 00 00 00 00 00 00	r7 = *(u32 *)(r6 + 0)
     503:	7b 1a 60 ff 00 00 00 00	*(u64 *)(r10 - 160) = r1
     504:	7b 1a 58 ff 00 00 00 00	*(u64 *)(r10 - 168) = r1
     505:	7b 1a e8 ff 00 00 00 00	*(u64 *)(r10 - 24) = r1
     506:	79 a1 48 ff 00 00 00 00	r1 = *(u64 *)(r10 - 184)
     507:	57 01 00 00 03 00 00 00	r1 &= 3
     508:	73 1a e9 ff 00 00 00 00	*(u8 *)(r10 - 23) = r1
     509:	87 09 00 00 00 00 00 00	r9 = -r9
     510:	73 9a e8 ff 00 00 00 00	*(u8 *)(r10 - 24) = r9
     511:	bf a2 00 00 00 00 00 00	r2 = r10
     512:	07 02 00 00 e8 ff ff ff	r2 += -24
     513:	18 01 00 00 00 00 00 00 00 00 00 00 00 00 00 00	r1 = 0 ll
     515:	85 00 00 00 01 00 00 00	call 1
     516:	15 00 07 00 00 00 00 00	if r0 == 0 goto +7 <LBB2_31>
     517:	79 01 00 00 00 00 00 00	r1 = *(u64 *)(r0 + 0)
     518:	07 01 00 00 01 00 00 00	r1 += 1
     519:	7b 10 00 00 00 00 00 00	*(u64 *)(r0 + 0) = r1
     520:	79 01 08 00 00 00 00 00	r1 = *(u64 *)(r0 + 8)
     521:	0f 71 00 00 00 00 00 00	r1 += r7
     522:	7b 10 08 00 00 00 00 00	*(u64 *)(r0 + 8) = r1
     523:	05 00 0b 00 00 00 00 00	goto +11 <LBB2_32>

0000000000001060 <LBB2_31>:
     524:	7b 7a 60 ff 00 00 00 00	*(u64 *)(r10 - 160) = r7
     525:	b7 01 00 00 01 00 00 00	r1 = 1
     526:	7b 1a 58 ff 00 00 00 00	*(u64 *)(r10 - 168) = r1
     527:	bf a2 00 00 00 00 00 00	r2 = r10
     528:	07 02 00 00 e8 ff ff ff	r2 += -24
     529:	bf a3 00 00 00 00 00 00	r3 = r10
     530:	07 03 00 00 58 ff ff ff	r3 += -168
     531:	18 01 00 00 00 00 00 00 00 00 00 00 00 00 00 00	r1 = 0 ll
     533:	b7 04 00 00 00 00 00 00	r4 = 0
     534:	85 00 00 00 02 00 00 00	call 2

00000000000010b8 <LBB2_32>:
     535:	bf 61 00 00 00 00 00 00	r1 = r6
     536:	18 02 00 00 00 00 00 00 00 00 00 00 00 00 00 00	r2 = 0 ll
     538:	b7 03 00 00 01 00 00 00	r3 = 1
     539:	85 00 00 00 0c 00 00 00	call 12
     540:	b7 09 00 00 02 00 00 00	r9 = 2

00000000000010e8 <LBB2_33>:
     541:	bf 90 00 00 00 00 00 00	r0 = r9
     542:	95 00 00 00 00 00 00 00	exit

Disassembly of section 2/4:

0000000000000000 <tail_icmp6_handle_ns>:
       0:	bf 16 00 00 00 00 00 00	r6 = r1
       1:	61 61 34 00 00 00 00 00	r1 = *(u32 *)(r6 + 52)
       2:	7b 1a 70 ff 00 00 00 00	*(u64 *)(r10 - 144) = r1
       3:	61 67 30 00 00 00 00 00	r7 = *(u32 *)(r6 + 48)
       4:	bf 72 00 00 00 00 00 00	r2 = r7
       5:	07 02 00 00 30 00 00 00	r2 += 48
       6:	bf a3 00 00 00 00 00 00	r3 = r10
       7:	07 03 00 00 78 ff ff ff	r3 += -136
       8:	bf 61 00 00 00 00 00 00	r1 = r6
       9:	b7 04 00 00 10 00 00 00	r4 = 16
      10:	85 00 00 00 1a 00 00 00	call 26
      11:	18 09 00 00 7a ff ff ff 00 00 00 00 00 00 00 00	r9 = 4294967162 ll
      13:	67 00 00 00 20 00 00 00	r0 <<= 32
      14:	c7 00 00 00 20 00 00 00	r0 s>>= 32
      15:	c5 00 2c 01 00 00 00 00	if r0 s< 0 goto +300 <LBB3_23>
      16:	79 a8 80 ff 00 00 00 00	r8 = *(u64 *)(r10 - 128)
      17:	bf 61 00 00 00 00 00 00	r1 = r6
      18:	85 00 00 00 22 00 00 00	call 34
      19:	63 0a ec ff 00 00 00 00	*(u32 *)(r10 - 20) = r0
      20:	b7 01 00 00 02 0d 00 00	r1 = 3330
      21:	63 1a e8 ff 00 00 00 00	*(u32 *)(r10 - 24) = r1
      22:	7b 8a f0 ff 00 00 00 00	*(u64 *)(r10 - 16) = r8
      23:	b7 01 00 00 00 00 00 00	r1 = 0
      24:	63 1a f8 ff 00 00 00 00	*(u32 *)(r10 - 8) = r1
      25:	bf a4 00 00 00 00 00 00	r4 = r10
      26:	07 04 00 00 e8 ff ff ff	r4 += -24
      27:	bf 61 00 00 00 00 00 00	r1 = r6
      28:	18 02 00 00 00 00 00 00 00 00 00 00 00 00 00 00	r2 = 0 ll
      30:	18 03 00 00 ff ff ff ff 00 00 00 00 00 00 00 00	r3 = 4294967295 ll
      32:	b7 05 00 00 14 00 00 00	r5 = 20
      33:	85 00 00 00 19 00 00 00	call 25
      34:	18 09 00 00 6a ff ff ff 00 00 00 00 00 00 00 00	r9 = 4294967146 ll
      36:	61 a1 78 ff 00 00 00 00	r1 = *(u32 *)(r10 - 136)
      37:	55 01 16 01 be ef 00 00	if r1 != 61374 goto +278 <LBB3_23>
      38:	61 a1 7c ff 00 00 00 00	r1 = *(u32 *)(r10 - 132)
      39:	55 01 14 01 00 00 00 00	if r1 != 0 goto +276 <LBB3_23>
      40:	61 a1 80 ff 00 00 00 00	r1 = *(u32 *)(r10 - 128)
      41:	55 01 12 01 00 00 00 01	if r1 != 16777216 goto +274 <LBB3_23>
      42:	61 a1 84 ff 00 00 00 00	r1 = *(u32 *)(r10 - 124)
      43:	55 01 10 01 00 01 00 00	if r1 != 256 goto +272 <LBB3_23>
      44:	b7 01 00 00 00 00 00 00	r1 = 0
      45:	7b 1a a0 ff 00 00 00 00	*(u64 *)(r10 - 96) = r1
      46:	bf 78 00 00 00 00 00 00	r8 = r7
      47:	07 08 00 00 28 00 00 00	r8 += 40
      48:	bf a3 00 00 00 00 00 00	r3 = r10
      49:	07 03 00 00 98 ff ff ff	r3 += -104
      50:	bf 61 00 00 00 00 00 00	r1 = r6
      51:	bf 82 00 00 00 00 00 00	r2 = r8
      52:	b7 04 00 00 08 00 00 00	r4 = 8
      53:	85 00 00 00 1a 00 00 00	call 26
      54:	67 00 00 00 20 00 00 00	r0 <<= 32
      55:	c7 00 00 00 20 00 00 00	r0 s>>= 32
      56:	18 09 00 00 7a ff ff ff 00 00 00 00 00 00 00 00	r9 = 4294967162 ll
      58:	c5 00 01 01 00 00 00 00	if r0 s< 0 goto +257 <LBB3_23>
      59:	b7 01 00 00 88 00 00 00	r1 = 136
      60:	6b 1a a0 ff 00 00 00 00	*(u16 *)(r10 - 96) = r1
      61:	69 a1 9a ff 00 00 00 00	r1 = *(u16 *)(r10 - 102)
      62:	6b 1a a2 ff 00 00 00 00	*(u16 *)(r10 - 94) = r1
      63:	b7 01 00 00 c0 00 00 00	r1 = 192
      64:	63 1a a4 ff 00 00 00 00	*(u32 *)(r10 - 92) = r1
      65:	bf a3 00 00 00 00 00 00	r3 = r10
      66:	07 03 00 00 a0 ff ff ff	r3 += -96
      67:	bf 61 00 00 00 00 00 00	r1 = r6
      68:	bf 82 00 00 00 00 00 00	r2 = r8
      69:	b7 04 00 00 08 00 00 00	r4 = 8
      70:	b7 05 00 00 00 00 00 00	r5 = 0
      71:	85 00 00 00 09 00 00 00	call 9
      72:	67 00 00 00 20 00 00 00	r0 <<= 32
      73:	c7 00 00 00 20 00 00 00	r0 s>>= 32
      74:	18 09 00 00 73 ff ff ff 00 00 00 00 00 00 00 00	r9 = 4294967155 ll
      76:	c5 00 ef 00 00 00 00 00	if r0 s< 0 goto +239 <LBB3_23>
      77:	bf 78 00 00 00 00 00 00	r8 = r7
      78:	07 08 00 00 2a 00 00 00	r8 += 42
      79:	bf a1 00 00 00 00 00 00	r1 = r10
      80:	07 01 00 00 98 ff ff ff	r1 += -104
      81:	bf a3 00 00 00 00 00 00	r3 = r10
      82:	07 03 00 00 a0 ff ff ff	r3 += -96
      83:	b7 02 00 00 08 00 00 00	r2 = 8
      84:	b7 04 00 00 08 00 00 00	r4 = 8
      85:	b7 05 00 00 00 00 00 00	r5 = 0
      86:	85 00 00 00 1c 00 00 00	call 28
      87:	bf 61 00 00 00 00 00 00	r1 = r6
      88:	7b 8a 68 ff 00 00 00 00	*(u64 *)(r10 - 152) = r8
      89:	bf 82 00 00 00 00 00 00	r2 = r8
      90:	b7 03 00 00 00 00 00 00	r3 = 0
      91:	bf 04 00 00 00 00 00 00	r4 = r0
      92:	b7 05 00 00 10 00 00 00	r5 = 16
      93:	85 00 00 00 0b 00 00 00	call 11
      94:	67 00 00 00 20 00 00 00	r0 <<= 32
      95:	c7 00 00 00 20 00 00 00	r0 s>>= 32
      96:	18 09 00 00 66 ff ff ff 00 00 00 00 00 00 00 00	r9 = 4294967142 ll
      98:	c5 00 d9 00 00 00 00 00	if r0 s< 0 goto +217 <LBB3_23>
      99:	bf 78 00 00 00 00 00 00	r8 = r7
     100:	07 08 00 00 40 00 00 00	r8 += 64
     101:	bf a3 00 00 00 00 00 00	r3 = r10
     102:	07 03 00 00 88 ff ff ff	r3 += -120
     103:	bf 61 00 00 00 00 00 00	r1 = r6
     104:	bf 82 00 00 00 00 00 00	r2 = r8
     105:	b7 04 00 00 08 00 00 00	r4 = 8
     106:	85 00 00 00 1a 00 00 00	call 26
     107:	67 00 00 00 20 00 00 00	r0 <<= 32
     108:	c7 00 00 00 20 00 00 00	r0 s>>= 32
     109:	18 09 00 00 7a ff ff ff 00 00 00 00 00 00 00 00	r9 = 4294967162 ll
     111:	c5 00 cc 00 00 00 00 00	if r0 s< 0 goto +204 <LBB3_23>
     112:	b7 01 00 00 01 00 00 00	r1 = 1
     113:	73 1a 91 ff 00 00 00 00	*(u8 *)(r10 - 111) = r1
     114:	b7 01 00 00 02 00 00 00	r1 = 2
     115:	73 1a 90 ff 00 00 00 00	*(u8 *)(r10 - 112) = r1
     116:	b7 01 00 00 ad 00 00 00	r1 = 173
     117:	73 1a 93 ff 00 00 00 00	*(u8 *)(r10 - 109) = r1
     118:	b7 01 00 00 be 00 00 00	r1 = 190
     119:	73 1a 94 ff 00 00 00 00	*(u8 *)(r10 - 108) = r1
     120:	b7 01 00 00 ef 00 00 00	r1 = 239
     121:	73 1a 95 ff 00 00 00 00	*(u8 *)(r10 - 107) = r1
     122:	b7 01 00 00 c0 00 00 00	r1 = 192
     123:	73 1a 96 ff 00 00 00 00	*(u8 *)(r10 - 106) = r1
     124:	b7 01 00 00 de 00 00 00	r1 = 222
     125:	73 1a 92 ff 00 00 00 00	*(u8 *)(r10 - 110) = r1
     126:	73 1a 97 ff 00 00 00 00	*(u8 *)(r10 - 105) = r1
     127:	bf a3 00 00 00 00 00 00	r3 = r10
     128:	07 03 00 00 90 ff ff ff	r3 += -112
     129:	bf 61 00 00 00 00 00 00	r1 = r6
     130:	bf 82 00 00 00 00 00 00	r2 = r8
     131:	b7 04 00 00 08 00 00 00	r4 = 8
     132:	b7 05 00 00 00 00 00 00	r5 = 0
     133:	85 00 00 00 09 00 00 00	call 9
     134:	67 00 00 00 20 00 00 00	r0 <<= 32
     135:	c7 00 00 00 20 00 00 00	r0 s>>= 32
     136:	18 09 00 00 73 ff ff ff 00 00 00 00 00 00 00 00	r9 = 4294967155 ll
     138:	c5 00 b1 00 00 00 00 00	if r0 s< 0 goto +177 <LBB3_23>
     139:	bf a1 00 00 00 00 00 00	r1 = r10
     140:	07 01 00 00 88 ff ff ff	r1 += -120
     141:	bf a3 00 00 00 00 00 00	r3 = r10
     142:	07 03 00 00 90 ff ff ff	r3 += -112
     143:	b7 02 00 00 08 00 00 00	r2 = 8
     144:	b7 04 00 00 08 00 00 00	r4 = 8
     145:	b7 05 00 00 00 00 00 00	r5 = 0
     146:	85 00 00 00 1c 00 00 00	call 28
     147:	bf 61 00 00 00 00 00 00	r1 = r6
     148:	79 a2 68 ff 00 00 00 00	r2 = *(u64 *)(r10 - 152)
     149:	b7 03 00 00 00 00 00 00	r3 = 0
     150:	bf 04 00 00 00 00 00 00	r4 = r0
     151:	b7 05 00 00 10 00 00 00	r5 = 16
     152:	85 00 00 00 0b 00 00 00	call 11
     153:	67 00 00 00 20 00 00 00	r0 <<= 32
     154:	c7 00 00 00 20 00 00 00	r0 s>>= 32
     155:	18 09 00 00 66 ff ff ff 00 00 00 00 00 00 00 00	r9 = 4294967142 ll
     157:	c5 00 9e 00 00 00 00 00	if r0 s< 0 goto +158 <LBB3_23>
     158:	18 01 00 00 de ad be ef 00 00 00 00 c0 de 00 00	r1 = 244920237338078 ll
     160:	7b 1a d8 ff 00 00 00 00	*(u64 *)(r10 - 40) = r1
     161:	bf 78 00 00 00 00 00 00	r8 = r7
     162:	07 08 00 00 08 00 00 00	r8 += 8
     163:	bf a3 00 00 00 00 00 00	r3 = r10
     164:	07 03 00 00 c8 ff ff ff	r3 += -56
     165:	bf 61 00 00 00 00 00 00	r1 = r6
     166:	bf 82 00 00 00 00 00 00	r2 = r8
     167:	b7 04 00 00 10 00 00 00	r4 = 16
     168:	85 00 00 00 1a 00 00 00	call 26
     169:	67 00 00 00 20 00 00 00	r0 <<= 32
     170:	c7 00 00 00 20 00 00 00	r0 s>>= 32
     171:	18 09 00 00 7a ff ff ff 00 00 00 00 00 00 00 00	r9 = 4294967162 ll
     173:	c5 00 8e 00 00 00 00 00	if r0 s< 0 goto +142 <LBB3_23>
     174:	07 07 00 00 18 00 00 00	r7 += 24
     175:	bf a3 00 00 00 00 00 00	r3 = r10
     176:	07 03 00 00 b8 ff ff ff	r3 += -72
     177:	bf 61 00 00 00 00 00 00	r1 = r6
     178:	bf 72 00 00 00 00 00 00	r2 = r7
     179:	b7 04 00 00 10 00 00 00	r4 = 16
     180:	85 00 00 00 1a 00 00 00	call 26
     181:	67 00 00 00 20 00 00 00	r0 <<= 32
     182:	c7 00 00 00 20 00 00 00	r0 s>>= 32
     183:	18 09 00 00 7a ff ff ff 00 00 00 00 00 00 00 00	r9 = 4294967162 ll
     185:	c5 00 82 00 00 00 00 00	if r0 s< 0 goto +130 <LBB3_23>
     186:	b7 01 00 00 be ef 00 00	r1 = 61374
     187:	7b 1a a8 ff 00 00 00 00	*(u64 *)(r10 - 88) = r1
     188:	18 01 00 00 00 00 00 01 00 00 00 00 00 01 00 00	r1 = 1099528404992 ll
     190:	7b 1a b0 ff 00 00 00 00	*(u64 *)(r10 - 80) = r1
     191:	bf a3 00 00 00 00 00 00	r3 = r10
     192:	07 03 00 00 a8 ff ff ff	r3 += -88
     193:	bf 61 00 00 00 00 00 00	r1 = r6
     194:	bf 82 00 00 00 00 00 00	r2 = r8
     195:	b7 04 00 00 10 00 00 00	r4 = 16
     196:	b7 05 00 00 00 00 00 00	r5 = 0
     197:	85 00 00 00 09 00 00 00	call 9
     198:	67 00 00 00 20 00 00 00	r0 <<= 32
     199:	c7 00 00 00 20 00 00 00	r0 s>>= 32
     200:	18 09 00 00 73 ff ff ff 00 00 00 00 00 00 00 00	r9 = 4294967155 ll
     202:	c5 00 71 00 00 00 00 00	if r0 s< 0 goto +113 <LBB3_23>
     203:	bf a3 00 00 00 00 00 00	r3 = r10
     204:	07 03 00 00 c8 ff ff ff	r3 += -56
     205:	bf 61 00 00 00 00 00 00	r1 = r6
     206:	bf 72 00 00 00 00 00 00	r2 = r7
     207:	b7 04 00 00 10 00 00 00	r4 = 16
     208:	b7 05 00 00 00 00 00 00	r5 = 0
     209:	85 00 00 00 09 00 00 00	call 9
     210:	67 00 00 00 20 00 00 00	r0 <<= 32
     211:	c7 00 00 00 20 00 00 00	r0 s>>= 32
     212:	18 09 00 00 73 ff ff ff 00 00 00 00 00 00 00 00	r9 = 4294967155 ll
     214:	c5 00 65 00 00 00 00 00	if r0 s< 0 goto +101 <LBB3_23>
     215:	bf a1 00 00 00 00 00 00	r1 = r10
     216:	07 01 00 00 c8 ff ff ff	r1 += -56
     217:	bf a3 00 00 00 00 00 00	r3 = r10
     218:	07 03 00 00 a8 ff ff ff	r3 += -88
     219:	b7 02 00 00 10 00 00 00	r2 = 16
     220:	b7 04 00 00 10 00 00 00	r4 = 16
     221:	b7 05 00 00 00 00 00 00	r5 = 0
     222:	85 00 00 00 1c 00 00 00	call 28
     223:	bf 61 00 00 00 00 00 00	r1 = r6
     224:	79 a2 68 ff 00 00 00 00	r2 = *(u64 *)(r10 - 152)
     225:	b7 03 00 00 00 00 00 00	r3 = 0
     226:	bf 04 00 00 00 00 00 00	r4 = r0
     227:	b7 05 00 00 10 00 00 00	r5 = 16
     228:	85 00 00 00 0b 00 00 00	call 11
     229:	18 09 00 00 66 ff ff ff 00 00 00 00 00 00 00 00	r9 = 4294967142 ll
     231:	67 00 00 00 20 00 00 00	r0 <<= 32
     232:	c7 00 00 00 20 00 00 00	r0 s>>= 32
     233:	c5 00 52 00 00 00 00 00	if r0 s< 0 goto +82 <LBB3_23>
     234:	bf a1 00 00 00 00 00 00	r1 = r10
     235:	07 01 00 00 b8 ff ff ff	r1 += -72
     236:	bf a3 00 00 00 00 00 00	r3 = r10
     237:	07 03 00 00 c8 ff ff ff	r3 += -56
     238:	b7 02 00 00 10 00 00 00	r2 = 16
     239:	b7 04 00 00 10 00 00 00	r4 = 16
     240:	b7 05 00 00 00 00 00 00	r5 = 0
     241:	85 00 00 00 1c 00 00 00	call 28
     242:	bf 61 00 00 00 00 00 00	r1 = r6
     243:	79 a2 68 ff 00 00 00 00	r2 = *(u64 *)(r10 - 152)
     244:	b7 03 00 00 00 00 00 00	r3 = 0
     245:	bf 04 00 00 00 00 00 00	r4 = r0
     246:	b7 05 00 00 10 00 00 00	r5 = 16
     247:	85 00 00 00 0b 00 00 00	call 11
     248:	67 00 00 00 20 00 00 00	r0 <<= 32
     249:	c7 00 00 00 20 00 00 00	r0 s>>= 32
     250:	c5 00 41 00 00 00 00 00	if r0 s< 0 goto +65 <LBB3_23>
     251:	bf a3 00 00 00 00 00 00	r3 = r10
     252:	07 03 00 00 e0 ff ff ff	r3 += -32
     253:	bf 61 00 00 00 00 00 00	r1 = r6
     254:	b7 02 00 00 06 00 00 00	r2 = 6
     255:	b7 04 00 00 06 00 00 00	r4 = 6
     256:	85 00 00 00 1a 00 00 00	call 26
     257:	67 00 00 00 20 00 00 00	r0 <<= 32
     258:	c7 00 00 00 20 00 00 00	r0 s>>= 32
     259:	18 09 00 00 7a ff ff ff 00 00 00 00 00 00 00 00	r9 = 4294967162 ll
     261:	c5 00 36 00 00 00 00 00	if r0 s< 0 goto +54 <LBB3_23>
     262:	bf a3 00 00 00 00 00 00	r3 = r10
     263:	07 03 00 00 e0 ff ff ff	r3 += -32
     264:	bf 61 00 00 00 00 00 00	r1 = r6
     265:	b7 02 00 00 00 00 00 00	r2 = 0
     266:	b7 04 00 00 06 00 00 00	r4 = 6
     267:	b7 05 00 00 00 00 00 00	r5 = 0
     268:	85 00 00 00 09 00 00 00	call 9
     269:	67 00 00 00 20 00 00 00	r0 <<= 32
     270:	c7 00 00 00 20 00 00 00	r0 s>>= 32
     271:	18 09 00 00 73 ff ff ff 00 00 00 00 00 00 00 00	r9 = 4294967155 ll
     273:	c5 00 2a 00 00 00 00 00	if r0 s< 0 goto +42 <LBB3_23>
     274:	bf a3 00 00 00 00 00 00	r3 = r10
     275:	07 03 00 00 d8 ff ff ff	r3 += -40
     276:	bf 61 00 00 00 00 00 00	r1 = r6
     277:	b7 02 00 00 06 00 00 00	r2 = 6
     278:	b7 04 00 00 06 00 00 00	r4 = 6
     279:	b7 05 00 00 00 00 00 00	r5 = 0
     280:	85 00 00 00 09 00 00 00	call 9
     281:	67 00 00 00 20 00 00 00	r0 <<= 32
     282:	c7 00 00 00 20 00 00 00	r0 s>>= 32
     283:	18 09 00 00 73 ff ff ff 00 00 00 00 00 00 00 00	r9 = 4294967155 ll
     285:	c5 00 1e 00 00 00 00 00	if r0 s< 0 goto +30 <LBB3_23>
     286:	61 67 00 00 00 00 00 00	r7 = *(u32 *)(r6 + 0)
     287:	61 68 28 00 00 00 00 00	r8 = *(u32 *)(r6 + 40)
     288:	bf 61 00 00 00 00 00 00	r1 = r6
     289:	85 00 00 00 22 00 00 00	call 34
     290:	63 0a ec ff 00 00 00 00	*(u32 *)(r10 - 20) = r0
     291:	b7 01 00 00 03 04 00 00	r1 = 1027
     292:	63 1a e8 ff 00 00 00 00	*(u32 *)(r10 - 24) = r1
     293:	63 8a f8 ff 00 00 00 00	*(u32 *)(r10 - 8) = r8
     294:	63 7a f0 ff 00 00 00 00	*(u32 *)(r10 - 16) = r7
     295:	a5 07 01 00 80 00 00 00	if r7 < 128 goto +1 <LBB3_22>
     296:	b7 07 00 00 80 00 00 00	r7 = 128

0000000000000948 <LBB3_22>:
     297:	63 7a f4 ff 00 00 00 00	*(u32 *)(r10 - 12) = r7
     298:	67 07 00 00 20 00 00 00	r7 <<= 32
     299:	18 01 00 00 ff ff ff ff 00 00 00 00 00 00 00 00	r1 = 4294967295 ll
     301:	4f 17 00 00 00 00 00 00	r7 |= r1
     302:	b7 01 00 00 00 00 00 00	r1 = 0
     303:	63 1a fc ff 00 00 00 00	*(u32 *)(r10 - 4) = r1
     304:	bf a4 00 00 00 00 00 00	r4 = r10
     305:	07 04 00 00 e8 ff ff ff	r4 += -24
     306:	bf 61 00 00 00 00 00 00	r1 = r6
     307:	18 02 00 00 00 00 00 00 00 00 00 00 00 00 00 00	r2 = 0 ll
     309:	bf 73 00 00 00 00 00 00	r3 = r7
     310:	b7 05 00 00 18 00 00 00	r5 = 24
     311:	85 00 00 00 19 00 00 00	call 25
     312:	61 61 28 00 00 00 00 00	r1 = *(u32 *)(r6 + 40)
     313:	b7 02 00 00 00 00 00 00	r2 = 0
     314:	85 00 00 00 17 00 00 00	call 23
     315:	bf 09 00 00 00 00 00 00	r9 = r0

00000000000009e0 <LBB3_23>:
     316:	bf 91 00 00 00 00 00 00	r1 = r9
     317:	67 01 00 00 20 00 00 00	r1 <<= 32
     318:	77 01 00 00 20 00 00 00	r1 >>= 32
     319:	b7 02 00 00 01 00 00 00	r2 = 1
     320:	15 01 01 00 02 00 00 00	if r1 == 2 goto +1 <LBB3_25>
     321:	b7 02 00 00 00 00 00 00	r2 = 0

0000000000000a10 <LBB3_25>:
     322:	77 01 00 00 1f 00 00 00	r1 >>= 31
     323:	4f 21 00 00 00 00 00 00	r1 |= r2
     324:	15 01 2e 00 00 00 00 00	if r1 == 0 goto +46 <LBB3_30>
     325:	b7 01 00 00 02 00 00 00	r1 = 2
     326:	63 16 30 00 00 00 00 00	*(u32 *)(r6 + 48) = r1
     327:	b7 01 00 00 00 00 00 00	r1 = 0
     328:	63 16 34 00 00 00 00 00	*(u32 *)(r6 + 52) = r1
     329:	63 96 38 00 00 00 00 00	*(u32 *)(r6 + 56) = r9
     330:	63 16 3c 00 00 00 00 00	*(u32 *)(r6 + 60) = r1
     331:	63 16 40 00 00 00 00 00	*(u32 *)(r6 + 64) = r1
     332:	61 67 00 00 00 00 00 00	r7 = *(u32 *)(r6 + 0)
     333:	7b 1a f0 ff 00 00 00 00	*(u64 *)(r10 - 16) = r1
     334:	7b 1a e8 ff 00 00 00 00	*(u64 *)(r10 - 24) = r1
     335:	7b 1a c8 ff 00 00 00 00	*(u64 *)(r10 - 56) = r1
     336:	79 a1 70 ff 00 00 00 00	r1 = *(u64 *)(r10 - 144)
     337:	57 01 00 00 03 00 00 00	r1 &= 3
     338:	73 1a c9 ff 00 00 00 00	*(u8 *)(r10 - 55) = r1
     339:	87 09 00 00 00 00 00 00	r9 = -r9
     340:	73 9a c8 ff 00 00 00 00	*(u8 *)(r10 - 56) = r9
     341:	bf a2 00 00 00 00 00 00	r2 = r10
     342:	07 02 00 00 c8 ff ff ff	r2 += -56
     343:	18 01 00 00 00 00 00 00 00 00 00 00 00 00 00 00	r1 = 0 ll
     345:	85 00 00 00 01 00 00 00	call 1
     346:	15 00 07 00 00 00 00 00	if r0 == 0 goto +7 <LBB3_28>
     347:	79 01 00 00 00 00 00 00	r1 = *(u64 *)(r0 + 0)
     348:	07 01 00 00 01 00 00 00	r1 += 1
     349:	7b 10 00 00 00 00 00 00	*(u64 *)(r0 + 0) = r1
     350:	79 01 08 00 00 00 00 00	r1 = *(u64 *)(r0 + 8)
     351:	0f 71 00 00 00 00 00 00	r1 += r7
     352:	7b 10 08 00 00 00 00 00	*(u64 *)(r0 + 8) = r1
     353:	05 00 0b 00 00 00 00 00	goto +11 <LBB3_29>

0000000000000b10 <LBB3_28>:
     354:	7b 7a f0 ff 00 00 00 00	*(u64 *)(r10 - 16) = r7
     355:	b7 01 00 00 01 00 00 00	r1 = 1
     356:	7b 1a e8 ff 00 00 00 00	*(u64 *)(r10 - 24) = r1
     357:	bf a2 00 00 00 00 00 00	r2 = r10
     358:	07 02 00 00 c8 ff ff ff	r2 += -56
     359:	bf a3 00 00 00 00 00 00	r3 = r10
     360:	07 03 00 00 e8 ff ff ff	r3 += -24
     361:	18 01 00 00 00 00 00 00 00 00 00 00 00 00 00 00	r1 = 0 ll
     363:	b7 04 00 00 00 00 00 00	r4 = 0
     364:	85 00 00 00 02 00 00 00	call 2

0000000000000b68 <LBB3_29>:
     365:	bf 61 00 00 00 00 00 00	r1 = r6
     366:	18 02 00 00 00 00 00 00 00 00 00 00 00 00 00 00	r2 = 0 ll
     368:	b7 03 00 00 01 00 00 00	r3 = 1
     369:	85 00 00 00 0c 00 00 00	call 12
     370:	b7 09 00 00 02 00 00 00	r9 = 2

0000000000000b98 <LBB3_30>:
     371:	bf 90 00 00 00 00 00 00	r0 = r9
     372:	95 00 00 00 00 00 00 00	exit

Disassembly of section 2/7:

0000000000000000 <tail_handle_ipv4>:
       0:	bf 16 00 00 00 00 00 00	r6 = r1
       1:	b7 01 00 00 00 00 00 00	r1 = 0
       2:	63 1a d0 ff 00 00 00 00	*(u32 *)(r10 - 48) = r1
       3:	7b 1a c8 ff 00 00 00 00	*(u64 *)(r10 - 56) = r1
       4:	7b 1a c0 ff 00 00 00 00	*(u64 *)(r10 - 64) = r1
       5:	7b 1a b8 ff 00 00 00 00	*(u64 *)(r10 - 72) = r1
       6:	18 00 00 00 7a ff ff ff 00 00 00 00 00 00 00 00	r0 = 4294967162 ll
       8:	61 61 50 00 00 00 00 00	r1 = *(u32 *)(r6 + 80)
       9:	61 69 4c 00 00 00 00 00	r9 = *(u32 *)(r6 + 76)
      10:	bf 92 00 00 00 00 00 00	r2 = r9
      11:	07 02 00 00 22 00 00 00	r2 += 34
      12:	2d 12 e7 00 00 00 00 00	if r2 > r1 goto +231 <LBB4_16>
      13:	bf a2 00 00 00 00 00 00	r2 = r10
      14:	07 02 00 00 b8 ff ff ff	r2 += -72
      15:	b7 07 00 00 00 00 00 00	r7 = 0
      16:	bf 61 00 00 00 00 00 00	r1 = r6
      17:	b7 03 00 00 1c 00 00 00	r3 = 28
      18:	b7 04 00 00 00 00 00 00	r4 = 0
      19:	85 00 00 00 14 00 00 00	call 20
      20:	bf 01 00 00 00 00 00 00	r1 = r0
      21:	18 00 00 00 6d ff ff ff 00 00 00 00 00 00 00 00	r0 = 4294967149 ll
      23:	67 01 00 00 20 00 00 00	r1 <<= 32
      24:	c7 01 00 00 20 00 00 00	r1 s>>= 32
      25:	c5 01 da 00 00 00 00 00	if r1 s< 0 goto +218 <LBB4_16>
      26:	63 7a e8 ff 00 00 00 00	*(u32 *)(r10 - 24) = r7
      27:	63 7a e4 ff 00 00 00 00	*(u32 *)(r10 - 28) = r7
      28:	63 7a e0 ff 00 00 00 00	*(u32 *)(r10 - 32) = r7
      29:	63 7a dc ff 00 00 00 00	*(u32 *)(r10 - 36) = r7
      30:	61 91 1e 00 00 00 00 00	r1 = *(u32 *)(r9 + 30)
      31:	b7 02 00 00 01 00 00 00	r2 = 1
      32:	73 2a e8 ff 00 00 00 00	*(u8 *)(r10 - 24) = r2
      33:	63 1a d8 ff 00 00 00 00	*(u32 *)(r10 - 40) = r1
      34:	bf a2 00 00 00 00 00 00	r2 = r10
      35:	07 02 00 00 d8 ff ff ff	r2 += -40
      36:	18 01 00 00 00 00 00 00 00 00 00 00 00 00 00 00	r1 = 0 ll
      38:	85 00 00 00 01 00 00 00	call 1
      39:	bf 07 00 00 00 00 00 00	r7 = r0
      40:	15 07 23 00 00 00 00 00	if r7 == 0 goto +35 <LBB4_6>
      41:	71 71 08 00 00 00 00 00	r1 = *(u8 *)(r7 + 8)
      42:	57 01 00 00 01 00 00 00	r1 &= 1
      43:	55 01 20 00 00 00 00 00	if r1 != 0 goto +32 <LBB4_6>
      44:	69 71 06 00 00 00 00 00	r1 = *(u16 *)(r7 + 6)
      45:	7b 1a b0 ff 00 00 00 00	*(u64 *)(r10 - 80) = r1
      46:	61 a8 b8 ff 00 00 00 00	r8 = *(u32 *)(r10 - 72)
      47:	bf 61 00 00 00 00 00 00	r1 = r6
      48:	85 00 00 00 22 00 00 00	call 34
      49:	63 0a dc ff 00 00 00 00	*(u32 *)(r10 - 36) = r0
      50:	b7 01 00 00 02 02 00 00	r1 = 514
      51:	63 1a d8 ff 00 00 00 00	*(u32 *)(r10 - 40) = r1
      52:	79 a1 b0 ff 00 00 00 00	r1 = *(u64 *)(r10 - 80)
      53:	63 1a e0 ff 00 00 00 00	*(u32 *)(r10 - 32) = r1
      54:	b7 01 00 00 00 00 00 00	r1 = 0
      55:	63 1a e8 ff 00 00 00 00	*(u32 *)(r10 - 24) = r1
      56:	7b 8a b0 ff 00 00 00 00	*(u64 *)(r10 - 80) = r8
      57:	63 8a e4 ff 00 00 00 00	*(u32 *)(r10 - 28) = r8
      58:	bf a4 00 00 00 00 00 00	r4 = r10
      59:	07 04 00 00 d8 ff ff ff	r4 += -40
      60:	bf 61 00 00 00 00 00 00	r1 = r6
      61:	18 02 00 00 00 00 00 00 00 00 00 00 00 00 00 00	r2 = 0 ll
      63:	18 03 00 00 ff ff ff ff 00 00 00 00 00 00 00 00	r3 = 4294967295 ll
      65:	b7 05 00 00 14 00 00 00	r5 = 20
      66:	85 00 00 00 19 00 00 00	call 25
      67:	79 71 10 00 00 00 00 00	r1 = *(u64 *)(r7 + 16)
      68:	7b 1a f8 ff 00 00 00 00	*(u64 *)(r10 - 8) = r1
      69:	79 71 18 00 00 00 00 00	r1 = *(u64 *)(r7 + 24)
      70:	7b 1a f0 ff 00 00 00 00	*(u64 *)(r10 - 16) = r1
      71:	71 93 16 00 00 00 00 00	r3 = *(u8 *)(r9 + 22)
      72:	25 03 64 00 01 00 00 00	if r3 > 1 goto +100 <LBB4_13>

0000000000000248 <LBB4_5>:
      73:	18 00 00 00 7a ff ff ff 00 00 00 00 00 00 00 00	r0 = 4294967162 ll
      75:	05 00 a8 00 00 00 00 00	goto +168 <LBB4_16>

0000000000000260 <LBB4_6>:
      76:	18 01 00 00 ce 72 a7 03 00 00 00 00 88 56 00 00	r1 = 95142176846542 ll
      78:	7b 1a f8 ff 00 00 00 00	*(u64 *)(r10 - 8) = r1
      79:	18 01 00 00 de ad be ef 00 00 00 00 c0 de 00 00	r1 = 244920237338078 ll
      81:	7b 1a f0 ff 00 00 00 00	*(u64 *)(r10 - 16) = r1
      82:	61 67 38 00 00 00 00 00	r7 = *(u32 *)(r6 + 56)
      83:	bf 61 00 00 00 00 00 00	r1 = r6
      84:	85 00 00 00 22 00 00 00	call 34
      85:	63 0a dc ff 00 00 00 00	*(u32 *)(r10 - 36) = r0
      86:	b7 01 00 00 02 13 00 00	r1 = 4866
      87:	63 1a d8 ff 00 00 00 00	*(u32 *)(r10 - 40) = r1
      88:	63 7a e0 ff 00 00 00 00	*(u32 *)(r10 - 32) = r7
      89:	b7 01 00 00 00 00 00 00	r1 = 0
      90:	63 1a e4 ff 00 00 00 00	*(u32 *)(r10 - 28) = r1
      91:	63 1a e8 ff 00 00 00 00	*(u32 *)(r10 - 24) = r1
      92:	bf a4 00 00 00 00 00 00	r4 = r10
      93:	07 04 00 00 d8 ff ff ff	r4 += -40
      94:	bf 61 00 00 00 00 00 00	r1 = r6
      95:	18 02 00 00 00 00 00 00 00 00 00 00 00 00 00 00	r2 = 0 ll
      97:	18 03 00 00 ff ff ff ff 00 00 00 00 00 00 00 00	r3 = 4294967295 ll
      99:	b7 05 00 00 14 00 00 00	r5 = 20
     100:	85 00 00 00 19 00 00 00	call 25
     101:	71 93 16 00 00 00 00 00	r3 = *(u8 *)(r9 + 22)
     102:	25 03 01 00 01 00 00 00	if r3 > 1 goto +1 <LBB4_8>
     103:	05 00 e1 ff 00 00 00 00	goto -31 <LBB4_5>

0000000000000340 <LBB4_8>:
     104:	bf 31 00 00 00 00 00 00	r1 = r3
     105:	07 01 00 00 ff 00 00 00	r1 += 255
     106:	73 1a d8 ff 00 00 00 00	*(u8 *)(r10 - 40) = r1
     107:	bf 34 00 00 00 00 00 00	r4 = r3
     108:	07 04 00 00 ff ff ff ff	r4 += -1
     109:	57 04 00 00 ff 00 00 00	r4 &= 255
     110:	bf 61 00 00 00 00 00 00	r1 = r6
     111:	b7 02 00 00 18 00 00 00	r2 = 24
     112:	b7 05 00 00 02 00 00 00	r5 = 2
     113:	85 00 00 00 0a 00 00 00	call 10
     114:	bf a3 00 00 00 00 00 00	r3 = r10
     115:	07 03 00 00 d8 ff ff ff	r3 += -40
     116:	bf 61 00 00 00 00 00 00	r1 = r6
     117:	b7 02 00 00 16 00 00 00	r2 = 22
     118:	b7 04 00 00 01 00 00 00	r4 = 1
     119:	b7 05 00 00 00 00 00 00	r5 = 0
     120:	85 00 00 00 09 00 00 00	call 9
     121:	bf a3 00 00 00 00 00 00	r3 = r10
     122:	07 03 00 00 f0 ff ff ff	r3 += -16
     123:	bf 61 00 00 00 00 00 00	r1 = r6
     124:	b7 02 00 00 06 00 00 00	r2 = 6
     125:	b7 04 00 00 06 00 00 00	r4 = 6
     126:	b7 05 00 00 00 00 00 00	r5 = 0
     127:	85 00 00 00 09 00 00 00	call 9
     128:	bf 01 00 00 00 00 00 00	r1 = r0
     129:	18 00 00 00 73 ff ff ff 00 00 00 00 00 00 00 00	r0 = 4294967155 ll
     131:	67 01 00 00 20 00 00 00	r1 <<= 32
     132:	c7 01 00 00 20 00 00 00	r1 s>>= 32
     133:	c5 01 6e 00 00 00 00 00	if r1 s< 0 goto +110 <LBB4_16>
     134:	bf a3 00 00 00 00 00 00	r3 = r10
     135:	07 03 00 00 f8 ff ff ff	r3 += -8
     136:	bf 61 00 00 00 00 00 00	r1 = r6
     137:	b7 02 00 00 00 00 00 00	r2 = 0
     138:	b7 04 00 00 06 00 00 00	r4 = 6
     139:	b7 05 00 00 00 00 00 00	r5 = 0
     140:	85 00 00 00 09 00 00 00	call 9
     141:	67 00 00 00 20 00 00 00	r0 <<= 32
     142:	c7 00 00 00 3f 00 00 00	r0 s>>= 63
     143:	57 00 00 00 73 ff ff ff	r0 &= -141
     144:	55 00 63 00 00 00 00 00	if r0 != 0 goto +99 <LBB4_16>
     145:	61 67 00 00 00 00 00 00	r7 = *(u32 *)(r6 + 0)
     146:	bf 61 00 00 00 00 00 00	r1 = r6
     147:	85 00 00 00 22 00 00 00	call 34
     148:	63 0a dc ff 00 00 00 00	*(u32 *)(r10 - 36) = r0
     149:	b7 01 00 00 03 04 00 00	r1 = 1027
     150:	63 1a d8 ff 00 00 00 00	*(u32 *)(r10 - 40) = r1
     151:	63 7a e0 ff 00 00 00 00	*(u32 *)(r10 - 32) = r7
     152:	a5 07 01 00 80 00 00 00	if r7 < 128 goto +1 <LBB4_12>
     153:	b7 07 00 00 80 00 00 00	r7 = 128

00000000000004d0 <LBB4_12>:
     154:	63 7a e4 ff 00 00 00 00	*(u32 *)(r10 - 28) = r7
     155:	67 07 00 00 20 00 00 00	r7 <<= 32
     156:	18 01 00 00 ff ff ff ff 00 00 00 00 00 00 00 00	r1 = 4294967295 ll
     158:	4f 17 00 00 00 00 00 00	r7 |= r1
     159:	b7 01 00 00 01 00 00 00	r1 = 1
     160:	7b 1a e8 ff 00 00 00 00	*(u64 *)(r10 - 24) = r1
     161:	bf a4 00 00 00 00 00 00	r4 = r10
     162:	07 04 00 00 d8 ff ff ff	r4 += -40
     163:	bf 61 00 00 00 00 00 00	r1 = r6
     164:	18 02 00 00 00 00 00 00 00 00 00 00 00 00 00 00	r2 = 0 ll
     166:	bf 73 00 00 00 00 00 00	r3 = r7
     167:	b7 05 00 00 18 00 00 00	r5 = 24
     168:	85 00 00 00 19 00 00 00	call 25
     169:	b7 01 00 00 01 00 00 00	r1 = 1
     170:	b7 02 00 00 00 00 00 00	r2 = 0
     171:	85 00 00 00 17 00 00 00	call 23
     172:	05 00 47 00 00 00 00 00	goto +71 <LBB4_16>

0000000000000568 <LBB4_13>:
     173:	bf 31 00 00 00 00 00 00	r1 = r3
     174:	07 01 00 00 ff 00 00 00	r1 += 255
     175:	73 1a d8 ff 00 00 00 00	*(u8 *)(r10 - 40) = r1
     176:	bf 34 00 00 00 00 00 00	r4 = r3
     177:	07 04 00 00 ff ff ff ff	r4 += -1
     178:	57 04 00 00 ff 00 00 00	r4 &= 255
     179:	bf 61 00 00 00 00 00 00	r1 = r6
     180:	b7 02 00 00 18 00 00 00	r2 = 24
     181:	b7 05 00 00 02 00 00 00	r5 = 2
     182:	85 00 00 00 0a 00 00 00	call 10
     183:	bf a3 00 00 00 00 00 00	r3 = r10
     184:	07 03 00 00 d8 ff ff ff	r3 += -40
     185:	bf 61 00 00 00 00 00 00	r1 = r6
     186:	b7 02 00 00 16 00 00 00	r2 = 22
     187:	b7 04 00 00 01 00 00 00	r4 = 1
     188:	b7 05 00 00 00 00 00 00	r5 = 0
     189:	85 00 00 00 09 00 00 00	call 9
     190:	bf a3 00 00 00 00 00 00	r3 = r10
     191:	07 03 00 00 f0 ff ff ff	r3 += -16
     192:	bf 61 00 00 00 00 00 00	r1 = r6
     193:	b7 02 00 00 06 00 00 00	r2 = 6
     194:	b7 04 00 00 06 00 00 00	r4 = 6
     195:	b7 05 00 00 00 00 00 00	r5 = 0
     196:	85 00 00 00 09 00 00 00	call 9
     197:	bf 01 00 00 00 00 00 00	r1 = r0
     198:	18 00 00 00 73 ff ff ff 00 00 00 00 00 00 00 00	r0 = 4294967155 ll
     200:	67 01 00 00 20 00 00 00	r1 <<= 32
     201:	c7 01 00 00 20 00 00 00	r1 s>>= 32
     202:	c5 01 29 00 00 00 00 00	if r1 s< 0 goto +41 <LBB4_16>
     203:	bf a3 00 00 00 00 00 00	r3 = r10
     204:	07 03 00 00 f8 ff ff ff	r3 += -8
     205:	b7 09 00 00 00 00 00 00	r9 = 0
     206:	bf 61 00 00 00 00 00 00	r1 = r6
     207:	b7 02 00 00 00 00 00 00	r2 = 0
     208:	b7 04 00 00 06 00 00 00	r4 = 6
     209:	b7 05 00 00 00 00 00 00	r5 = 0
     210:	85 00 00 00 09 00 00 00	call 9
     211:	67 00 00 00 20 00 00 00	r0 <<= 32
     212:	c7 00 00 00 3f 00 00 00	r0 s>>= 63
     213:	57 00 00 00 73 ff ff ff	r0 &= -141
     214:	55 00 1d 00 00 00 00 00	if r0 != 0 goto +29 <LBB4_16>
     215:	61 78 00 00 00 00 00 00	r8 = *(u32 *)(r7 + 0)
     216:	bf 61 00 00 00 00 00 00	r1 = r6
     217:	85 00 00 00 22 00 00 00	call 34
     218:	63 0a dc ff 00 00 00 00	*(u32 *)(r10 - 36) = r0
     219:	b7 01 00 00 02 04 00 00	r1 = 1026
     220:	63 1a d8 ff 00 00 00 00	*(u32 *)(r10 - 40) = r1
     221:	63 8a e0 ff 00 00 00 00	*(u32 *)(r10 - 32) = r8
     222:	63 9a e4 ff 00 00 00 00	*(u32 *)(r10 - 28) = r9
     223:	63 9a e8 ff 00 00 00 00	*(u32 *)(r10 - 24) = r9
     224:	bf a4 00 00 00 00 00 00	r4 = r10
     225:	07 04 00 00 d8 ff ff ff	r4 += -40
     226:	bf 61 00 00 00 00 00 00	r1 = r6
     227:	18 02 00 00 00 00 00 00 00 00 00 00 00 00 00 00	r2 = 0 ll
     229:	18 03 00 00 ff ff ff ff 00 00 00 00 00 00 00 00	r3 = 4294967295 ll
     231:	b7 05 00 00 14 00 00 00	r5 = 20
     232:	85 00 00 00 19 00 00 00	call 25
     233:	79 a1 b0 ff 00 00 00 00	r1 = *(u64 *)(r10 - 80)
     234:	63 16 30 00 00 00 00 00	*(u32 *)(r6 + 48) = r1
     235:	61 71 00 00 00 00 00 00	r1 = *(u32 *)(r7 + 0)
     236:	63 16 34 00 00 00 00 00	*(u32 *)(r6 + 52) = r1
     237:	69 73 06 00 00 00 00 00	r3 = *(u16 *)(r7 + 6)
     238:	bf 61 00 00 00 00 00 00	r1 = r6
     239:	18 02 00 00 00 00 00 00 00 00 00 00 00 00 00 00	r2 = 0 ll
     241:	85 00 00 00 0c 00 00 00	call 12
     242:	18 00 00 00 74 ff ff ff 00 00 00 00 00 00 00 00	r0 = 4294967156 ll

00000000000007a0 <LBB4_16>:
     244:	bf 01 00 00 00 00 00 00	r1 = r0
     245:	67 01 00 00 20 00 00 00	r1 <<= 32
     246:	77 01 00 00 20 00 00 00	r1 >>= 32
     247:	b7 02 00 00 01 00 00 00	r2 = 1
     248:	15 01 01 00 02 00 00 00	if r1 == 2 goto +1 <LBB4_18>
     249:	b7 02 00 00 00 00 00 00	r2 = 0

00000000000007d0 <LBB4_18>:
     250:	77 01 00 00 1f 00 00 00	r1 >>= 31
     251:	4f 21 00 00 00 00 00 00	r1 |= r2
     252:	15 01 2c 00 00 00 00 00	if r1 == 0 goto +44 <LBB4_23>
     253:	b7 01 00 00 02 00 00 00	r1 = 2
     254:	63 16 30 00 00 00 00 00	*(u32 *)(r6 + 48) = r1
     255:	b7 01 00 00 00 00 00 00	r1 = 0
     256:	63 16 34 00 00 00 00 00	*(u32 *)(r6 + 52) = r1
     257:	63 06 38 00 00 00 00 00	*(u32 *)(r6 + 56) = r0
     258:	63 16 3c 00 00 00 00 00	*(u32 *)(r6 + 60) = r1
     259:	63 16 40 00 00 00 00 00	*(u32 *)(r6 + 64) = r1
     260:	61 67 00 00 00 00 00 00	r7 = *(u32 *)(r6 + 0)
     261:	7b 1a c0 ff 00 00 00 00	*(u64 *)(r10 - 64) = r1
     262:	7b 1a b8 ff 00 00 00 00	*(u64 *)(r10 - 72) = r1
     263:	b7 01 00 00 00 01 00 00	r1 = 256
     264:	7b 1a d8 ff 00 00 00 00	*(u64 *)(r10 - 40) = r1
     265:	87 00 00 00 00 00 00 00	r0 = -r0
     266:	73 0a d8 ff 00 00 00 00	*(u8 *)(r10 - 40) = r0
     267:	bf a2 00 00 00 00 00 00	r2 = r10
     268:	07 02 00 00 d8 ff ff ff	r2 += -40
     269:	18 01 00 00 00 00 00 00 00 00 00 00 00 00 00 00	r1 = 0 ll
     271:	85 00 00 00 01 00 00 00	call 1
     272:	15 00 07 00 00 00 00 00	if r0 == 0 goto +7 <LBB4_21>
     273:	79 01 00 00 00 00 00 00	r1 = *(u64 *)(r0 + 0)
     274:	07 01 00 00 01 00 00 00	r1 += 1
     275:	7b 10 00 00 00 00 00 00	*(u64 *)(r0 + 0) = r1
     276:	79 01 08 00 00 00 00 00	r1 = *(u64 *)(r0 + 8)
     277:	0f 71 00 00 00 00 00 00	r1 += r7
     278:	7b 10 08 00 00 00 00 00	*(u64 *)(r0 + 8) = r1
     279:	05 00 0b 00 00 00 00 00	goto +11 <LBB4_22>

00000000000008c0 <LBB4_21>:
     280:	7b 7a c0 ff 00 00 00 00	*(u64 *)(r10 - 64) = r7
     281:	b7 01 00 00 01 00 00 00	r1 = 1
     282:	7b 1a b8 ff 00 00 00 00	*(u64 *)(r10 - 72) = r1
     283:	bf a2 00 00 00 00 00 00	r2 = r10
     284:	07 02 00 00 d8 ff ff ff	r2 += -40
     285:	bf a3 00 00 00 00 00 00	r3 = r10
     286:	07 03 00 00 b8 ff ff ff	r3 += -72
     287:	18 01 00 00 00 00 00 00 00 00 00 00 00 00 00 00	r1 = 0 ll
     289:	b7 04 00 00 00 00 00 00	r4 = 0
     290:	85 00 00 00 02 00 00 00	call 2

0000000000000918 <LBB4_22>:
     291:	bf 61 00 00 00 00 00 00	r1 = r6
     292:	18 02 00 00 00 00 00 00 00 00 00 00 00 00 00 00	r2 = 0 ll
     294:	b7 03 00 00 01 00 00 00	r3 = 1
     295:	85 00 00 00 0c 00 00 00	call 12
     296:	b7 00 00 00 02 00 00 00	r0 = 2

0000000000000948 <LBB4_23>:
     297:	95 00 00 00 00 00 00 00	exit

Disassembly of section from-overlay:

0000000000000000 <from_overlay>:
       0:	bf 16 00 00 00 00 00 00	r6 = r1
       1:	b7 08 00 00 00 00 00 00	r8 = 0
       2:	63 86 3c 00 00 00 00 00	*(u32 *)(r6 + 60) = r8
       3:	63 86 38 00 00 00 00 00	*(u32 *)(r6 + 56) = r8
       4:	63 86 34 00 00 00 00 00	*(u32 *)(r6 + 52) = r8
       5:	63 86 30 00 00 00 00 00	*(u32 *)(r6 + 48) = r8
       6:	63 86 40 00 00 00 00 00	*(u32 *)(r6 + 64) = r8
       7:	61 61 10 00 00 00 00 00	r1 = *(u32 *)(r6 + 16)
       8:	15 01 73 00 08 00 00 00	if r1 == 8 goto +115 <LBB5_57>
       9:	55 01 79 00 86 dd 00 00	if r1 != 56710 goto +121 <LBB5_59>
      10:	b7 01 00 00 00 00 00 00	r1 = 0
      11:	63 1a d0 ff 00 00 00 00	*(u32 *)(r10 - 48) = r1
      12:	7b 1a c8 ff 00 00 00 00	*(u64 *)(r10 - 56) = r1
      13:	7b 1a c0 ff 00 00 00 00	*(u64 *)(r10 - 64) = r1
      14:	7b 1a b8 ff 00 00 00 00	*(u64 *)(r10 - 72) = r1
      15:	18 08 00 00 7a ff ff ff 00 00 00 00 00 00 00 00	r8 = 4294967162 ll
      17:	61 61 50 00 00 00 00 00	r1 = *(u32 *)(r6 + 80)
      18:	61 69 4c 00 00 00 00 00	r9 = *(u32 *)(r6 + 76)
      19:	bf 92 00 00 00 00 00 00	r2 = r9
      20:	07 02 00 00 36 00 00 00	r2 += 54
      21:	2d 12 6d 00 00 00 00 00	if r2 > r1 goto +109 <LBB5_59>
      22:	bf a2 00 00 00 00 00 00	r2 = r10
      23:	07 02 00 00 b8 ff ff ff	r2 += -72
      24:	bf 61 00 00 00 00 00 00	r1 = r6
      25:	b7 03 00 00 1c 00 00 00	r3 = 28
      26:	b7 04 00 00 00 00 00 00	r4 = 0
      27:	85 00 00 00 14 00 00 00	call 20
      28:	18 08 00 00 6d ff ff ff 00 00 00 00 00 00 00 00	r8 = 4294967149 ll
      30:	67 00 00 00 20 00 00 00	r0 <<= 32
      31:	c7 00 00 00 20 00 00 00	r0 s>>= 32
      32:	c5 00 62 00 00 00 00 00	if r0 s< 0 goto +98 <LBB5_59>
      33:	61 a8 d0 ff 00 00 00 00	r8 = *(u32 *)(r10 - 48)
      34:	61 a7 b8 ff 00 00 00 00	r7 = *(u32 *)(r10 - 72)
      35:	bf 61 00 00 00 00 00 00	r1 = r6
      36:	85 00 00 00 22 00 00 00	call 34
      37:	63 0a ec ff 00 00 00 00	*(u32 *)(r10 - 20) = r0
      38:	b7 01 00 00 02 10 00 00	r1 = 4098
      39:	63 1a e8 ff 00 00 00 00	*(u32 *)(r10 - 24) = r1
      40:	63 7a f0 ff 00 00 00 00	*(u32 *)(r10 - 16) = r7
      41:	63 8a f4 ff 00 00 00 00	*(u32 *)(r10 - 12) = r8
      42:	b7 01 00 00 00 00 00 00	r1 = 0
      43:	63 1a f8 ff 00 00 00 00	*(u32 *)(r10 - 8) = r1
      44:	bf a4 00 00 00 00 00 00	r4 = r10
      45:	07 04 00 00 e8 ff ff ff	r4 += -24
      46:	bf 61 00 00 00 00 00 00	r1 = r6
      47:	18 02 00 00 00 00 00 00 00 00 00 00 00 00 00 00	r2 = 0 ll
      49:	18 03 00 00 ff ff ff ff 00 00 00 00 00 00 00 00	r3 = 4294967295 ll
      51:	b7 05 00 00 14 00 00 00	r5 = 20
      52:	85 00 00 00 19 00 00 00	call 25
      53:	b7 01 00 00 02 00 00 00	r1 = 2
      54:	63 1a f8 ff 00 00 00 00	*(u32 *)(r10 - 8) = r1
      55:	71 92 2f 00 00 00 00 00	r2 = *(u8 *)(r9 + 47)
      56:	67 02 00 00 08 00 00 00	r2 <<= 8
      57:	71 91 2e 00 00 00 00 00	r1 = *(u8 *)(r9 + 46)
      58:	4f 12 00 00 00 00 00 00	r2 |= r1
      59:	71 91 31 00 00 00 00 00	r1 = *(u8 *)(r9 + 49)
      60:	67 01 00 00 08 00 00 00	r1 <<= 8
      61:	71 93 30 00 00 00 00 00	r3 = *(u8 *)(r9 + 48)
      62:	4f 31 00 00 00 00 00 00	r1 |= r3
      63:	67 01 00 00 10 00 00 00	r1 <<= 16
      64:	4f 21 00 00 00 00 00 00	r1 |= r2
      65:	71 93 33 00 00 00 00 00	r3 = *(u8 *)(r9 + 51)
      66:	67 03 00 00 08 00 00 00	r3 <<= 8
      67:	71 92 32 00 00 00 00 00	r2 = *(u8 *)(r9 + 50)
      68:	4f 23 00 00 00 00 00 00	r3 |= r2
      69:	71 92 35 00 00 00 00 00	r2 = *(u8 *)(r9 + 53)
      70:	67 02 00 00 08 00 00 00	r2 <<= 8
      71:	71 94 34 00 00 00 00 00	r4 = *(u8 *)(r9 + 52)
      72:	4f 42 00 00 00 00 00 00	r2 |= r4
      73:	67 02 00 00 10 00 00 00	r2 <<= 16
      74:	4f 32 00 00 00 00 00 00	r2 |= r3
      75:	67 02 00 00 20 00 00 00	r2 <<= 32
      76:	4f 12 00 00 00 00 00 00	r2 |= r1
      77:	71 93 27 00 00 00 00 00	r3 = *(u8 *)(r9 + 39)
      78:	67 03 00 00 08 00 00 00	r3 <<= 8
      79:	71 91 26 00 00 00 00 00	r1 = *(u8 *)(r9 + 38)
      80:	4f 13 00 00 00 00 00 00	r3 |= r1
      81:	71 91 29 00 00 00 00 00	r1 = *(u8 *)(r9 + 41)
      82:	67 01 00 00 08 00 00 00	r1 <<= 8
      83:	71 94 28 00 00 00 00 00	r4 = *(u8 *)(r9 + 40)
      84:	4f 41 00 00 00 00 00 00	r1 |= r4
      85:	7b 2a f0 ff 00 00 00 00	*(u64 *)(r10 - 16) = r2
      86:	67 01 00 00 10 00 00 00	r1 <<= 16
      87:	4f 31 00 00 00 00 00 00	r1 |= r3
      88:	71 92 2b 00 00 00 00 00	r2 = *(u8 *)(r9 + 43)
      89:	67 02 00 00 08 00 00 00	r2 <<= 8
      90:	71 93 2a 00 00 00 00 00	r3 = *(u8 *)(r9 + 42)
      91:	4f 32 00 00 00 00 00 00	r2 |= r3
      92:	71 93 2c 00 00 00 00 00	r3 = *(u8 *)(r9 + 44)
      93:	71 94 2d 00 00 00 00 00	r4 = *(u8 *)(r9 + 45)
      94:	67 04 00 00 08 00 00 00	r4 <<= 8
      95:	4f 34 00 00 00 00 00 00	r4 |= r3
      96:	67 04 00 00 10 00 00 00	r4 <<= 16
      97:	4f 24 00 00 00 00 00 00	r4 |= r2
      98:	67 04 00 00 20 00 00 00	r4 <<= 32
      99:	4f 14 00 00 00 00 00 00	r4 |= r1
     100:	7b 4a e8 ff 00 00 00 00	*(u64 *)(r10 - 24) = r4
     101:	bf a2 00 00 00 00 00 00	r2 = r10
     102:	07 02 00 00 e8 ff ff ff	r2 += -24
     103:	18 01 00 00 00 00 00 00 00 00 00 00 00 00 00 00	r1 = 0 ll
     105:	85 00 00 00 01 00 00 00	call 1
     106:	bf 07 00 00 00 00 00 00	r7 = r0
     107:	15 07 3b 00 00 00 00 00	if r7 == 0 goto +59 <LBB5_44>
     108:	71 71 08 00 00 00 00 00	r1 = *(u8 *)(r7 + 8)
     109:	57 01 00 00 01 00 00 00	r1 &= 1
     110:	55 01 38 00 00 00 00 00	if r1 != 0 goto +56 <LBB5_44>
     111:	71 91 14 00 00 00 00 00	r1 = *(u8 *)(r9 + 20)
     112:	25 01 f4 00 3c 00 00 00	if r1 > 60 goto +244 <LBB5_33>
     113:	b7 02 00 00 01 00 00 00	r2 = 1
     114:	6f 12 00 00 00 00 00 00	r2 <<= r1
     115:	18 03 00 00 01 00 00 00 00 00 00 00 00 08 08 10	r3 = 1155182100513554433 ll
     117:	5f 32 00 00 00 00 00 00	r2 &= r3
     118:	55 02 9c 00 00 00 00 00	if r2 != 0 goto +156 <LBB5_10>
     119:	15 01 2c 01 2c 00 00 00	if r1 == 44 goto +300 <LBB5_17>
     120:	18 08 00 00 64 ff ff ff 00 00 00 00 00 00 00 00	r8 = 4294967140 ll
     122:	15 01 08 00 3b 00 00 00	if r1 == 59 goto +8 <LBB5_59>
     123:	05 00 e9 00 00 00 00 00	goto +233 <LBB5_33>

00000000000003e0 <LBB5_57>:
     124:	bf 61 00 00 00 00 00 00	r1 = r6
     125:	18 02 00 00 00 00 00 00 00 00 00 00 00 00 00 00	r2 = 0 ll
     127:	b7 03 00 00 07 00 00 00	r3 = 7

0000000000000400 <LBB5_58>:
     128:	85 00 00 00 0c 00 00 00	call 12
     129:	18 08 00 00 74 ff ff ff 00 00 00 00 00 00 00 00	r8 = 4294967156 ll

0000000000000418 <LBB5_59>:
     131:	bf 81 00 00 00 00 00 00	r1 = r8
     132:	67 01 00 00 20 00 00 00	r1 <<= 32
     133:	77 01 00 00 20 00 00 00	r1 >>= 32
     134:	b7 02 00 00 01 00 00 00	r2 = 1
     135:	15 01 01 00 02 00 00 00	if r1 == 2 goto +1 <LBB5_61>
     136:	b7 02 00 00 00 00 00 00	r2 = 0

0000000000000448 <LBB5_61>:
     137:	77 01 00 00 1f 00 00 00	r1 >>= 31
     138:	4f 21 00 00 00 00 00 00	r1 |= r2
     139:	15 01 74 01 00 00 00 00	if r1 == 0 goto +372 <LBB5_66>
     140:	b7 01 00 00 02 00 00 00	r1 = 2
     141:	63 16 30 00 00 00 00 00	*(u32 *)(r6 + 48) = r1
     142:	b7 01 00 00 00 00 00 00	r1 = 0
     143:	63 16 34 00 00 00 00 00	*(u32 *)(r6 + 52) = r1
     144:	63 86 38 00 00 00 00 00	*(u32 *)(r6 + 56) = r8
     145:	63 16 3c 00 00 00 00 00	*(u32 *)(r6 + 60) = r1
     146:	63 16 40 00 00 00 00 00	*(u32 *)(r6 + 64) = r1
     147:	61 67 00 00 00 00 00 00	r7 = *(u32 *)(r6 + 0)
     148:	7b 1a c0 ff 00 00 00 00	*(u64 *)(r10 - 64) = r1
     149:	7b 1a b8 ff 00 00 00 00	*(u64 *)(r10 - 72) = r1
     150:	b7 01 00 00 00 01 00 00	r1 = 256
     151:	7b 1a e8 ff 00 00 00 00	*(u64 *)(r10 - 24) = r1
     152:	87 08 00 00 00 00 00 00	r8 = -r8
     153:	73 8a e8 ff 00 00 00 00	*(u8 *)(r10 - 24) = r8
     154:	bf a2 00 00 00 00 00 00	r2 = r10
     155:	07 02 00 00 e8 ff ff ff	r2 += -24
     156:	18 01 00 00 00 00 00 00 00 00 00 00 00 00 00 00	r1 = 0 ll
     158:	85 00 00 00 01 00 00 00	call 1
     159:	15 00 4f 01 00 00 00 00	if r0 == 0 goto +335 <LBB5_64>
     160:	79 01 00 00 00 00 00 00	r1 = *(u64 *)(r0 + 0)
     161:	07 01 00 00 01 00 00 00	r1 += 1
     162:	7b 10 00 00 00 00 00 00	*(u64 *)(r0 + 0) = r1
     163:	79 01 08 00 00 00 00 00	r1 = *(u64 *)(r0 + 8)
     164:	0f 71 00 00 00 00 00 00	r1 += r7
     165:	7b 10 08 00 00 00 00 00	*(u64 *)(r0 + 8) = r1
     166:	05 00 53 01 00 00 00 00	goto +339 <LBB5_65>

0000000000000538 <LBB5_44>:
     167:	18 01 00 00 ce 72 a7 03 00 00 00 00 88 56 00 00	r1 = 95142176846542 ll
     169:	7b 1a e0 ff 00 00 00 00	*(u64 *)(r10 - 32) = r1
     170:	18 01 00 00 de ad be ef 00 00 00 00 c0 de 00 00	r1 = 244920237338078 ll
     172:	7b 1a d8 ff 00 00 00 00	*(u64 *)(r10 - 40) = r1
     173:	61 67 38 00 00 00 00 00	r7 = *(u32 *)(r6 + 56)
     174:	bf 61 00 00 00 00 00 00	r1 = r6
     175:	85 00 00 00 22 00 00 00	call 34
     176:	63 0a ec ff 00 00 00 00	*(u32 *)(r10 - 20) = r0
     177:	b7 01 00 00 02 13 00 00	r1 = 4866
     178:	63 1a e8 ff 00 00 00 00	*(u32 *)(r10 - 24) = r1
     179:	63 7a f0 ff 00 00 00 00	*(u32 *)(r10 - 16) = r7
     180:	b7 01 00 00 00 00 00 00	r1 = 0
     181:	63 1a f4 ff 00 00 00 00	*(u32 *)(r10 - 12) = r1
     182:	63 1a f8 ff 00 00 00 00	*(u32 *)(r10 - 8) = r1
     183:	bf a4 00 00 00 00 00 00	r4 = r10
     184:	07 04 00 00 e8 ff ff ff	r4 += -24
     185:	bf 61 00 00 00 00 00 00	r1 = r6
     186:	18 02 00 00 00 00 00 00 00 00 00 00 00 00 00 00	r2 = 0 ll
     188:	18 03 00 00 ff ff ff ff 00 00 00 00 00 00 00 00	r3 = 4294967295 ll
     190:	b7 05 00 00 14 00 00 00	r5 = 20
     191:	85 00 00 00 19 00 00 00	call 25
     192:	b7 07 00 00 01 00 00 00	r7 = 1
     193:	30 00 00 00 15 00 00 00	r0 = *(u8 *)skb[21]
     194:	bf 01 00 00 00 00 00 00	r1 = r0
     195:	57 01 00 00 fe 00 00 00	r1 &= 254
     196:	b7 08 00 00 01 00 00 00	r8 = 1
     197:	15 01 0d 00 00 00 00 00	if r1 == 0 goto +13 <LBB5_46>
     198:	07 00 00 00 ff 00 00 00	r0 += 255
     199:	73 0a e8 ff 00 00 00 00	*(u8 *)(r10 - 24) = r0
     200:	bf a3 00 00 00 00 00 00	r3 = r10
     201:	07 03 00 00 e8 ff ff ff	r3 += -24
     202:	bf 61 00 00 00 00 00 00	r1 = r6
     203:	b7 02 00 00 15 00 00 00	r2 = 21
     204:	b7 04 00 00 01 00 00 00	r4 = 1
     205:	b7 05 00 00 01 00 00 00	r5 = 1
     206:	85 00 00 00 09 00 00 00	call 9
     207:	bf 08 00 00 00 00 00 00	r8 = r0
     208:	67 08 00 00 20 00 00 00	r8 <<= 32
     209:	c7 08 00 00 3f 00 00 00	r8 s>>= 63
     210:	57 08 00 00 73 ff ff ff	r8 &= -141

0000000000000698 <LBB5_46>:
     211:	15 08 01 00 02 00 00 00	if r8 == 2 goto +1 <LBB5_48>
     212:	b7 07 00 00 00 00 00 00	r7 = 0

00000000000006a8 <LBB5_48>:
     213:	18 01 00 00 00 00 00 80 00 00 00 00 00 00 00 00	r1 = 2147483648 ll
     215:	bf 82 00 00 00 00 00 00	r2 = r8
     216:	5f 12 00 00 00 00 00 00	r2 &= r1
     217:	77 02 00 00 1f 00 00 00	r2 >>= 31
     218:	4f 72 00 00 00 00 00 00	r2 |= r7
     219:	55 02 19 00 00 00 00 00	if r2 != 0 goto +25 <LBB5_53>
     220:	c5 08 01 00 01 00 00 00	if r8 s< 1 goto +1 <LBB5_51>
     221:	05 00 bd 00 00 00 00 00	goto +189 <LBB5_39>

00000000000006f0 <LBB5_51>:
     222:	bf a3 00 00 00 00 00 00	r3 = r10
     223:	07 03 00 00 d8 ff ff ff	r3 += -40
     224:	bf 61 00 00 00 00 00 00	r1 = r6
     225:	b7 02 00 00 06 00 00 00	r2 = 6
     226:	b7 04 00 00 06 00 00 00	r4 = 6
     227:	b7 05 00 00 00 00 00 00	r5 = 0
     228:	85 00 00 00 09 00 00 00	call 9
     229:	18 08 00 00 73 ff ff ff 00 00 00 00 00 00 00 00	r8 = 4294967155 ll
     231:	67 00 00 00 20 00 00 00	r0 <<= 32
     232:	c7 00 00 00 20 00 00 00	r0 s>>= 32
     233:	c5 00 99 ff 00 00 00 00	if r0 s< 0 goto -103 <LBB5_59>
     234:	bf a3 00 00 00 00 00 00	r3 = r10
     235:	07 03 00 00 e0 ff ff ff	r3 += -32
     236:	bf 61 00 00 00 00 00 00	r1 = r6
     237:	b7 02 00 00 00 00 00 00	r2 = 0
     238:	b7 04 00 00 06 00 00 00	r4 = 6
     239:	b7 05 00 00 00 00 00 00	r5 = 0
     240:	85 00 00 00 09 00 00 00	call 9
     241:	bf 08 00 00 00 00 00 00	r8 = r0
     242:	67 08 00 00 20 00 00 00	r8 <<= 32
     243:	c7 08 00 00 3f 00 00 00	r8 s>>= 63
     244:	57 08 00 00 73 ff ff ff	r8 &= -141

00000000000007a8 <LBB5_53>:
     245:	55 08 8d ff 00 00 00 00	if r8 != 0 goto -115 <LBB5_59>
     246:	61 67 00 00 00 00 00 00	r7 = *(u32 *)(r6 + 0)
     247:	bf 61 00 00 00 00 00 00	r1 = r6
     248:	85 00 00 00 22 00 00 00	call 34
     249:	63 0a ec ff 00 00 00 00	*(u32 *)(r10 - 20) = r0
     250:	b7 01 00 00 03 04 00 00	r1 = 1027
     251:	63 1a e8 ff 00 00 00 00	*(u32 *)(r10 - 24) = r1
     252:	63 7a f0 ff 00 00 00 00	*(u32 *)(r10 - 16) = r7
     253:	a5 07 01 00 80 00 00 00	if r7 < 128 goto +1 <LBB5_56>
     254:	b7 07 00 00 80 00 00 00	r7 = 128

00000000000007f8 <LBB5_56>:
     255:	63 7a f4 ff 00 00 00 00	*(u32 *)(r10 - 12) = r7
     256:	67 07 00 00 20 00 00 00	r7 <<= 32
     257:	18 01 00 00 ff ff ff ff 00 00 00 00 00 00 00 00	r1 = 4294967295 ll
     259:	4f 17 00 00 00 00 00 00	r7 |= r1
     260:	b7 01 00 00 01 00 00 00	r1 = 1
     261:	7b 1a f8 ff 00 00 00 00	*(u64 *)(r10 - 8) = r1
     262:	bf a4 00 00 00 00 00 00	r4 = r10
     263:	07 04 00 00 e8 ff ff ff	r4 += -24
     264:	bf 61 00 00 00 00 00 00	r1 = r6
     265:	18 02 00 00 00 00 00 00 00 00 00 00 00 00 00 00	r2 = 0 ll
     267:	bf 73 00 00 00 00 00 00	r3 = r7
     268:	b7 05 00 00 18 00 00 00	r5 = 24
     269:	85 00 00 00 19 00 00 00	call 25
     270:	b7 01 00 00 01 00 00 00	r1 = 1
     271:	b7 02 00 00 00 00 00 00	r2 = 0
     272:	85 00 00 00 17 00 00 00	call 23
     273:	bf 08 00 00 00 00 00 00	r8 = r0
     274:	05 00 70 ff 00 00 00 00	goto -144 <LBB5_59>

0000000000000898 <LBB5_10>:
     275:	bf a3 00 00 00 00 00 00	r3 = r10
     276:	07 03 00 00 e8 ff ff ff	r3 += -24
     277:	b7 09 00 00 02 00 00 00	r9 = 2
     278:	bf 61 00 00 00 00 00 00	r1 = r6
     279:	b7 02 00 00 36 00 00 00	r2 = 54
     280:	b7 04 00 00 02 00 00 00	r4 = 2
     281:	85 00 00 00 1a 00 00 00	call 26
     282:	18 08 00 00 7a ff ff ff 00 00 00 00 00 00 00 00	r8 = 4294967162 ll
     284:	67 00 00 00 20 00 00 00	r0 <<= 32
     285:	c7 00 00 00 20 00 00 00	r0 s>>= 32
     286:	c5 00 64 ff 00 00 00 00	if r0 s< 0 goto -156 <LBB5_59>
     287:	71 a1 e8 ff 00 00 00 00	r1 = *(u8 *)(r10 - 24)
     288:	15 01 01 00 33 00 00 00	if r1 == 51 goto +1 <LBB5_13>
     289:	b7 09 00 00 03 00 00 00	r9 = 3

0000000000000910 <LBB5_13>:
     290:	25 01 42 00 3c 00 00 00	if r1 > 60 goto +66 <LBB5_33>
     291:	b7 02 00 00 01 00 00 00	r2 = 1
     292:	6f 12 00 00 00 00 00 00	r2 <<= r1
     293:	18 03 00 00 01 00 00 00 00 00 00 00 00 08 08 10	r3 = 1155182100513554433 ll
     295:	5f 32 00 00 00 00 00 00	r2 &= r3
     296:	55 02 05 00 00 00 00 00	if r2 != 0 goto +5 <LBB5_18>
     297:	15 01 7a 00 2c 00 00 00	if r1 == 44 goto +122 <LBB5_17>
     298:	18 08 00 00 64 ff ff ff 00 00 00 00 00 00 00 00	r8 = 4294967140 ll
     300:	15 01 56 ff 3b 00 00 00	if r1 == 59 goto -170 <LBB5_59>
     301:	05 00 37 00 00 00 00 00	goto +55 <LBB5_33>

0000000000000970 <LBB5_18>:
     302:	71 a2 e9 ff 00 00 00 00	r2 = *(u8 *)(r10 - 23)
     303:	6f 92 00 00 00 00 00 00	r2 <<= r9
     304:	7b 2a b0 ff 00 00 00 00	*(u64 *)(r10 - 80) = r2
     305:	07 02 00 00 3e 00 00 00	r2 += 62
     306:	bf a3 00 00 00 00 00 00	r3 = r10
     307:	07 03 00 00 e8 ff ff ff	r3 += -24
     308:	b7 09 00 00 02 00 00 00	r9 = 2
     309:	bf 61 00 00 00 00 00 00	r1 = r6
     310:	b7 04 00 00 02 00 00 00	r4 = 2
     311:	85 00 00 00 1a 00 00 00	call 26
     312:	67 00 00 00 20 00 00 00	r0 <<= 32
     313:	c7 00 00 00 20 00 00 00	r0 s>>= 32
     314:	c5 00 48 ff 00 00 00 00	if r0 s< 0 goto -184 <LBB5_59>
     315:	71 a1 e8 ff 00 00 00 00	r1 = *(u8 *)(r10 - 24)
     316:	15 01 01 00 33 00 00 00	if r1 == 51 goto +1 <LBB5_21>
     317:	b7 09 00 00 03 00 00 00	r9 = 3

00000000000009f0 <LBB5_21>:
     318:	25 01 26 00 3c 00 00 00	if r1 > 60 goto +38 <LBB5_33>
     319:	b7 02 00 00 01 00 00 00	r2 = 1
     320:	6f 12 00 00 00 00 00 00	r2 <<= r1
     321:	18 03 00 00 01 00 00 00 00 00 00 00 00 08 08 10	r3 = 1155182100513554433 ll
     323:	5f 32 00 00 00 00 00 00	r2 &= r3
     324:	55 02 05 00 00 00 00 00	if r2 != 0 goto +5 <LBB5_25>
     325:	15 01 5e 00 2c 00 00 00	if r1 == 44 goto +94 <LBB5_17>
     326:	18 08 00 00 64 ff ff ff 00 00 00 00 00 00 00 00	r8 = 4294967140 ll
     328:	15 01 3a ff 3b 00 00 00	if r1 == 59 goto -198 <LBB5_59>
     329:	05 00 1b 00 00 00 00 00	goto +27 <LBB5_33>

0000000000000a50 <LBB5_25>:
     330:	71 a1 e9 ff 00 00 00 00	r1 = *(u8 *)(r10 - 23)
     331:	6f 91 00 00 00 00 00 00	r1 <<= r9
     332:	79 a2 b0 ff 00 00 00 00	r2 = *(u64 *)(r10 - 80)
     333:	0f 12 00 00 00 00 00 00	r2 += r1
     334:	07 02 00 00 38 00 00 00	r2 += 56
     335:	bf 29 00 00 00 00 00 00	r9 = r2
     336:	07 02 00 00 0e 00 00 00	r2 += 14
     337:	bf a3 00 00 00 00 00 00	r3 = r10
     338:	07 03 00 00 e8 ff ff ff	r3 += -24
     339:	bf 61 00 00 00 00 00 00	r1 = r6
     340:	b7 04 00 00 02 00 00 00	r4 = 2
     341:	85 00 00 00 1a 00 00 00	call 26
     342:	67 00 00 00 20 00 00 00	r0 <<= 32
     343:	c7 00 00 00 20 00 00 00	r0 s>>= 32
     344:	c5 00 2a ff 00 00 00 00	if r0 s< 0 goto -214 <LBB5_59>
     345:	71 a1 e8 ff 00 00 00 00	r1 = *(u8 *)(r10 - 24)
     346:	25 01 0a 00 3c 00 00 00	if r1 > 60 goto +10 <LBB5_33>
     347:	b7 02 00 00 01 00 00 00	r2 = 1
     348:	6f 12 00 00 00 00 00 00	r2 <<= r1
     349:	18 03 00 00 01 00 00 00 00 00 00 00 00 08 08 10	r3 = 1155182100513554433 ll
     351:	5f 32 00 00 00 00 00 00	r2 &= r3
     352:	55 02 7a 00 00 00 00 00	if r2 != 0 goto +122 <LBB5_30>
     353:	15 01 42 00 2c 00 00 00	if r1 == 44 goto +66 <LBB5_17>
     354:	18 08 00 00 64 ff ff ff 00 00 00 00 00 00 00 00	r8 = 4294967140 ll
     356:	15 01 1e ff 3b 00 00 00	if r1 == 59 goto -226 <LBB5_59>

0000000000000b28 <LBB5_33>:
     357:	69 78 06 00 00 00 00 00	r8 = *(u16 *)(r7 + 6)
     358:	61 a9 b8 ff 00 00 00 00	r9 = *(u32 *)(r10 - 72)
     359:	bf 61 00 00 00 00 00 00	r1 = r6
     360:	85 00 00 00 22 00 00 00	call 34
     361:	63 0a ec ff 00 00 00 00	*(u32 *)(r10 - 20) = r0
     362:	b7 01 00 00 02 02 00 00	r1 = 514
     363:	63 1a e8 ff 00 00 00 00	*(u32 *)(r10 - 24) = r1
     364:	63 8a f0 ff 00 00 00 00	*(u32 *)(r10 - 16) = r8
     365:	b7 01 00 00 00 00 00 00	r1 = 0
     366:	63 1a f8 ff 00 00 00 00	*(u32 *)(r10 - 8) = r1
     367:	7b 9a b0 ff 00 00 00 00	*(u64 *)(r10 - 80) = r9
     368:	63 9a f4 ff 00 00 00 00	*(u32 *)(r10 - 12) = r9
     369:	bf a4 00 00 00 00 00 00	r4 = r10
     370:	07 04 00 00 e8 ff ff ff	r4 += -24
     371:	bf 61 00 00 00 00 00 00	r1 = r6
     372:	18 02 00 00 00 00 00 00 00 00 00 00 00 00 00 00	r2 = 0 ll
     374:	18 03 00 00 ff ff ff ff 00 00 00 00 00 00 00 00	r3 = 4294967295 ll
     376:	b7 05 00 00 14 00 00 00	r5 = 20
     377:	85 00 00 00 19 00 00 00	call 25
     378:	79 71 10 00 00 00 00 00	r1 = *(u64 *)(r7 + 16)
     379:	7b 1a e0 ff 00 00 00 00	*(u64 *)(r10 - 32) = r1
     380:	79 71 18 00 00 00 00 00	r1 = *(u64 *)(r7 + 24)
     381:	7b 1a d8 ff 00 00 00 00	*(u64 *)(r10 - 40) = r1
     382:	b7 09 00 00 01 00 00 00	r9 = 1
     383:	30 00 00 00 15 00 00 00	r0 = *(u8 *)skb[21]
     384:	bf 01 00 00 00 00 00 00	r1 = r0
     385:	57 01 00 00 fe 00 00 00	r1 &= 254
     386:	b7 08 00 00 01 00 00 00	r8 = 1
     387:	15 01 0d 00 00 00 00 00	if r1 == 0 goto +13 <LBB5_35>
     388:	07 00 00 00 ff 00 00 00	r0 += 255
     389:	73 0a e8 ff 00 00 00 00	*(u8 *)(r10 - 24) = r0
     390:	bf a3 00 00 00 00 00 00	r3 = r10
     391:	07 03 00 00 e8 ff ff ff	r3 += -24
     392:	bf 61 00 00 00 00 00 00	r1 = r6
     393:	b7 02 00 00 15 00 00 00	r2 = 21
     394:	b7 04 00 00 01 00 00 00	r4 = 1
     395:	b7 05 00 00 01 00 00 00	r5 = 1
     396:	85 00 00 00 09 00 00 00	call 9
     397:	bf 08 00 00 00 00 00 00	r8 = r0
     398:	67 08 00 00 20 00 00 00	r8 <<= 32
     399:	c7 08 00 00 3f 00 00 00	r8 s>>= 63
     400:	57 08 00 00 73 ff ff ff	r8 &= -141

0000000000000c88 <LBB5_35>:
     401:	15 08 01 00 02 00 00 00	if r8 == 2 goto +1 <LBB5_37>
     402:	b7 09 00 00 00 00 00 00	r9 = 0

0000000000000c98 <LBB5_37>:
     403:	18 01 00 00 00 00 00 80 00 00 00 00 00 00 00 00	r1 = 2147483648 ll
     405:	bf 82 00 00 00 00 00 00	r2 = r8
     406:	5f 12 00 00 00 00 00 00	r2 &= r1
     407:	77 02 00 00 1f 00 00 00	r2 >>= 31
     408:	4f 92 00 00 00 00 00 00	r2 |= r9
     409:	55 02 24 00 00 00 00 00	if r2 != 0 goto +36 <LBB5_42>
     410:	c5 08 0c 00 01 00 00 00	if r8 s< 1 goto +12 <LBB5_40>

0000000000000cd8 <LBB5_39>:
     411:	b7 01 00 00 01 00 00 00	r1 = 1
     412:	63 16 34 00 00 00 00 00	*(u32 *)(r6 + 52) = r1
     413:	b7 01 00 00 0e 00 00 00	r1 = 14
     414:	63 16 30 00 00 00 00 00	*(u32 *)(r6 + 48) = r1
     415:	bf 61 00 00 00 00 00 00	r1 = r6
     416:	18 02 00 00 00 00 00 00 00 00 00 00 00 00 00 00	r2 = 0 ll
     418:	b7 03 00 00 05 00 00 00	r3 = 5
     419:	05 00 dc fe 00 00 00 00	goto -292 <LBB5_58>

0000000000000d20 <LBB5_17>:
     420:	18 08 00 00 63 ff ff ff 00 00 00 00 00 00 00 00	r8 = 4294967139 ll
     422:	05 00 dc fe 00 00 00 00	goto -292 <LBB5_59>

0000000000000d38 <LBB5_40>:
     423:	bf a3 00 00 00 00 00 00	r3 = r10
     424:	07 03 00 00 d8 ff ff ff	r3 += -40
     425:	bf 61 00 00 00 00 00 00	r1 = r6
     426:	b7 02 00 00 06 00 00 00	r2 = 6
     427:	b7 04 00 00 06 00 00 00	r4 = 6
     428:	b7 05 00 00 00 00 00 00	r5 = 0
     429:	85 00 00 00 09 00 00 00	call 9
     430:	18 08 00 00 73 ff ff ff 00 00 00 00 00 00 00 00	r8 = 4294967155 ll
     432:	67 00 00 00 20 00 00 00	r0 <<= 32
     433:	c7 00 00 00 20 00 00 00	r0 s>>= 32
     434:	c5 00 d0 fe 00 00 00 00	if r0 s< 0 goto -304 <LBB5_59>
     435:	bf a3 00 00 00 00 00 00	r3 = r10
     436:	07 03 00 00 e0 ff ff ff	r3 += -32
     437:	bf 61 00 00 00 00 00 00	r1 = r6
     438:	b7 02 00 00 00 00 00 00	r2 = 0
     439:	b7 04 00 00 06 00 00 00	r4 = 6
     440:	b7 05 00 00 00 00 00 00	r5 = 0
     441:	85 00 00 00 09 00 00 00	call 9
     442:	bf 08 00 00 00 00 00 00	r8 = r0
     443:	67 08 00 00 20 00 00 00	r8 <<= 32
     444:	c7 08 00 00 3f 00 00 00	r8 s>>= 63
     445:	57 08 00 00 73 ff ff ff	r8 &= -141

0000000000000df0 <LBB5_42>:
     446:	55 08 c4 fe 00 00 00 00	if r8 != 0 goto -316 <LBB5_59>
     447:	61 78 00 00 00 00 00 00	r8 = *(u32 *)(r7 + 0)
     448:	bf 61 00 00 00 00 00 00	r1 = r6
     449:	85 00 00 00 22 00 00 00	call 34
     450:	63 0a ec ff 00 00 00 00	*(u32 *)(r10 - 20) = r0
     451:	b7 01 00 00 02 04 00 00	r1 = 1026
     452:	63 1a e8 ff 00 00 00 00	*(u32 *)(r10 - 24) = r1
     453:	63 8a f0 ff 00 00 00 00	*(u32 *)(r10 - 16) = r8
     454:	b7 01 00 00 00 00 00 00	r1 = 0
     455:	63 1a f4 ff 00 00 00 00	*(u32 *)(r10 - 12) = r1
     456:	63 1a f8 ff 00 00 00 00	*(u32 *)(r10 - 8) = r1
     457:	bf a4 00 00 00 00 00 00	r4 = r10
     458:	07 04 00 00 e8 ff ff ff	r4 += -24
     459:	bf 61 00 00 00 00 00 00	r1 = r6
     460:	18 02 00 00 00 00 00 00 00 00 00 00 00 00 00 00	r2 = 0 ll
     462:	18 03 00 00 ff ff ff ff 00 00 00 00 00 00 00 00	r3 = 4294967295 ll
     464:	b7 05 00 00 14 00 00 00	r5 = 20
     465:	85 00 00 00 19 00 00 00	call 25
     466:	79 a1 b0 ff 00 00 00 00	r1 = *(u64 *)(r10 - 80)
     467:	63 16 30 00 00 00 00 00	*(u32 *)(r6 + 48) = r1
     468:	61 71 00 00 00 00 00 00	r1 = *(u32 *)(r7 + 0)
     469:	63 16 34 00 00 00 00 00	*(u32 *)(r6 + 52) = r1
     470:	69 73 06 00 00 00 00 00	r3 = *(u16 *)(r7 + 6)
     471:	bf 61 00 00 00 00 00 00	r1 = r6
     472:	18 02 00 00 00 00 00 00 00 00 00 00 00 00 00 00	r2 = 0 ll
     474:	05 00 a5 fe 00 00 00 00	goto -347 <LBB5_58>

0000000000000ed8 <LBB5_30>:
     475:	b7 02 00 00 02 00 00 00	r2 = 2
     476:	15 01 01 00 33 00 00 00	if r1 == 51 goto +1 <LBB5_32>
     477:	b7 02 00 00 03 00 00 00	r2 = 3

0000000000000ef0 <LBB5_32>:
     478:	71 a1 e9 ff 00 00 00 00	r1 = *(u8 *)(r10 - 23)
     479:	6f 21 00 00 00 00 00 00	r1 <<= r2
     480:	bf 92 00 00 00 00 00 00	r2 = r9
     481:	0f 12 00 00 00 00 00 00	r2 += r1
     482:	07 02 00 00 16 00 00 00	r2 += 22
     483:	bf a3 00 00 00 00 00 00	r3 = r10
     484:	07 03 00 00 e8 ff ff ff	r3 += -24
     485:	bf 61 00 00 00 00 00 00	r1 = r6
     486:	b7 04 00 00 02 00 00 00	r4 = 2
     487:	85 00 00 00 1a 00 00 00	call 26
     488:	bf 08 00 00 00 00 00 00	r8 = r0
     489:	67 08 00 00 20 00 00 00	r8 <<= 32
     490:	c7 08 00 00 20 00 00 00	r8 s>>= 32
     491:	77 08 00 00 1f 00 00 00	r8 >>= 31
     492:	57 08 00 00 16 00 00 00	r8 &= 22
     493:	07 08 00 00 64 ff ff ff	r8 += -156
     494:	05 00 94 fe 00 00 00 00	goto -364 <LBB5_59>

0000000000000f78 <LBB5_64>:
     495:	7b 7a c0 ff 00 00 00 00	*(u64 *)(r10 - 64) = r7
     496:	b7 01 00 00 01 00 00 00	r1 = 1
     497:	7b 1a b8 ff 00 00 00 00	*(u64 *)(r10 - 72) = r1
     498:	bf a2 00 00 00 00 00 00	r2 = r10
     499:	07 02 00 00 e8 ff ff ff	r2 += -24
     500:	bf a3 00 00 00 00 00 00	r3 = r10
     501:	07 03 00 00 b8 ff ff ff	r3 += -72
     502:	18 01 00 00 00 00 00 00 00 00 00 00 00 00 00 00	r1 = 0 ll
     504:	b7 04 00 00 00 00 00 00	r4 = 0
     505:	85 00 00 00 02 00 00 00	call 2

0000000000000fd0 <LBB5_65>:
     506:	bf 61 00 00 00 00 00 00	r1 = r6
     507:	18 02 00 00 00 00 00 00 00 00 00 00 00 00 00 00	r2 = 0 ll
     509:	b7 03 00 00 01 00 00 00	r3 = 1
     510:	85 00 00 00 0c 00 00 00	call 12
     511:	b7 08 00 00 02 00 00 00	r8 = 2

0000000000001000 <LBB5_66>:
     512:	bf 80 00 00 00 00 00 00	r0 = r8
     513:	95 00 00 00 00 00 00 00	exit
