
./ebpf-samples/all/bpf_xdp_dsr_linux_v1_1.o:	file format elf64-bpf

Disassembly of section 2/1:

0000000000000000 <__send_drop_notify>:
       0:	bf 16 00 00 00 00 00 00	r6 = r1
       1:	b7 07 00 00 00 00 00 00	r7 = 0
       2:	63 7a d8 ff 00 00 00 00	*(u32 *)(r10 - 40) = r7
       3:	bf a2 00 00 00 00 00 00	r2 = r10
       4:	07 02 00 00 d8 ff ff ff	r2 += -40
       5:	18 01 00 00 00 00 00 00 00 00 00 00 00 00 00 00	r1 = 0 ll
       7:	85 00 00 00 01 00 00 00	call 1
       8:	b7 09 00 00 00 00 00 00	r9 = 0
       9:	15 00 01 00 00 00 00 00	if r0 == 0 goto +1 <LBB0_2>
      10:	61 09 08 00 00 00 00 00	r9 = *(u32 *)(r0 + 8)

0000000000000058 <LBB0_2>:
      11:	61 61 00 00 00 00 00 00	r1 = *(u32 *)(r6 + 0)
      12:	61 62 04 00 00 00 00 00	r2 = *(u32 *)(r6 + 4)
      13:	1f 12 00 00 00 00 00 00	r2 -= r1
      14:	67 09 00 00 20 00 00 00	r9 <<= 32
      15:	b7 01 00 00 00 00 00 00	r1 = 0
      16:	7b 1a d0 ff 00 00 00 00	*(u64 *)(r10 - 48) = r1
      17:	63 7a d8 ff 00 00 00 00	*(u32 *)(r10 - 40) = r7
      18:	b7 01 00 00 80 00 00 00	r1 = 128
      19:	bf 27 00 00 00 00 00 00	r7 = r2
      20:	7b 2a c0 ff 00 00 00 00	*(u64 *)(r10 - 64) = r2
      21:	2d 21 01 00 00 00 00 00	if r1 > r2 goto +1 <LBB0_4>
      22:	b7 07 00 00 80 00 00 00	r7 = 128

00000000000000b8 <LBB0_4>:
      23:	7b 6a c8 ff 00 00 00 00	*(u64 *)(r10 - 56) = r6
      24:	bf 98 00 00 00 00 00 00	r8 = r9
      25:	c7 08 00 00 3f 00 00 00	r8 s>>= 63
      26:	c7 09 00 00 20 00 00 00	r9 s>>= 32
      27:	bf a2 00 00 00 00 00 00	r2 = r10
      28:	07 02 00 00 d8 ff ff ff	r2 += -40
      29:	18 01 00 00 00 00 00 00 00 00 00 00 00 00 00 00	r1 = 0 ll
      31:	85 00 00 00 01 00 00 00	call 1
      32:	15 00 02 00 00 00 00 00	if r0 == 0 goto +2 <LBB0_6>
      33:	61 01 00 00 00 00 00 00	r1 = *(u32 *)(r0 + 0)
      34:	7b 1a d0 ff 00 00 00 00	*(u64 *)(r10 - 48) = r1

0000000000000118 <LBB0_6>:
      35:	0f 89 00 00 00 00 00 00	r9 += r8
      36:	b7 06 00 00 00 00 00 00	r6 = 0
      37:	63 6a d8 ff 00 00 00 00	*(u32 *)(r10 - 40) = r6
      38:	bf a2 00 00 00 00 00 00	r2 = r10
      39:	07 02 00 00 d8 ff ff ff	r2 += -40
      40:	18 01 00 00 00 00 00 00 00 00 00 00 00 00 00 00	r1 = 0 ll
      42:	85 00 00 00 01 00 00 00	call 1
      43:	b7 01 00 00 00 00 00 00	r1 = 0
      44:	15 00 01 00 00 00 00 00	if r0 == 0 goto +1 <LBB0_8>
      45:	61 01 04 00 00 00 00 00	r1 = *(u32 *)(r0 + 4)

0000000000000170 <LBB0_8>:
      46:	7b 1a b8 ff 00 00 00 00	*(u64 *)(r10 - 72) = r1
      47:	af 89 00 00 00 00 00 00	r9 ^= r8
      48:	63 6a fc ff 00 00 00 00	*(u32 *)(r10 - 4) = r6
      49:	bf a2 00 00 00 00 00 00	r2 = r10
      50:	07 02 00 00 fc ff ff ff	r2 += -4
      51:	18 01 00 00 00 00 00 00 00 00 00 00 00 00 00 00	r1 = 0 ll
      53:	85 00 00 00 01 00 00 00	call 1
      54:	15 00 01 00 00 00 00 00	if r0 == 0 goto +1 <LBB0_10>
      55:	61 06 0c 00 00 00 00 00	r6 = *(u32 *)(r0 + 12)

00000000000001c0 <LBB0_10>:
      56:	63 6a f0 ff 00 00 00 00	*(u32 *)(r10 - 16) = r6
      57:	79 a1 b8 ff 00 00 00 00	r1 = *(u64 *)(r10 - 72)
      58:	63 1a ec ff 00 00 00 00	*(u32 *)(r10 - 20) = r1
      59:	79 a1 d0 ff 00 00 00 00	r1 = *(u64 *)(r10 - 48)
      60:	63 1a e8 ff 00 00 00 00	*(u32 *)(r10 - 24) = r1
      61:	79 a1 c0 ff 00 00 00 00	r1 = *(u64 *)(r10 - 64)
      62:	63 1a e0 ff 00 00 00 00	*(u32 *)(r10 - 32) = r1
      63:	73 9a d9 ff 00 00 00 00	*(u8 *)(r10 - 39) = r9
      64:	b7 01 00 00 01 00 00 00	r1 = 1
      65:	6b 1a e6 ff 00 00 00 00	*(u16 *)(r10 - 26) = r1
      66:	73 1a d8 ff 00 00 00 00	*(u8 *)(r10 - 40) = r1
      67:	6b 7a e4 ff 00 00 00 00	*(u16 *)(r10 - 28) = r7
      68:	67 07 00 00 20 00 00 00	r7 <<= 32
      69:	18 01 00 00 ff ff ff ff 00 00 00 00 00 00 00 00	r1 = 4294967295 ll
      71:	4f 17 00 00 00 00 00 00	r7 |= r1
      72:	b7 08 00 00 00 00 00 00	r8 = 0
      73:	63 8a f4 ff 00 00 00 00	*(u32 *)(r10 - 12) = r8
      74:	63 8a dc ff 00 00 00 00	*(u32 *)(r10 - 36) = r8
      75:	6b 8a da ff 00 00 00 00	*(u16 *)(r10 - 38) = r8
      76:	bf a4 00 00 00 00 00 00	r4 = r10
      77:	07 04 00 00 d8 ff ff ff	r4 += -40
      78:	79 a1 c8 ff 00 00 00 00	r1 = *(u64 *)(r10 - 56)
      79:	18 02 00 00 00 00 00 00 00 00 00 00 00 00 00 00	r2 = 0 ll
      81:	bf 73 00 00 00 00 00 00	r3 = r7
      82:	b7 05 00 00 20 00 00 00	r5 = 32
      83:	85 00 00 00 19 00 00 00	call 25
      84:	63 8a fc ff 00 00 00 00	*(u32 *)(r10 - 4) = r8
      85:	bf a2 00 00 00 00 00 00	r2 = r10
      86:	07 02 00 00 fc ff ff ff	r2 += -4
      87:	18 01 00 00 00 00 00 00 00 00 00 00 00 00 00 00	r1 = 0 ll
      89:	85 00 00 00 01 00 00 00	call 1
      90:	15 00 01 00 00 00 00 00	if r0 == 0 goto +1 <LBB0_12>
      91:	61 08 10 00 00 00 00 00	r8 = *(u32 *)(r0 + 16)

00000000000002e0 <LBB0_12>:
      92:	bf 80 00 00 00 00 00 00	r0 = r8
      93:	95 00 00 00 00 00 00 00	exit

Disassembly of section 2/21:

0000000000000000 <tail_nodeport_ipv6_dsr>:
       0:	b7 07 00 00 00 00 00 00	r7 = 0
       1:	7b 7a 78 ff 00 00 00 00	*(u64 *)(r10 - 136) = r7
       2:	7b 7a 70 ff 00 00 00 00	*(u64 *)(r10 - 144) = r7
       3:	63 7a b0 ff 00 00 00 00	*(u32 *)(r10 - 80) = r7
       4:	7b 7a a8 ff 00 00 00 00	*(u64 *)(r10 - 88) = r7
       5:	7b 7a a0 ff 00 00 00 00	*(u64 *)(r10 - 96) = r7
       6:	7b 7a 98 ff 00 00 00 00	*(u64 *)(r10 - 104) = r7
       7:	7b 7a 90 ff 00 00 00 00	*(u64 *)(r10 - 112) = r7
       8:	7b 7a 88 ff 00 00 00 00	*(u64 *)(r10 - 120) = r7
       9:	7b 7a 80 ff 00 00 00 00	*(u64 *)(r10 - 128) = r7
      10:	b7 02 00 00 02 00 00 00	r2 = 2
      11:	63 2a 78 ff 00 00 00 00	*(u32 *)(r10 - 136) = r2
      12:	b7 02 00 00 0a 00 00 00	r2 = 10
      13:	73 2a 70 ff 00 00 00 00	*(u8 *)(r10 - 144) = r2
      14:	18 09 00 00 7a ff ff ff 00 00 00 00 00 00 00 00	r9 = 4294967162 ll
      16:	61 13 04 00 00 00 00 00	r3 = *(u32 *)(r1 + 4)
      17:	7b 1a 68 ff 00 00 00 00	*(u64 *)(r10 - 152) = r1
      18:	61 16 00 00 00 00 00 00	r6 = *(u32 *)(r1 + 0)
      19:	bf 62 00 00 00 00 00 00	r2 = r6
      20:	07 02 00 00 36 00 00 00	r2 += 54
      21:	2d 32 b0 01 00 00 00 00	if r2 > r3 goto +432 <LBB1_74>
      22:	63 7a b8 ff 00 00 00 00	*(u32 *)(r10 - 72) = r7
      23:	bf a2 00 00 00 00 00 00	r2 = r10
      24:	07 02 00 00 b8 ff ff ff	r2 += -72
      25:	18 01 00 00 00 00 00 00 00 00 00 00 00 00 00 00	r1 = 0 ll
      27:	85 00 00 00 01 00 00 00	call 1
      28:	15 00 01 00 00 00 00 00	if r0 == 0 goto +1 <LBB1_3>
      29:	61 07 04 00 00 00 00 00	r7 = *(u32 *)(r0 + 4)

00000000000000f0 <LBB1_3>:
      30:	b7 08 00 00 00 00 00 00	r8 = 0
      31:	63 8a b8 ff 00 00 00 00	*(u32 *)(r10 - 72) = r8
      32:	bf a2 00 00 00 00 00 00	r2 = r10
      33:	07 02 00 00 b8 ff ff ff	r2 += -72
      34:	18 01 00 00 00 00 00 00 00 00 00 00 00 00 00 00	r1 = 0 ll
      36:	85 00 00 00 01 00 00 00	call 1
      37:	b7 01 00 00 00 00 00 00	r1 = 0
      38:	15 00 01 00 00 00 00 00	if r0 == 0 goto +1 <LBB1_5>
      39:	61 01 08 00 00 00 00 00	r1 = *(u32 *)(r0 + 8)

0000000000000140 <LBB1_5>:
      40:	7b 1a 60 ff 00 00 00 00	*(u64 *)(r10 - 160) = r1
      41:	63 8a b8 ff 00 00 00 00	*(u32 *)(r10 - 72) = r8
      42:	bf a2 00 00 00 00 00 00	r2 = r10
      43:	07 02 00 00 b8 ff ff ff	r2 += -72
      44:	18 01 00 00 00 00 00 00 00 00 00 00 00 00 00 00	r1 = 0 ll
      46:	85 00 00 00 01 00 00 00	call 1
      47:	15 00 01 00 00 00 00 00	if r0 == 0 goto +1 <LBB1_7>
      48:	61 08 0c 00 00 00 00 00	r8 = *(u32 *)(r0 + 12)

0000000000000188 <LBB1_7>:
      49:	7b 8a 58 ff 00 00 00 00	*(u64 *)(r10 - 168) = r8
      50:	b7 08 00 00 00 00 00 00	r8 = 0
      51:	63 8a b8 ff 00 00 00 00	*(u32 *)(r10 - 72) = r8
      52:	bf a2 00 00 00 00 00 00	r2 = r10
      53:	07 02 00 00 b8 ff ff ff	r2 += -72
      54:	18 01 00 00 00 00 00 00 00 00 00 00 00 00 00 00	r1 = 0 ll
      56:	85 00 00 00 01 00 00 00	call 1
      57:	b7 01 00 00 00 00 00 00	r1 = 0
      58:	15 00 01 00 00 00 00 00	if r0 == 0 goto +1 <LBB1_9>
      59:	61 01 10 00 00 00 00 00	r1 = *(u32 *)(r0 + 16)

00000000000001e0 <LBB1_9>:
      60:	7b 1a 50 ff 00 00 00 00	*(u64 *)(r10 - 176) = r1
      61:	63 8a b8 ff 00 00 00 00	*(u32 *)(r10 - 72) = r8
      62:	bf a2 00 00 00 00 00 00	r2 = r10
      63:	07 02 00 00 b8 ff ff ff	r2 += -72
      64:	18 01 00 00 00 00 00 00 00 00 00 00 00 00 00 00	r1 = 0 ll
      66:	85 00 00 00 01 00 00 00	call 1
      67:	69 68 12 00 00 00 00 00	r8 = *(u16 *)(r6 + 18)
      68:	dc 08 00 00 10 00 00 00	r8 = be16 r8
      69:	bf 81 00 00 00 00 00 00	r1 = r8
      70:	07 01 00 00 50 00 00 00	r1 += 80
      71:	57 01 00 00 ff ff 00 00	r1 &= 65535
      72:	25 01 32 00 dc 05 00 00	if r1 > 1500 goto +50 <LBB1_22>
      73:	79 a1 68 ff 00 00 00 00	r1 = *(u64 *)(r10 - 152)
      74:	18 02 00 00 d8 ff ff ff 00 00 00 00 00 00 00 00	r2 = 4294967256 ll
      76:	85 00 00 00 2c 00 00 00	call 44
      77:	67 00 00 00 20 00 00 00	r0 <<= 32
      78:	77 00 00 00 20 00 00 00	r0 >>= 32
      79:	55 00 76 01 00 00 00 00	if r0 != 0 goto +374 <LBB1_74>
      80:	79 a1 68 ff 00 00 00 00	r1 = *(u64 *)(r10 - 152)
      81:	61 12 04 00 00 00 00 00	r2 = *(u32 *)(r1 + 4)
      82:	61 11 00 00 00 00 00 00	r1 = *(u32 *)(r1 + 0)
      83:	bf 13 00 00 00 00 00 00	r3 = r1
      84:	07 03 00 00 5e 00 00 00	r3 += 94
      85:	2d 23 70 01 00 00 00 00	if r3 > r2 goto +368 <LBB1_74>
      86:	69 12 28 00 00 00 00 00	r2 = *(u16 *)(r1 + 40)
      87:	6b 21 00 00 00 00 00 00	*(u16 *)(r1 + 0) = r2
      88:	61 12 2a 00 00 00 00 00	r2 = *(u32 *)(r1 + 42)
      89:	79 13 4e 00 00 00 00 00	r3 = *(u64 *)(r1 + 78)
      90:	7b 31 26 00 00 00 00 00	*(u64 *)(r1 + 38) = r3
      91:	63 21 02 00 00 00 00 00	*(u32 *)(r1 + 2) = r2
      92:	79 12 2e 00 00 00 00 00	r2 = *(u64 *)(r1 + 46)
      93:	79 13 56 00 00 00 00 00	r3 = *(u64 *)(r1 + 86)
      94:	7b 31 2e 00 00 00 00 00	*(u64 *)(r1 + 46) = r3
      95:	7b 21 06 00 00 00 00 00	*(u64 *)(r1 + 6) = r2
      96:	79 12 36 00 00 00 00 00	r2 = *(u64 *)(r1 + 54)
      97:	7b 21 0e 00 00 00 00 00	*(u64 *)(r1 + 14) = r2
      98:	79 12 3e 00 00 00 00 00	r2 = *(u64 *)(r1 + 62)
      99:	7b 21 16 00 00 00 00 00	*(u64 *)(r1 + 22) = r2
     100:	79 12 46 00 00 00 00 00	r2 = *(u64 *)(r1 + 70)
     101:	7b 21 1e 00 00 00 00 00	*(u64 *)(r1 + 30) = r2
     102:	b7 03 00 00 12 00 00 00	r3 = 18
     103:	79 a4 68 ff 00 00 00 00	r4 = *(u64 *)(r10 - 152)
     104:	61 41 00 00 00 00 00 00	r1 = *(u32 *)(r4 + 0)
     105:	61 42 04 00 00 00 00 00	r2 = *(u32 *)(r4 + 4)
     106:	57 03 00 00 ff 00 00 00	r3 &= 255
     107:	0f 31 00 00 00 00 00 00	r1 += r3
     108:	bf 13 00 00 00 00 00 00	r3 = r1
     109:	07 01 00 00 04 00 00 00	r1 += 4
     110:	2d 21 02 00 00 00 00 00	if r1 > r2 goto +2 <LBB1_9+0x1a8>
     111:	b7 04 00 00 00 00 00 00	r4 = 0
     112:	05 00 01 00 00 00 00 00	goto +1 <LBB1_9+0x1b0>
     113:	b7 04 00 00 ea ff ff ff	r4 = -22
     114:	67 04 00 00 20 00 00 00	r4 <<= 32
     115:	bf 41 00 00 00 00 00 00	r1 = r4
     116:	77 01 00 00 20 00 00 00	r1 >>= 32
     117:	55 01 03 01 00 00 00 00	if r1 != 0 goto +259 <LBB1_14>
     118:	07 08 00 00 28 00 00 00	r8 += 40
     119:	dc 08 00 00 10 00 00 00	r8 = be16 r8
     120:	47 08 00 00 00 00 29 40	r8 |= 1076428800
     121:	63 83 00 00 00 00 00 00	*(u32 *)(r3 + 0) = r8
     122:	05 00 03 01 00 00 00 00	goto +259 <LBB1_15>

00000000000003d8 <LBB1_22>:
     123:	79 a1 68 ff 00 00 00 00	r1 = *(u64 *)(r10 - 152)
     124:	61 17 00 00 00 00 00 00	r7 = *(u32 *)(r1 + 0)
     125:	61 18 04 00 00 00 00 00	r8 = *(u32 *)(r1 + 4)
     126:	18 01 00 00 02 00 00 00 00 00 00 00 00 00 05 b4	r1 = -5474969771998969854 ll
     128:	7b 1a e0 ff 00 00 00 00	*(u64 *)(r10 - 32) = r1
     129:	71 61 0e 00 00 00 00 00	r1 = *(u8 *)(r6 + 14)
     130:	57 01 00 00 0f 00 00 00	r1 &= 15
     131:	47 01 00 00 60 00 00 00	r1 |= 96
     132:	73 1a b8 ff 00 00 00 00	*(u8 *)(r10 - 72) = r1
     133:	71 61 0f 00 00 00 00 00	r1 = *(u8 *)(r6 + 15)
     134:	73 1a b9 ff 00 00 00 00	*(u8 *)(r10 - 71) = r1
     135:	71 61 10 00 00 00 00 00	r1 = *(u8 *)(r6 + 16)
     136:	73 1a ba ff 00 00 00 00	*(u8 *)(r10 - 70) = r1
     137:	b7 01 00 00 00 70 3a 40	r1 = 1077571584
     138:	71 62 11 00 00 00 00 00	r2 = *(u8 *)(r6 + 17)
     139:	63 1a bc ff 00 00 00 00	*(u32 *)(r10 - 68) = r1
     140:	73 2a bb ff 00 00 00 00	*(u8 *)(r10 - 69) = r2
     141:	61 61 2a 00 00 00 00 00	r1 = *(u32 *)(r6 + 42)
     142:	67 01 00 00 20 00 00 00	r1 <<= 32
     143:	61 62 26 00 00 00 00 00	r2 = *(u32 *)(r6 + 38)
     144:	4f 21 00 00 00 00 00 00	r1 |= r2
     145:	7b 1a c0 ff 00 00 00 00	*(u64 *)(r10 - 64) = r1
     146:	61 61 32 00 00 00 00 00	r1 = *(u32 *)(r6 + 50)
     147:	67 01 00 00 20 00 00 00	r1 <<= 32
     148:	61 62 2e 00 00 00 00 00	r2 = *(u32 *)(r6 + 46)
     149:	4f 21 00 00 00 00 00 00	r1 |= r2
     150:	7b 1a c8 ff 00 00 00 00	*(u64 *)(r10 - 56) = r1
     151:	61 61 22 00 00 00 00 00	r1 = *(u32 *)(r6 + 34)
     152:	67 01 00 00 20 00 00 00	r1 <<= 32
     153:	61 62 1e 00 00 00 00 00	r2 = *(u32 *)(r6 + 30)
     154:	4f 21 00 00 00 00 00 00	r1 |= r2
     155:	7b 1a d8 ff 00 00 00 00	*(u64 *)(r10 - 40) = r1
     156:	61 61 16 00 00 00 00 00	r1 = *(u32 *)(r6 + 22)
     157:	61 62 1a 00 00 00 00 00	r2 = *(u32 *)(r6 + 26)
     158:	67 02 00 00 20 00 00 00	r2 <<= 32
     159:	4f 12 00 00 00 00 00 00	r2 |= r1
     160:	7b 2a d0 ff 00 00 00 00	*(u64 *)(r10 - 48) = r2
     161:	b7 01 00 00 00 00 00 00	r1 = 0
     162:	7b 1a f8 ff 00 00 00 00	*(u64 *)(r10 - 8) = r1
     163:	7b 1a f0 ff 00 00 00 00	*(u64 *)(r10 - 16) = r1
     164:	b7 01 00 00 88 02 00 00	r1 = 648
     165:	7b 1a e8 ff 00 00 00 00	*(u64 *)(r10 - 24) = r1
     166:	bf 89 00 00 00 00 00 00	r9 = r8
     167:	1f 79 00 00 00 00 00 00	r9 -= r7
     168:	bf a2 00 00 00 00 00 00	r2 = r10
     169:	07 02 00 00 e8 ff ff ff	r2 += -24
     170:	18 01 00 00 00 00 00 00 00 00 00 00 00 00 00 00	r1 = 0 ll
     172:	85 00 00 00 01 00 00 00	call 1
     173:	15 00 07 00 00 00 00 00	if r0 == 0 goto +7 <LBB1_24>
     174:	79 01 00 00 00 00 00 00	r1 = *(u64 *)(r0 + 0)
     175:	07 01 00 00 01 00 00 00	r1 += 1
     176:	7b 10 00 00 00 00 00 00	*(u64 *)(r0 + 0) = r1
     177:	79 01 08 00 00 00 00 00	r1 = *(u64 *)(r0 + 8)
     178:	0f 91 00 00 00 00 00 00	r1 += r9
     179:	7b 10 08 00 00 00 00 00	*(u64 *)(r0 + 8) = r1
     180:	05 00 0b 00 00 00 00 00	goto +11 <LBB1_25>

00000000000005a8 <LBB1_24>:
     181:	7b 9a f8 ff 00 00 00 00	*(u64 *)(r10 - 8) = r9
     182:	b7 01 00 00 01 00 00 00	r1 = 1
     183:	7b 1a f0 ff 00 00 00 00	*(u64 *)(r10 - 16) = r1
     184:	bf a2 00 00 00 00 00 00	r2 = r10
     185:	07 02 00 00 e8 ff ff ff	r2 += -24
     186:	bf a3 00 00 00 00 00 00	r3 = r10
     187:	07 03 00 00 f0 ff ff ff	r3 += -16
     188:	18 01 00 00 00 00 00 00 00 00 00 00 00 00 00 00	r1 = 0 ll
     190:	b7 04 00 00 00 00 00 00	r4 = 0
     191:	85 00 00 00 02 00 00 00	call 2

0000000000000600 <LBB1_25>:
     192:	b7 03 00 00 06 00 00 00	r3 = 6
     193:	79 a4 68 ff 00 00 00 00	r4 = *(u64 *)(r10 - 152)
     194:	61 41 00 00 00 00 00 00	r1 = *(u32 *)(r4 + 0)
     195:	61 42 04 00 00 00 00 00	r2 = *(u32 *)(r4 + 4)
     196:	57 03 00 00 ff 00 00 00	r3 &= 255
     197:	0f 31 00 00 00 00 00 00	r1 += r3
     198:	bf 14 00 00 00 00 00 00	r4 = r1
     199:	07 01 00 00 06 00 00 00	r1 += 6
     200:	2d 21 02 00 00 00 00 00	if r1 > r2 goto +2 <LBB1_25+0x58>
     201:	b7 03 00 00 00 00 00 00	r3 = 0
     202:	05 00 01 00 00 00 00 00	goto +1 <LBB1_25+0x60>
     203:	b7 03 00 00 ea ff ff ff	r3 = -22
     204:	67 03 00 00 20 00 00 00	r3 <<= 32
     205:	bf 31 00 00 00 00 00 00	r1 = r3
     206:	77 01 00 00 20 00 00 00	r1 >>= 32
     207:	55 01 05 00 00 00 00 00	if r1 != 0 goto +5 <LBB1_27>
     208:	61 41 00 00 00 00 00 00	r1 = *(u32 *)(r4 + 0)
     209:	7b 1a 60 ff 00 00 00 00	*(u64 *)(r10 - 160) = r1
     210:	69 41 04 00 00 00 00 00	r1 = *(u16 *)(r4 + 4)
     211:	7b 1a 58 ff 00 00 00 00	*(u64 *)(r10 - 168) = r1
     212:	05 00 03 00 00 00 00 00	goto +3 <LBB1_28>

00000000000006a8 <LBB1_27>:
     213:	c7 03 00 00 20 00 00 00	r3 s>>= 32
     214:	b7 01 00 00 00 00 00 00	r1 = 0
     215:	6d 31 50 02 00 00 00 00	if r1 s> r3 goto +592 <LBB1_45>

00000000000006c0 <LBB1_28>:
     216:	b7 03 00 00 00 00 00 00	r3 = 0
     217:	79 a4 68 ff 00 00 00 00	r4 = *(u64 *)(r10 - 152)
     218:	61 41 00 00 00 00 00 00	r1 = *(u32 *)(r4 + 0)
     219:	61 42 04 00 00 00 00 00	r2 = *(u32 *)(r4 + 4)
     220:	57 03 00 00 ff 00 00 00	r3 &= 255
     221:	0f 31 00 00 00 00 00 00	r1 += r3
     222:	bf 14 00 00 00 00 00 00	r4 = r1
     223:	07 01 00 00 06 00 00 00	r1 += 6
     224:	2d 21 02 00 00 00 00 00	if r1 > r2 goto +2 <LBB1_28+0x58>
     225:	b7 03 00 00 00 00 00 00	r3 = 0
     226:	05 00 01 00 00 00 00 00	goto +1 <LBB1_28+0x60>
     227:	b7 03 00 00 ea ff ff ff	r3 = -22
     228:	67 03 00 00 20 00 00 00	r3 <<= 32
     229:	bf 31 00 00 00 00 00 00	r1 = r3
     230:	77 01 00 00 20 00 00 00	r1 >>= 32
     231:	55 01 04 00 00 00 00 00	if r1 != 0 goto +4 <LBB1_30>
     232:	61 41 00 00 00 00 00 00	r1 = *(u32 *)(r4 + 0)
     233:	7b 1a 50 ff 00 00 00 00	*(u64 *)(r10 - 176) = r1
     234:	69 41 04 00 00 00 00 00	r1 = *(u16 *)(r4 + 4)
     235:	7b 1a 48 ff 00 00 00 00	*(u64 *)(r10 - 184) = r1

0000000000000760 <LBB1_30>:
     236:	bf 71 00 00 00 00 00 00	r1 = r7
     237:	07 01 00 00 76 00 00 00	r1 += 118
     238:	2d 81 39 02 00 00 00 00	if r1 > r8 goto +569 <LBB1_45>
     239:	c7 03 00 00 20 00 00 00	r3 s>>= 32
     240:	b7 06 00 00 00 00 00 00	r6 = 0
     241:	6d 36 36 02 00 00 00 00	if r6 s> r3 goto +566 <LBB1_45>
     242:	bf a8 00 00 00 00 00 00	r8 = r10
     243:	07 08 00 00 d0 ff ff ff	r8 += -48
     244:	bf a3 00 00 00 00 00 00	r3 = r10
     245:	07 03 00 00 c0 ff ff ff	r3 += -64
     246:	69 a1 bc ff 00 00 00 00	r1 = *(u16 *)(r10 - 68)
     247:	dc 01 00 00 10 00 00 00	r1 = be16 r1
     248:	dc 01 00 00 20 00 00 00	r1 = be32 r1
     249:	63 1a f0 ff 00 00 00 00	*(u32 *)(r10 - 16) = r1
     250:	b7 01 00 00 00 00 00 3a	r1 = 973078528
     251:	63 1a e8 ff 00 00 00 00	*(u32 *)(r10 - 24) = r1
     252:	b7 01 00 00 00 00 00 00	r1 = 0
     253:	b7 02 00 00 00 00 00 00	r2 = 0
     254:	b7 04 00 00 10 00 00 00	r4 = 16
     255:	b7 05 00 00 00 00 00 00	r5 = 0
     256:	85 00 00 00 1c 00 00 00	call 28
     257:	b7 01 00 00 00 00 00 00	r1 = 0
     258:	b7 02 00 00 00 00 00 00	r2 = 0
     259:	bf 83 00 00 00 00 00 00	r3 = r8
     260:	b7 04 00 00 10 00 00 00	r4 = 16
     261:	bf 05 00 00 00 00 00 00	r5 = r0
     262:	85 00 00 00 1c 00 00 00	call 28
     263:	bf a3 00 00 00 00 00 00	r3 = r10
     264:	07 03 00 00 f0 ff ff ff	r3 += -16
     265:	b7 01 00 00 00 00 00 00	r1 = 0
     266:	b7 02 00 00 00 00 00 00	r2 = 0
     267:	b7 04 00 00 04 00 00 00	r4 = 4
     268:	bf 05 00 00 00 00 00 00	r5 = r0
     269:	85 00 00 00 1c 00 00 00	call 28
     270:	bf a3 00 00 00 00 00 00	r3 = r10
     271:	07 03 00 00 e8 ff ff ff	r3 += -24
     272:	b7 01 00 00 00 00 00 00	r1 = 0
     273:	b7 02 00 00 00 00 00 00	r2 = 0
     274:	b7 04 00 00 04 00 00 00	r4 = 4
     275:	bf 05 00 00 00 00 00 00	r5 = r0
     276:	85 00 00 00 1c 00 00 00	call 28
     277:	bf a3 00 00 00 00 00 00	r3 = r10
     278:	07 03 00 00 e0 ff ff ff	r3 += -32
     279:	b7 01 00 00 00 00 00 00	r1 = 0
     280:	b7 02 00 00 00 00 00 00	r2 = 0
     281:	b7 04 00 00 08 00 00 00	r4 = 8
     282:	bf 05 00 00 00 00 00 00	r5 = r0
     283:	85 00 00 00 1c 00 00 00	call 28
     284:	07 07 00 00 0e 00 00 00	r7 += 14
     285:	b7 01 00 00 00 00 00 00	r1 = 0
     286:	b7 02 00 00 00 00 00 00	r2 = 0
     287:	bf 73 00 00 00 00 00 00	r3 = r7
     288:	b7 04 00 00 68 00 00 00	r4 = 104
     289:	bf 05 00 00 00 00 00 00	r5 = r0
     290:	85 00 00 00 1c 00 00 00	call 28
     291:	b7 02 00 00 76 00 00 00	r2 = 118
     292:	1f 92 00 00 00 00 00 00	r2 -= r9
     293:	18 01 00 00 00 00 ff ff 00 00 00 00 00 00 00 00	r1 = 4294901760 ll
     295:	bf 03 00 00 00 00 00 00	r3 = r0
     296:	5f 13 00 00 00 00 00 00	r3 &= r1
     297:	57 00 00 00 ff ff 00 00	r0 &= 65535
     298:	77 03 00 00 10 00 00 00	r3 >>= 16
     299:	0f 30 00 00 00 00 00 00	r0 += r3
     300:	bf 01 00 00 00 00 00 00	r1 = r0
     301:	77 01 00 00 10 00 00 00	r1 >>= 16
     302:	0f 01 00 00 00 00 00 00	r1 += r0
     303:	a7 01 00 00 ff ff ff ff	r1 ^= -1
     304:	6b 1a e2 ff 00 00 00 00	*(u16 *)(r10 - 30) = r1
     305:	79 a1 68 ff 00 00 00 00	r1 = *(u64 *)(r10 - 152)
     306:	85 00 00 00 41 00 00 00	call 65
     307:	67 00 00 00 20 00 00 00	r0 <<= 32
     308:	c7 00 00 00 20 00 00 00	r0 s>>= 32
     309:	6d 06 f2 01 00 00 00 00	if r6 s> r0 goto +498 <LBB1_45>
     310:	79 a1 68 ff 00 00 00 00	r1 = *(u64 *)(r10 - 152)
     311:	18 02 00 00 d0 ff ff ff 00 00 00 00 00 00 00 00	r2 = 4294967248 ll
     313:	85 00 00 00 2c 00 00 00	call 44
     314:	67 00 00 00 20 00 00 00	r0 <<= 32
     315:	c7 00 00 00 20 00 00 00	r0 s>>= 32
     316:	b7 01 00 00 00 00 00 00	r1 = 0
     317:	6d 01 ea 01 00 00 00 00	if r1 s> r0 goto +490 <LBB1_45>
     318:	79 a1 68 ff 00 00 00 00	r1 = *(u64 *)(r10 - 152)
     319:	61 12 04 00 00 00 00 00	r2 = *(u32 *)(r1 + 4)
     320:	61 11 00 00 00 00 00 00	r1 = *(u32 *)(r1 + 0)
     321:	bf 13 00 00 00 00 00 00	r3 = r1
     322:	07 03 00 00 06 00 00 00	r3 += 6
     323:	2d 23 e4 01 00 00 00 00	if r3 > r2 goto +484 <LBB1_45>
     324:	79 a2 58 ff 00 00 00 00	r2 = *(u64 *)(r10 - 168)
     325:	73 21 04 00 00 00 00 00	*(u8 *)(r1 + 4) = r2
     326:	77 02 00 00 08 00 00 00	r2 >>= 8
     327:	73 21 05 00 00 00 00 00	*(u8 *)(r1 + 5) = r2
     328:	79 a3 60 ff 00 00 00 00	r3 = *(u64 *)(r10 - 160)
     329:	bf 32 00 00 00 00 00 00	r2 = r3
     330:	77 02 00 00 18 00 00 00	r2 >>= 24
     331:	73 21 03 00 00 00 00 00	*(u8 *)(r1 + 3) = r2
     332:	bf 32 00 00 00 00 00 00	r2 = r3
     333:	77 02 00 00 10 00 00 00	r2 >>= 16
     334:	73 21 02 00 00 00 00 00	*(u8 *)(r1 + 2) = r2
     335:	73 31 00 00 00 00 00 00	*(u8 *)(r1 + 0) = r3
     336:	77 03 00 00 08 00 00 00	r3 >>= 8
     337:	73 31 01 00 00 00 00 00	*(u8 *)(r1 + 1) = r3
     338:	79 a1 68 ff 00 00 00 00	r1 = *(u64 *)(r10 - 152)
     339:	61 12 04 00 00 00 00 00	r2 = *(u32 *)(r1 + 4)
     340:	61 11 00 00 00 00 00 00	r1 = *(u32 *)(r1 + 0)
     341:	bf 13 00 00 00 00 00 00	r3 = r1
     342:	07 03 00 00 0c 00 00 00	r3 += 12
     343:	2d 23 d0 01 00 00 00 00	if r3 > r2 goto +464 <LBB1_45>
     344:	79 a2 48 ff 00 00 00 00	r2 = *(u64 *)(r10 - 184)
     345:	73 21 0a 00 00 00 00 00	*(u8 *)(r1 + 10) = r2
     346:	77 02 00 00 08 00 00 00	r2 >>= 8
     347:	73 21 0b 00 00 00 00 00	*(u8 *)(r1 + 11) = r2
     348:	79 a3 50 ff 00 00 00 00	r3 = *(u64 *)(r10 - 176)
     349:	bf 32 00 00 00 00 00 00	r2 = r3
     350:	77 02 00 00 18 00 00 00	r2 >>= 24
     351:	73 21 09 00 00 00 00 00	*(u8 *)(r1 + 9) = r2
     352:	bf 32 00 00 00 00 00 00	r2 = r3
     353:	77 02 00 00 10 00 00 00	r2 >>= 16
     354:	73 21 08 00 00 00 00 00	*(u8 *)(r1 + 8) = r2
     355:	73 31 06 00 00 00 00 00	*(u8 *)(r1 + 6) = r3
     356:	77 03 00 00 08 00 00 00	r3 >>= 8
     357:	73 31 07 00 00 00 00 00	*(u8 *)(r1 + 7) = r3
     358:	b7 03 00 00 0c 00 00 00	r3 = 12
     359:	79 a4 68 ff 00 00 00 00	r4 = *(u64 *)(r10 - 152)
     360:	61 41 00 00 00 00 00 00	r1 = *(u32 *)(r4 + 0)
     361:	61 42 04 00 00 00 00 00	r2 = *(u32 *)(r4 + 4)
     362:	57 03 00 00 ff 00 00 00	r3 &= 255
     363:	0f 31 00 00 00 00 00 00	r1 += r3
     364:	bf 14 00 00 00 00 00 00	r4 = r1
     365:	07 01 00 00 02 00 00 00	r1 += 2
     366:	2d 21 02 00 00 00 00 00	if r1 > r2 goto +2 <LBB1_30+0x428>
     367:	b7 03 00 00 00 00 00 00	r3 = 0
     368:	05 00 01 00 00 00 00 00	goto +1 <LBB1_30+0x430>
     369:	b7 03 00 00 ea ff ff ff	r3 = -22
     370:	67 03 00 00 20 00 00 00	r3 <<= 32
     371:	bf 31 00 00 00 00 00 00	r1 = r3
     372:	77 01 00 00 20 00 00 00	r1 >>= 32
     373:	55 01 c9 00 00 00 00 00	if r1 != 0 goto +201 <LBB1_38>
     374:	b7 01 00 00 86 dd 00 00	r1 = 56710
     375:	6b 14 00 00 00 00 00 00	*(u16 *)(r4 + 0) = r1
     376:	05 00 c9 00 00 00 00 00	goto +201 <LBB1_39>

0000000000000bc8 <LBB1_14>:
     377:	c7 04 00 00 20 00 00 00	r4 s>>= 32
     378:	18 09 00 00 73 ff ff ff 00 00 00 00 00 00 00 00	r9 = 4294967155 ll
     380:	b7 01 00 00 00 00 00 00	r1 = 0
     381:	6d 41 48 00 00 00 00 00	if r1 s> r4 goto +72 <LBB1_74>

0000000000000bf0 <LBB1_15>:
     382:	b7 03 00 00 26 00 00 00	r3 = 38
     383:	79 a4 68 ff 00 00 00 00	r4 = *(u64 *)(r10 - 152)
     384:	61 41 00 00 00 00 00 00	r1 = *(u32 *)(r4 + 0)
     385:	61 42 04 00 00 00 00 00	r2 = *(u32 *)(r4 + 4)
     386:	57 03 00 00 ff 00 00 00	r3 &= 255
     387:	0f 31 00 00 00 00 00 00	r1 += r3
     388:	bf 13 00 00 00 00 00 00	r3 = r1
     389:	07 01 00 00 10 00 00 00	r1 += 16
     390:	2d 21 02 00 00 00 00 00	if r1 > r2 goto +2 <LBB1_15+0x58>
     391:	b7 04 00 00 00 00 00 00	r4 = 0
     392:	05 00 01 00 00 00 00 00	goto +1 <LBB1_15+0x60>
     393:	b7 04 00 00 ea ff ff ff	r4 = -22
     394:	67 04 00 00 20 00 00 00	r4 <<= 32
     395:	bf 41 00 00 00 00 00 00	r1 = r4
     396:	77 01 00 00 20 00 00 00	r1 >>= 32
     397:	55 01 0e 00 00 00 00 00	if r1 != 0 goto +14 <LBB1_17>
     398:	79 a1 58 ff 00 00 00 00	r1 = *(u64 *)(r10 - 168)
     399:	67 01 00 00 20 00 00 00	r1 <<= 32
     400:	77 01 00 00 20 00 00 00	r1 >>= 32
     401:	79 a2 50 ff 00 00 00 00	r2 = *(u64 *)(r10 - 176)
     402:	67 02 00 00 20 00 00 00	r2 <<= 32
     403:	4f 12 00 00 00 00 00 00	r2 |= r1
     404:	7b 23 08 00 00 00 00 00	*(u64 *)(r3 + 8) = r2
     405:	79 a1 60 ff 00 00 00 00	r1 = *(u64 *)(r10 - 160)
     406:	67 01 00 00 20 00 00 00	r1 <<= 32
     407:	67 07 00 00 20 00 00 00	r7 <<= 32
     408:	77 07 00 00 20 00 00 00	r7 >>= 32
     409:	4f 71 00 00 00 00 00 00	r1 |= r7
     410:	7b 13 00 00 00 00 00 00	*(u64 *)(r3 + 0) = r1
     411:	05 00 05 00 00 00 00 00	goto +5 <LBB1_18>

0000000000000ce0 <LBB1_17>:
     412:	c7 04 00 00 20 00 00 00	r4 s>>= 32
     413:	18 09 00 00 73 ff ff ff 00 00 00 00 00 00 00 00	r9 = 4294967155 ll
     415:	b7 01 00 00 00 00 00 00	r1 = 0
     416:	6d 41 25 00 00 00 00 00	if r1 s> r4 goto +37 <LBB1_74>

0000000000000d08 <LBB1_18>:
     417:	b7 03 00 00 16 00 00 00	r3 = 22
     418:	79 a4 68 ff 00 00 00 00	r4 = *(u64 *)(r10 - 152)
     419:	61 41 00 00 00 00 00 00	r1 = *(u32 *)(r4 + 0)
     420:	61 42 04 00 00 00 00 00	r2 = *(u32 *)(r4 + 4)
     421:	57 03 00 00 ff 00 00 00	r3 &= 255
     422:	0f 31 00 00 00 00 00 00	r1 += r3
     423:	bf 14 00 00 00 00 00 00	r4 = r1
     424:	07 01 00 00 10 00 00 00	r1 += 16
     425:	2d 21 02 00 00 00 00 00	if r1 > r2 goto +2 <LBB1_18+0x58>
     426:	b7 03 00 00 00 00 00 00	r3 = 0
     427:	05 00 01 00 00 00 00 00	goto +1 <LBB1_18+0x60>
     428:	b7 03 00 00 ea ff ff ff	r3 = -22
     429:	67 03 00 00 20 00 00 00	r3 <<= 32
     430:	bf 31 00 00 00 00 00 00	r1 = r3
     431:	77 01 00 00 20 00 00 00	r1 >>= 32
     432:	55 01 07 00 00 00 00 00	if r1 != 0 goto +7 <LBB1_21>
     433:	18 01 00 00 20 01 48 98 00 00 00 00 00 30 00 21	r1 = 2377953382364610848 ll
     435:	7b 14 00 00 00 00 00 00	*(u64 *)(r4 + 0) = r1
     436:	18 01 00 00 af 61 5c 8b 00 00 00 00 1c 6c e1 5b	r1 = 6620691797064311215 ll
     438:	7b 14 08 00 00 00 00 00	*(u64 *)(r4 + 8) = r1
     439:	05 00 05 00 00 00 00 00	goto +5 <LBB1_20>

0000000000000dc0 <LBB1_21>:
     440:	c7 03 00 00 20 00 00 00	r3 s>>= 32
     441:	18 09 00 00 73 ff ff ff 00 00 00 00 00 00 00 00	r9 = 4294967155 ll
     443:	b7 01 00 00 00 00 00 00	r1 = 0
     444:	6d 31 09 00 00 00 00 00	if r1 s> r3 goto +9 <LBB1_74>

0000000000000de8 <LBB1_20>:
     445:	79 a2 68 ff 00 00 00 00	r2 = *(u64 *)(r10 - 152)
     446:	61 21 04 00 00 00 00 00	r1 = *(u32 *)(r2 + 4)
     447:	61 28 00 00 00 00 00 00	r8 = *(u32 *)(r2 + 0)
     448:	bf 82 00 00 00 00 00 00	r2 = r8
     449:	07 02 00 00 36 00 00 00	r2 += 54
     450:	18 09 00 00 7a ff ff ff 00 00 00 00 00 00 00 00	r9 = 4294967162 ll
     452:	2d 12 01 00 00 00 00 00	if r2 > r1 goto +1 <LBB1_74>
     453:	05 00 58 00 00 00 00 00	goto +88 <LBB1_59>

0000000000000e30 <LBB1_74>:
     454:	b7 06 00 00 00 00 00 00	r6 = 0
     455:	63 6a b8 ff 00 00 00 00	*(u32 *)(r10 - 72) = r6
     456:	bf a2 00 00 00 00 00 00	r2 = r10
     457:	07 02 00 00 b8 ff ff ff	r2 += -72
     458:	18 01 00 00 00 00 00 00 00 00 00 00 00 00 00 00	r1 = 0 ll
     460:	85 00 00 00 01 00 00 00	call 1
     461:	15 00 01 00 00 00 00 00	if r0 == 0 goto +1 <LBB1_76>
     462:	63 60 00 00 00 00 00 00	*(u32 *)(r0 + 0) = r6

0000000000000e78 <LBB1_76>:
     463:	63 6a b8 ff 00 00 00 00	*(u32 *)(r10 - 72) = r6
     464:	bf a2 00 00 00 00 00 00	r2 = r10
     465:	07 02 00 00 b8 ff ff ff	r2 += -72
     466:	18 01 00 00 00 00 00 00 00 00 00 00 00 00 00 00	r1 = 0 ll
     468:	85 00 00 00 01 00 00 00	call 1
     469:	15 00 02 00 00 00 00 00	if r0 == 0 goto +2 <LBB1_78>
     470:	b7 01 00 00 00 00 00 00	r1 = 0
     471:	63 10 04 00 00 00 00 00	*(u32 *)(r0 + 4) = r1

0000000000000ec0 <LBB1_78>:
     472:	b7 06 00 00 00 00 00 00	r6 = 0
     473:	63 6a b8 ff 00 00 00 00	*(u32 *)(r10 - 72) = r6
     474:	bf a2 00 00 00 00 00 00	r2 = r10
     475:	07 02 00 00 b8 ff ff ff	r2 += -72
     476:	18 01 00 00 00 00 00 00 00 00 00 00 00 00 00 00	r1 = 0 ll
     478:	85 00 00 00 01 00 00 00	call 1
     479:	15 00 01 00 00 00 00 00	if r0 == 0 goto +1 <LBB1_80>
     480:	63 90 08 00 00 00 00 00	*(u32 *)(r0 + 8) = r9

0000000000000f08 <LBB1_80>:
     481:	63 6a b8 ff 00 00 00 00	*(u32 *)(r10 - 72) = r6
     482:	bf a2 00 00 00 00 00 00	r2 = r10
     483:	07 02 00 00 b8 ff ff ff	r2 += -72
     484:	18 01 00 00 00 00 00 00 00 00 00 00 00 00 00 00	r1 = 0 ll
     486:	85 00 00 00 01 00 00 00	call 1
     487:	15 00 02 00 00 00 00 00	if r0 == 0 goto +2 <LBB1_82>
     488:	b7 01 00 00 00 00 00 00	r1 = 0
     489:	63 10 0c 00 00 00 00 00	*(u32 *)(r0 + 12) = r1

0000000000000f50 <LBB1_82>:
     490:	b7 07 00 00 00 00 00 00	r7 = 0
     491:	63 7a b8 ff 00 00 00 00	*(u32 *)(r10 - 72) = r7
     492:	bf a2 00 00 00 00 00 00	r2 = r10
     493:	07 02 00 00 b8 ff ff ff	r2 += -72
     494:	18 01 00 00 00 00 00 00 00 00 00 00 00 00 00 00	r1 = 0 ll
     496:	85 00 00 00 01 00 00 00	call 1
     497:	15 00 02 00 00 00 00 00	if r0 == 0 goto +2 <LBB1_84>
     498:	b7 01 00 00 01 00 00 00	r1 = 1
     499:	63 10 10 00 00 00 00 00	*(u32 *)(r0 + 16) = r1

0000000000000fa0 <LBB1_84>:
     500:	79 a2 68 ff 00 00 00 00	r2 = *(u64 *)(r10 - 152)
     501:	61 21 00 00 00 00 00 00	r1 = *(u32 *)(r2 + 0)
     502:	61 26 04 00 00 00 00 00	r6 = *(u32 *)(r2 + 4)
     503:	7b 7a c0 ff 00 00 00 00	*(u64 *)(r10 - 64) = r7
     504:	7b 7a b8 ff 00 00 00 00	*(u64 *)(r10 - 72) = r7
     505:	b7 02 00 00 00 02 00 00	r2 = 512
     506:	7b 2a f0 ff 00 00 00 00	*(u64 *)(r10 - 16) = r2
     507:	87 09 00 00 00 00 00 00	r9 = -r9
     508:	73 9a f0 ff 00 00 00 00	*(u8 *)(r10 - 16) = r9
     509:	1f 16 00 00 00 00 00 00	r6 -= r1
     510:	bf a2 00 00 00 00 00 00	r2 = r10
     511:	07 02 00 00 f0 ff ff ff	r2 += -16
     512:	18 01 00 00 00 00 00 00 00 00 00 00 00 00 00 00	r1 = 0 ll
     514:	85 00 00 00 01 00 00 00	call 1
     515:	15 00 07 00 00 00 00 00	if r0 == 0 goto +7 <LBB1_86>
     516:	79 01 00 00 00 00 00 00	r1 = *(u64 *)(r0 + 0)
     517:	07 01 00 00 01 00 00 00	r1 += 1
     518:	7b 10 00 00 00 00 00 00	*(u64 *)(r0 + 0) = r1
     519:	79 01 08 00 00 00 00 00	r1 = *(u64 *)(r0 + 8)
     520:	0f 61 00 00 00 00 00 00	r1 += r6
     521:	7b 10 08 00 00 00 00 00	*(u64 *)(r0 + 8) = r1
     522:	05 00 0b 00 00 00 00 00	goto +11 <LBB1_87>

0000000000001058 <LBB1_86>:
     523:	7b 6a c0 ff 00 00 00 00	*(u64 *)(r10 - 64) = r6
     524:	b7 01 00 00 01 00 00 00	r1 = 1
     525:	7b 1a b8 ff 00 00 00 00	*(u64 *)(r10 - 72) = r1
     526:	bf a2 00 00 00 00 00 00	r2 = r10
     527:	07 02 00 00 f0 ff ff ff	r2 += -16
     528:	bf a3 00 00 00 00 00 00	r3 = r10
     529:	07 03 00 00 b8 ff ff ff	r3 += -72
     530:	18 01 00 00 00 00 00 00 00 00 00 00 00 00 00 00	r1 = 0 ll
     532:	b7 04 00 00 00 00 00 00	r4 = 0
     533:	85 00 00 00 02 00 00 00	call 2

00000000000010b0 <LBB1_87>:
     534:	18 06 00 00 00 00 00 00 00 00 00 00 00 00 00 00	r6 = 0 ll
     536:	79 a7 68 ff 00 00 00 00	r7 = *(u64 *)(r10 - 152)
     537:	bf 71 00 00 00 00 00 00	r1 = r7
     538:	bf 62 00 00 00 00 00 00	r2 = r6
     539:	b7 03 00 00 01 00 00 00	r3 = 1
     540:	85 00 00 00 0c 00 00 00	call 12
     541:	05 00 61 01 00 00 00 00	goto +353 <LBB1_88>

00000000000010f0 <LBB1_59>:
     542:	bf 87 00 00 00 00 00 00	r7 = r8
     543:	07 07 00 00 26 00 00 00	r7 += 38
     544:	18 01 00 00 00 00 00 00 00 00 00 00 00 00 00 00	r1 = 0 ll
     546:	bf 72 00 00 00 00 00 00	r2 = r7
     547:	85 00 00 00 01 00 00 00	call 1
     548:	15 00 68 00 00 00 00 00	if r0 == 0 goto +104 <LBB1_68>
     549:	b7 04 00 00 00 00 00 00	r4 = 0
     550:	18 03 00 00 00 15 5d 6e 00 00 00 00 85 04 00 00	r3 = 4971128755456 ll
     552:	61 a1 78 ff 00 00 00 00	r1 = *(u32 *)(r10 - 136)
     553:	15 01 01 00 02 00 00 00	if r1 == 2 goto +1 <LBB1_62>
     554:	b7 03 00 00 00 00 00 00	r3 = 0

0000000000001158 <LBB1_62>:
     555:	79 a5 68 ff 00 00 00 00	r5 = *(u64 *)(r10 - 152)
     556:	61 51 00 00 00 00 00 00	r1 = *(u32 *)(r5 + 0)
     557:	61 52 04 00 00 00 00 00	r2 = *(u32 *)(r5 + 4)
     558:	57 04 00 00 ff 00 00 00	r4 &= 255
     559:	0f 41 00 00 00 00 00 00	r1 += r4
     560:	bf 15 00 00 00 00 00 00	r5 = r1
     561:	07 01 00 00 06 00 00 00	r1 += 6
     562:	2d 21 02 00 00 00 00 00	if r1 > r2 goto +2 <LBB1_62+0x50>
     563:	b7 04 00 00 00 00 00 00	r4 = 0
     564:	05 00 01 00 00 00 00 00	goto +1 <LBB1_62+0x58>
     565:	b7 04 00 00 ea ff ff ff	r4 = -22
     566:	67 04 00 00 20 00 00 00	r4 <<= 32
     567:	bf 41 00 00 00 00 00 00	r1 = r4
     568:	77 01 00 00 20 00 00 00	r1 >>= 32
     569:	55 01 3a 00 00 00 00 00	if r1 != 0 goto +58 <LBB1_64>
     570:	69 01 04 00 00 00 00 00	r1 = *(u16 *)(r0 + 4)
     571:	6b 15 04 00 00 00 00 00	*(u16 *)(r5 + 4) = r1
     572:	61 01 00 00 00 00 00 00	r1 = *(u32 *)(r0 + 0)
     573:	63 15 00 00 00 00 00 00	*(u32 *)(r5 + 0) = r1
     574:	05 00 3a 00 00 00 00 00	goto +58 <LBB1_65>

00000000000011f8 <LBB1_38>:
     575:	c7 03 00 00 20 00 00 00	r3 s>>= 32
     576:	b7 01 00 00 00 00 00 00	r1 = 0
     577:	6d 31 e6 00 00 00 00 00	if r1 s> r3 goto +230 <LBB1_45>

0000000000001210 <LBB1_39>:
     578:	b7 03 00 00 0e 00 00 00	r3 = 14
     579:	79 a4 68 ff 00 00 00 00	r4 = *(u64 *)(r10 - 152)
     580:	61 41 00 00 00 00 00 00	r1 = *(u32 *)(r4 + 0)
     581:	61 42 04 00 00 00 00 00	r2 = *(u32 *)(r4 + 4)
     582:	57 03 00 00 ff 00 00 00	r3 &= 255
     583:	0f 31 00 00 00 00 00 00	r1 += r3
     584:	bf 13 00 00 00 00 00 00	r3 = r1
     585:	07 01 00 00 28 00 00 00	r1 += 40
     586:	2d 21 02 00 00 00 00 00	if r1 > r2 goto +2 <LBB1_39+0x58>
     587:	b7 04 00 00 00 00 00 00	r4 = 0
     588:	05 00 01 00 00 00 00 00	goto +1 <LBB1_39+0x60>
     589:	b7 04 00 00 ea ff ff ff	r4 = -22
     590:	67 04 00 00 20 00 00 00	r4 <<= 32
     591:	bf 41 00 00 00 00 00 00	r1 = r4
     592:	77 01 00 00 20 00 00 00	r1 >>= 32
     593:	55 01 0b 00 00 00 00 00	if r1 != 0 goto +11 <LBB1_41>
     594:	79 a1 d8 ff 00 00 00 00	r1 = *(u64 *)(r10 - 40)
     595:	7b 13 20 00 00 00 00 00	*(u64 *)(r3 + 32) = r1
     596:	79 a1 d0 ff 00 00 00 00	r1 = *(u64 *)(r10 - 48)
     597:	7b 13 18 00 00 00 00 00	*(u64 *)(r3 + 24) = r1
     598:	79 a1 c8 ff 00 00 00 00	r1 = *(u64 *)(r10 - 56)
     599:	7b 13 10 00 00 00 00 00	*(u64 *)(r3 + 16) = r1
     600:	79 a1 c0 ff 00 00 00 00	r1 = *(u64 *)(r10 - 64)
     601:	7b 13 08 00 00 00 00 00	*(u64 *)(r3 + 8) = r1
     602:	79 a1 b8 ff 00 00 00 00	r1 = *(u64 *)(r10 - 72)
     603:	7b 13 00 00 00 00 00 00	*(u64 *)(r3 + 0) = r1
     604:	05 00 03 00 00 00 00 00	goto +3 <LBB1_42>

00000000000012e8 <LBB1_41>:
     605:	c7 04 00 00 20 00 00 00	r4 s>>= 32
     606:	b7 01 00 00 00 00 00 00	r1 = 0
     607:	6d 41 c8 00 00 00 00 00	if r1 s> r4 goto +200 <LBB1_45>

0000000000001300 <LBB1_42>:
     608:	b7 03 00 00 36 00 00 00	r3 = 54
     609:	79 a4 68 ff 00 00 00 00	r4 = *(u64 *)(r10 - 152)
     610:	61 41 00 00 00 00 00 00	r1 = *(u32 *)(r4 + 0)
     611:	61 42 04 00 00 00 00 00	r2 = *(u32 *)(r4 + 4)
     612:	57 03 00 00 ff 00 00 00	r3 &= 255
     613:	0f 31 00 00 00 00 00 00	r1 += r3
     614:	bf 14 00 00 00 00 00 00	r4 = r1
     615:	07 01 00 00 08 00 00 00	r1 += 8
     616:	2d 21 02 00 00 00 00 00	if r1 > r2 goto +2 <LBB1_42+0x58>
     617:	b7 03 00 00 00 00 00 00	r3 = 0
     618:	05 00 01 00 00 00 00 00	goto +1 <LBB1_42+0x60>
     619:	b7 03 00 00 ea ff ff ff	r3 = -22
     620:	67 03 00 00 20 00 00 00	r3 <<= 32
     621:	bf 31 00 00 00 00 00 00	r1 = r3
     622:	77 01 00 00 20 00 00 00	r1 >>= 32
     623:	55 01 b5 00 00 00 00 00	if r1 != 0 goto +181 <LBB1_44>
     624:	79 a1 e0 ff 00 00 00 00	r1 = *(u64 *)(r10 - 32)
     625:	7b 14 00 00 00 00 00 00	*(u64 *)(r4 + 0) = r1
     626:	b7 00 00 00 03 00 00 00	r0 = 3
     627:	05 00 0c 01 00 00 00 00	goto +268 <LBB1_89>

00000000000013a0 <LBB1_64>:
     628:	c7 04 00 00 20 00 00 00	r4 s>>= 32
     629:	18 09 00 00 73 ff ff ff 00 00 00 00 00 00 00 00	r9 = 4294967155 ll
     631:	b7 01 00 00 00 00 00 00	r1 = 0
     632:	6d 41 4d ff 00 00 00 00	if r1 s> r4 goto -179 <LBB1_74>

00000000000013c8 <LBB1_65>:
     633:	b7 04 00 00 06 00 00 00	r4 = 6
     634:	79 a5 68 ff 00 00 00 00	r5 = *(u64 *)(r10 - 152)
     635:	61 51 00 00 00 00 00 00	r1 = *(u32 *)(r5 + 0)
     636:	61 52 04 00 00 00 00 00	r2 = *(u32 *)(r5 + 4)
     637:	57 04 00 00 ff 00 00 00	r4 &= 255
     638:	0f 41 00 00 00 00 00 00	r1 += r4
     639:	bf 15 00 00 00 00 00 00	r5 = r1
     640:	07 01 00 00 06 00 00 00	r1 += 6
     641:	2d 21 02 00 00 00 00 00	if r1 > r2 goto +2 <LBB1_65+0x58>
     642:	b7 04 00 00 00 00 00 00	r4 = 0
     643:	05 00 01 00 00 00 00 00	goto +1 <LBB1_65+0x60>
     644:	b7 04 00 00 ea ff ff ff	r4 = -22
     645:	67 04 00 00 20 00 00 00	r4 <<= 32
     646:	bf 41 00 00 00 00 00 00	r1 = r4
     647:	77 01 00 00 20 00 00 00	r1 >>= 32
     648:	55 01 f8 00 00 00 00 00	if r1 != 0 goto +248 <LBB1_67>
     649:	63 35 00 00 00 00 00 00	*(u32 *)(r5 + 0) = r3
     650:	77 03 00 00 20 00 00 00	r3 >>= 32
     651:	6b 35 04 00 00 00 00 00	*(u16 *)(r5 + 4) = r3
     652:	05 00 f9 00 00 00 00 00	goto +249 <LBB1_72>

0000000000001468 <LBB1_68>:
     653:	71 82 17 00 00 00 00 00	r2 = *(u8 *)(r8 + 23)
     654:	67 02 00 00 08 00 00 00	r2 <<= 8
     655:	71 81 16 00 00 00 00 00	r1 = *(u8 *)(r8 + 22)
     656:	4f 12 00 00 00 00 00 00	r2 |= r1
     657:	71 81 19 00 00 00 00 00	r1 = *(u8 *)(r8 + 25)
     658:	67 01 00 00 08 00 00 00	r1 <<= 8
     659:	71 83 18 00 00 00 00 00	r3 = *(u8 *)(r8 + 24)
     660:	4f 31 00 00 00 00 00 00	r1 |= r3
     661:	67 01 00 00 10 00 00 00	r1 <<= 16
     662:	4f 21 00 00 00 00 00 00	r1 |= r2
     663:	71 82 1b 00 00 00 00 00	r2 = *(u8 *)(r8 + 27)
     664:	67 02 00 00 08 00 00 00	r2 <<= 8
     665:	71 83 1a 00 00 00 00 00	r3 = *(u8 *)(r8 + 26)
     666:	4f 32 00 00 00 00 00 00	r2 |= r3
     667:	71 83 1d 00 00 00 00 00	r3 = *(u8 *)(r8 + 29)
     668:	67 03 00 00 08 00 00 00	r3 <<= 8
     669:	71 84 1c 00 00 00 00 00	r4 = *(u8 *)(r8 + 28)
     670:	4f 43 00 00 00 00 00 00	r3 |= r4
     671:	67 03 00 00 10 00 00 00	r3 <<= 16
     672:	4f 23 00 00 00 00 00 00	r3 |= r2
     673:	67 03 00 00 20 00 00 00	r3 <<= 32
     674:	4f 13 00 00 00 00 00 00	r3 |= r1
     675:	7b 3a 80 ff 00 00 00 00	*(u64 *)(r10 - 128) = r3
     676:	71 82 1f 00 00 00 00 00	r2 = *(u8 *)(r8 + 31)
     677:	67 02 00 00 08 00 00 00	r2 <<= 8
     678:	71 81 1e 00 00 00 00 00	r1 = *(u8 *)(r8 + 30)
     679:	4f 12 00 00 00 00 00 00	r2 |= r1
     680:	71 81 21 00 00 00 00 00	r1 = *(u8 *)(r8 + 33)
     681:	67 01 00 00 08 00 00 00	r1 <<= 8
     682:	71 83 20 00 00 00 00 00	r3 = *(u8 *)(r8 + 32)
     683:	4f 31 00 00 00 00 00 00	r1 |= r3
     684:	67 01 00 00 10 00 00 00	r1 <<= 16
     685:	4f 21 00 00 00 00 00 00	r1 |= r2
     686:	71 82 23 00 00 00 00 00	r2 = *(u8 *)(r8 + 35)
     687:	67 02 00 00 08 00 00 00	r2 <<= 8
     688:	71 83 22 00 00 00 00 00	r3 = *(u8 *)(r8 + 34)
     689:	4f 32 00 00 00 00 00 00	r2 |= r3
     690:	71 83 25 00 00 00 00 00	r3 = *(u8 *)(r8 + 37)
     691:	67 03 00 00 08 00 00 00	r3 <<= 8
     692:	71 84 24 00 00 00 00 00	r4 = *(u8 *)(r8 + 36)
     693:	4f 43 00 00 00 00 00 00	r3 |= r4
     694:	67 03 00 00 10 00 00 00	r3 <<= 16
     695:	4f 23 00 00 00 00 00 00	r3 |= r2
     696:	67 03 00 00 20 00 00 00	r3 <<= 32
     697:	4f 13 00 00 00 00 00 00	r3 |= r1
     698:	7b 3a 88 ff 00 00 00 00	*(u64 *)(r10 - 120) = r3
     699:	71 82 27 00 00 00 00 00	r2 = *(u8 *)(r8 + 39)
     700:	67 02 00 00 08 00 00 00	r2 <<= 8
     701:	71 81 26 00 00 00 00 00	r1 = *(u8 *)(r8 + 38)
     702:	4f 12 00 00 00 00 00 00	r2 |= r1
     703:	71 81 29 00 00 00 00 00	r1 = *(u8 *)(r8 + 41)
     704:	67 01 00 00 08 00 00 00	r1 <<= 8
     705:	71 83 28 00 00 00 00 00	r3 = *(u8 *)(r8 + 40)
     706:	4f 31 00 00 00 00 00 00	r1 |= r3
     707:	67 01 00 00 10 00 00 00	r1 <<= 16
     708:	4f 21 00 00 00 00 00 00	r1 |= r2
     709:	71 82 2b 00 00 00 00 00	r2 = *(u8 *)(r8 + 43)
     710:	67 02 00 00 08 00 00 00	r2 <<= 8
     711:	71 83 2a 00 00 00 00 00	r3 = *(u8 *)(r8 + 42)
     712:	4f 32 00 00 00 00 00 00	r2 |= r3
     713:	71 83 2d 00 00 00 00 00	r3 = *(u8 *)(r8 + 45)
     714:	67 03 00 00 08 00 00 00	r3 <<= 8
     715:	71 84 2c 00 00 00 00 00	r4 = *(u8 *)(r8 + 44)
     716:	4f 43 00 00 00 00 00 00	r3 |= r4
     717:	67 03 00 00 10 00 00 00	r3 <<= 16
     718:	4f 23 00 00 00 00 00 00	r3 |= r2
     719:	67 03 00 00 20 00 00 00	r3 <<= 32
     720:	4f 13 00 00 00 00 00 00	r3 |= r1
     721:	7b 3a 90 ff 00 00 00 00	*(u64 *)(r10 - 112) = r3
     722:	71 82 2f 00 00 00 00 00	r2 = *(u8 *)(r8 + 47)
     723:	67 02 00 00 08 00 00 00	r2 <<= 8
     724:	71 81 2e 00 00 00 00 00	r1 = *(u8 *)(r8 + 46)
     725:	4f 12 00 00 00 00 00 00	r2 |= r1
     726:	71 81 31 00 00 00 00 00	r1 = *(u8 *)(r8 + 49)
     727:	67 01 00 00 08 00 00 00	r1 <<= 8
     728:	71 83 30 00 00 00 00 00	r3 = *(u8 *)(r8 + 48)
     729:	4f 31 00 00 00 00 00 00	r1 |= r3
     730:	67 01 00 00 10 00 00 00	r1 <<= 16
     731:	4f 21 00 00 00 00 00 00	r1 |= r2
     732:	71 82 33 00 00 00 00 00	r2 = *(u8 *)(r8 + 51)
     733:	67 02 00 00 08 00 00 00	r2 <<= 8
     734:	71 83 32 00 00 00 00 00	r3 = *(u8 *)(r8 + 50)
     735:	4f 32 00 00 00 00 00 00	r2 |= r3
     736:	71 83 34 00 00 00 00 00	r3 = *(u8 *)(r8 + 52)
     737:	71 84 35 00 00 00 00 00	r4 = *(u8 *)(r8 + 53)
     738:	67 04 00 00 08 00 00 00	r4 <<= 8
     739:	4f 34 00 00 00 00 00 00	r4 |= r3
     740:	67 04 00 00 10 00 00 00	r4 <<= 16
     741:	4f 24 00 00 00 00 00 00	r4 |= r2
     742:	67 04 00 00 20 00 00 00	r4 <<= 32
     743:	4f 14 00 00 00 00 00 00	r4 |= r1
     744:	7b 4a 98 ff 00 00 00 00	*(u64 *)(r10 - 104) = r4
     745:	bf a2 00 00 00 00 00 00	r2 = r10
     746:	07 02 00 00 70 ff ff ff	r2 += -144
     747:	79 a1 68 ff 00 00 00 00	r1 = *(u64 *)(r10 - 152)
     748:	b7 03 00 00 44 00 00 00	r3 = 68
     749:	b7 04 00 00 03 00 00 00	r4 = 3
     750:	85 00 00 00 45 00 00 00	call 69
     751:	18 09 00 00 57 ff ff ff 00 00 00 00 00 00 00 00	r9 = 4294967127 ll
     753:	67 00 00 00 20 00 00 00	r0 <<= 32
     754:	77 00 00 00 20 00 00 00	r0 >>= 32
     755:	55 00 d2 fe 00 00 00 00	if r0 != 0 goto -302 <LBB1_74>
     756:	bf a8 00 00 00 00 00 00	r8 = r10
     757:	07 08 00 00 aa ff ff ff	r8 += -86
     758:	18 01 00 00 00 00 00 00 00 00 00 00 00 00 00 00	r1 = 0 ll
     760:	bf 72 00 00 00 00 00 00	r2 = r7
     761:	bf 83 00 00 00 00 00 00	r3 = r8
     762:	b7 04 00 00 00 00 00 00	r4 = 0
     763:	85 00 00 00 02 00 00 00	call 2
     764:	18 09 00 00 73 ff ff ff 00 00 00 00 00 00 00 00	r9 = 4294967155 ll
     766:	79 a1 68 ff 00 00 00 00	r1 = *(u64 *)(r10 - 152)
     767:	61 12 04 00 00 00 00 00	r2 = *(u32 *)(r1 + 4)
     768:	61 11 00 00 00 00 00 00	r1 = *(u32 *)(r1 + 0)
     769:	bf 13 00 00 00 00 00 00	r3 = r1
     770:	07 03 00 00 06 00 00 00	r3 += 6
     771:	2d 23 c2 fe 00 00 00 00	if r3 > r2 goto -318 <LBB1_74>
     772:	71 82 05 00 00 00 00 00	r2 = *(u8 *)(r8 + 5)
     773:	73 21 05 00 00 00 00 00	*(u8 *)(r1 + 5) = r2
     774:	71 82 04 00 00 00 00 00	r2 = *(u8 *)(r8 + 4)
     775:	73 21 04 00 00 00 00 00	*(u8 *)(r1 + 4) = r2
     776:	71 82 03 00 00 00 00 00	r2 = *(u8 *)(r8 + 3)
     777:	73 21 03 00 00 00 00 00	*(u8 *)(r1 + 3) = r2
     778:	71 82 02 00 00 00 00 00	r2 = *(u8 *)(r8 + 2)
     779:	73 21 02 00 00 00 00 00	*(u8 *)(r1 + 2) = r2
     780:	71 82 01 00 00 00 00 00	r2 = *(u8 *)(r8 + 1)
     781:	73 21 01 00 00 00 00 00	*(u8 *)(r1 + 1) = r2
     782:	71 82 00 00 00 00 00 00	r2 = *(u8 *)(r8 + 0)
     783:	73 21 00 00 00 00 00 00	*(u8 *)(r1 + 0) = r2
     784:	79 a1 68 ff 00 00 00 00	r1 = *(u64 *)(r10 - 152)
     785:	61 12 04 00 00 00 00 00	r2 = *(u32 *)(r1 + 4)
     786:	61 11 00 00 00 00 00 00	r1 = *(u32 *)(r1 + 0)
     787:	bf 13 00 00 00 00 00 00	r3 = r1
     788:	07 03 00 00 0c 00 00 00	r3 += 12
     789:	2d 23 b0 fe 00 00 00 00	if r3 > r2 goto -336 <LBB1_74>
     790:	69 a2 a8 ff 00 00 00 00	r2 = *(u16 *)(r10 - 88)
     791:	73 21 0a 00 00 00 00 00	*(u8 *)(r1 + 10) = r2
     792:	77 02 00 00 08 00 00 00	r2 >>= 8
     793:	73 21 0b 00 00 00 00 00	*(u8 *)(r1 + 11) = r2
     794:	61 a2 a4 ff 00 00 00 00	r2 = *(u32 *)(r10 - 92)
     795:	bf 23 00 00 00 00 00 00	r3 = r2
     796:	77 03 00 00 18 00 00 00	r3 >>= 24
     797:	73 31 09 00 00 00 00 00	*(u8 *)(r1 + 9) = r3
     798:	bf 23 00 00 00 00 00 00	r3 = r2
     799:	77 03 00 00 10 00 00 00	r3 >>= 16
     800:	73 31 08 00 00 00 00 00	*(u8 *)(r1 + 8) = r3
     801:	73 21 06 00 00 00 00 00	*(u8 *)(r1 + 6) = r2
     802:	77 02 00 00 08 00 00 00	r2 >>= 8
     803:	73 21 07 00 00 00 00 00	*(u8 *)(r1 + 7) = r2
     804:	05 00 61 00 00 00 00 00	goto +97 <LBB1_72>

0000000000001928 <LBB1_44>:
     805:	c7 03 00 00 20 00 00 00	r3 s>>= 32
     806:	b7 00 00 00 03 00 00 00	r0 = 3
     807:	65 03 58 00 ff ff ff ff	if r3 s> -1 goto +88 <LBB1_89>

0000000000001940 <LBB1_45>:
     808:	b7 06 00 00 00 00 00 00	r6 = 0
     809:	63 6a f0 ff 00 00 00 00	*(u32 *)(r10 - 16) = r6
     810:	bf a2 00 00 00 00 00 00	r2 = r10
     811:	07 02 00 00 f0 ff ff ff	r2 += -16
     812:	18 01 00 00 00 00 00 00 00 00 00 00 00 00 00 00	r1 = 0 ll
     814:	85 00 00 00 01 00 00 00	call 1
     815:	15 00 01 00 00 00 00 00	if r0 == 0 goto +1 <LBB1_47>
     816:	63 60 00 00 00 00 00 00	*(u32 *)(r0 + 0) = r6

0000000000001988 <LBB1_47>:
     817:	63 6a f0 ff 00 00 00 00	*(u32 *)(r10 - 16) = r6
     818:	bf a2 00 00 00 00 00 00	r2 = r10
     819:	07 02 00 00 f0 ff ff ff	r2 += -16
     820:	18 01 00 00 00 00 00 00 00 00 00 00 00 00 00 00	r1 = 0 ll
     822:	85 00 00 00 01 00 00 00	call 1
     823:	15 00 02 00 00 00 00 00	if r0 == 0 goto +2 <LBB1_49>
     824:	b7 01 00 00 00 00 00 00	r1 = 0
     825:	63 10 04 00 00 00 00 00	*(u32 *)(r0 + 4) = r1

00000000000019d0 <LBB1_49>:
     826:	b7 06 00 00 00 00 00 00	r6 = 0
     827:	63 6a f0 ff 00 00 00 00	*(u32 *)(r10 - 16) = r6
     828:	bf a2 00 00 00 00 00 00	r2 = r10
     829:	07 02 00 00 f0 ff ff ff	r2 += -16
     830:	18 01 00 00 00 00 00 00 00 00 00 00 00 00 00 00	r1 = 0 ll
     832:	85 00 00 00 01 00 00 00	call 1
     833:	15 00 03 00 00 00 00 00	if r0 == 0 goto +3 <LBB1_51>
     834:	18 01 00 00 78 ff ff ff 00 00 00 00 00 00 00 00	r1 = 4294967160 ll
     836:	63 10 08 00 00 00 00 00	*(u32 *)(r0 + 8) = r1

0000000000001a28 <LBB1_51>:
     837:	63 6a f0 ff 00 00 00 00	*(u32 *)(r10 - 16) = r6
     838:	bf a2 00 00 00 00 00 00	r2 = r10
     839:	07 02 00 00 f0 ff ff ff	r2 += -16
     840:	18 01 00 00 00 00 00 00 00 00 00 00 00 00 00 00	r1 = 0 ll
     842:	85 00 00 00 01 00 00 00	call 1
     843:	15 00 02 00 00 00 00 00	if r0 == 0 goto +2 <LBB1_53>
     844:	b7 01 00 00 00 00 00 00	r1 = 0
     845:	63 10 0c 00 00 00 00 00	*(u32 *)(r0 + 12) = r1

0000000000001a70 <LBB1_53>:
     846:	b7 07 00 00 00 00 00 00	r7 = 0
     847:	63 7a f0 ff 00 00 00 00	*(u32 *)(r10 - 16) = r7
     848:	bf a2 00 00 00 00 00 00	r2 = r10
     849:	07 02 00 00 f0 ff ff ff	r2 += -16
     850:	18 01 00 00 00 00 00 00 00 00 00 00 00 00 00 00	r1 = 0 ll
     852:	85 00 00 00 01 00 00 00	call 1
     853:	15 00 02 00 00 00 00 00	if r0 == 0 goto +2 <LBB1_55>
     854:	b7 01 00 00 01 00 00 00	r1 = 1
     855:	63 10 10 00 00 00 00 00	*(u32 *)(r0 + 16) = r1

0000000000001ac0 <LBB1_55>:
     856:	79 a2 68 ff 00 00 00 00	r2 = *(u64 *)(r10 - 152)
     857:	61 21 00 00 00 00 00 00	r1 = *(u32 *)(r2 + 0)
     858:	61 26 04 00 00 00 00 00	r6 = *(u32 *)(r2 + 4)
     859:	7b 7a f8 ff 00 00 00 00	*(u64 *)(r10 - 8) = r7
     860:	7b 7a f0 ff 00 00 00 00	*(u64 *)(r10 - 16) = r7
     861:	b7 02 00 00 88 02 00 00	r2 = 648
     862:	7b 2a e8 ff 00 00 00 00	*(u64 *)(r10 - 24) = r2
     863:	1f 16 00 00 00 00 00 00	r6 -= r1
     864:	bf a2 00 00 00 00 00 00	r2 = r10
     865:	07 02 00 00 e8 ff ff ff	r2 += -24
     866:	18 01 00 00 00 00 00 00 00 00 00 00 00 00 00 00	r1 = 0 ll
     868:	85 00 00 00 01 00 00 00	call 1
     869:	15 00 07 00 00 00 00 00	if r0 == 0 goto +7 <LBB1_57>
     870:	79 01 00 00 00 00 00 00	r1 = *(u64 *)(r0 + 0)
     871:	07 01 00 00 01 00 00 00	r1 += 1
     872:	7b 10 00 00 00 00 00 00	*(u64 *)(r0 + 0) = r1
     873:	79 01 08 00 00 00 00 00	r1 = *(u64 *)(r0 + 8)
     874:	0f 61 00 00 00 00 00 00	r1 += r6
     875:	7b 10 08 00 00 00 00 00	*(u64 *)(r0 + 8) = r1
     876:	05 00 0b 00 00 00 00 00	goto +11 <LBB1_58>

0000000000001b68 <LBB1_57>:
     877:	7b 6a f8 ff 00 00 00 00	*(u64 *)(r10 - 8) = r6
     878:	b7 01 00 00 01 00 00 00	r1 = 1
     879:	7b 1a f0 ff 00 00 00 00	*(u64 *)(r10 - 16) = r1
     880:	bf a2 00 00 00 00 00 00	r2 = r10
     881:	07 02 00 00 e8 ff ff ff	r2 += -24
     882:	bf a3 00 00 00 00 00 00	r3 = r10
     883:	07 03 00 00 f0 ff ff ff	r3 += -16
     884:	18 01 00 00 00 00 00 00 00 00 00 00 00 00 00 00	r1 = 0 ll
     886:	b7 04 00 00 00 00 00 00	r4 = 0
     887:	85 00 00 00 02 00 00 00	call 2

0000000000001bc0 <LBB1_58>:
     888:	18 06 00 00 00 00 00 00 00 00 00 00 00 00 00 00	r6 = 0 ll
     890:	79 a7 68 ff 00 00 00 00	r7 = *(u64 *)(r10 - 152)
     891:	bf 71 00 00 00 00 00 00	r1 = r7
     892:	bf 62 00 00 00 00 00 00	r2 = r6
     893:	b7 03 00 00 01 00 00 00	r3 = 1
     894:	85 00 00 00 0c 00 00 00	call 12

0000000000001bf8 <LBB1_88>:
     895:	b7 00 00 00 01 00 00 00	r0 = 1

0000000000001c00 <LBB1_89>:
     896:	95 00 00 00 00 00 00 00	exit

0000000000001c08 <LBB1_67>:
     897:	c7 04 00 00 20 00 00 00	r4 s>>= 32
     898:	18 09 00 00 73 ff ff ff 00 00 00 00 00 00 00 00	r9 = 4294967155 ll
     900:	b7 01 00 00 00 00 00 00	r1 = 0
     901:	6d 41 40 fe 00 00 00 00	if r1 s> r4 goto -448 <LBB1_74>

0000000000001c30 <LBB1_72>:
     902:	79 a1 68 ff 00 00 00 00	r1 = *(u64 *)(r10 - 152)
     903:	61 11 0c 00 00 00 00 00	r1 = *(u32 *)(r1 + 12)
     904:	b7 00 00 00 03 00 00 00	r0 = 3
     905:	61 a2 78 ff 00 00 00 00	r2 = *(u32 *)(r10 - 136)
     906:	1d 21 f5 ff 00 00 00 00	if r1 == r2 goto -11 <LBB1_89>
     907:	b7 00 00 00 f4 fd ff ff	r0 = -524
     908:	05 00 f3 ff 00 00 00 00	goto -13 <LBB1_89>

Disassembly of section 2/16:

0000000000000000 <tail_nodeport_nat_ipv6>:
       0:	7b 1a e8 fe 00 00 00 00	*(u64 *)(r10 - 280) = r1
       1:	b7 06 00 00 00 00 00 00	r6 = 0
       2:	63 6a f0 fe 00 00 00 00	*(u32 *)(r10 - 272) = r6
       3:	bf a2 00 00 00 00 00 00	r2 = r10
       4:	07 02 00 00 f0 fe ff ff	r2 += -272
       5:	18 01 00 00 00 00 00 00 00 00 00 00 00 00 00 00	r1 = 0 ll
       7:	85 00 00 00 01 00 00 00	call 1
       8:	b7 09 00 00 00 00 00 00	r9 = 0
       9:	15 00 01 00 00 00 00 00	if r0 == 0 goto +1 <LBB2_2>
      10:	61 09 0c 00 00 00 00 00	r9 = *(u32 *)(r0 + 12)

0000000000000058 <LBB2_2>:
      11:	7b 6a f8 fe 00 00 00 00	*(u64 *)(r10 - 264) = r6
      12:	b7 01 00 00 02 00 00 00	r1 = 2
      13:	63 1a f8 fe 00 00 00 00	*(u32 *)(r10 - 264) = r1
      14:	7b 6a f0 fe 00 00 00 00	*(u64 *)(r10 - 272) = r6
      15:	b7 01 00 00 0a 00 00 00	r1 = 10
      16:	73 1a f0 fe 00 00 00 00	*(u8 *)(r10 - 272) = r1
      17:	63 6a 30 ff 00 00 00 00	*(u32 *)(r10 - 208) = r6
      18:	7b 6a 28 ff 00 00 00 00	*(u64 *)(r10 - 216) = r6
      19:	7b 6a 20 ff 00 00 00 00	*(u64 *)(r10 - 224) = r6
      20:	7b 6a 18 ff 00 00 00 00	*(u64 *)(r10 - 232) = r6
      21:	7b 6a 10 ff 00 00 00 00	*(u64 *)(r10 - 240) = r6
      22:	7b 6a 08 ff 00 00 00 00	*(u64 *)(r10 - 248) = r6
      23:	7b 6a 00 ff 00 00 00 00	*(u64 *)(r10 - 256) = r6
      24:	6b 6a 5c ff 00 00 00 00	*(u16 *)(r10 - 164) = r6
      25:	63 6a 58 ff 00 00 00 00	*(u32 *)(r10 - 168) = r6
      26:	7b 6a 50 ff 00 00 00 00	*(u64 *)(r10 - 176) = r6
      27:	7b 6a 48 ff 00 00 00 00	*(u64 *)(r10 - 184) = r6
      28:	7b 6a 40 ff 00 00 00 00	*(u64 *)(r10 - 192) = r6
      29:	7b 6a 38 ff 00 00 00 00	*(u64 *)(r10 - 200) = r6
      30:	79 a2 e8 fe 00 00 00 00	r2 = *(u64 *)(r10 - 280)
      31:	61 21 04 00 00 00 00 00	r1 = *(u32 *)(r2 + 4)
      32:	61 23 00 00 00 00 00 00	r3 = *(u32 *)(r2 + 0)
      33:	bf 32 00 00 00 00 00 00	r2 = r3
      34:	07 02 00 00 36 00 00 00	r2 += 54
      35:	18 06 00 00 7a ff ff ff 00 00 00 00 00 00 00 00	r6 = 4294967162 ll
      37:	2d 12 b0 21 00 00 00 00	if r2 > r1 goto +8624 <LBB2_842>
      38:	b7 01 00 00 28 00 00 00	r1 = 40
      39:	7b 1a e0 fe 00 00 00 00	*(u64 *)(r10 - 288) = r1
      40:	71 34 14 00 00 00 00 00	r4 = *(u8 *)(r3 + 20)
      41:	25 04 22 00 3c 00 00 00	if r4 > 60 goto +34 <LBB2_36>
      42:	b7 01 00 00 01 00 00 00	r1 = 1
      43:	6f 41 00 00 00 00 00 00	r1 <<= r4
      44:	18 02 00 00 01 00 00 00 00 00 00 00 00 08 08 10	r2 = 1155182100513554433 ll
      46:	5f 21 00 00 00 00 00 00	r1 &= r2
      47:	55 01 05 00 00 00 00 00	if r1 != 0 goto +5 <LBB2_7>
      48:	15 04 ab 01 2c 00 00 00	if r4 == 44 goto +427 <LBB2_15>
      49:	18 06 00 00 64 ff ff ff 00 00 00 00 00 00 00 00	r6 = 4294967140 ll
      51:	15 04 a2 21 3b 00 00 00	if r4 == 59 goto +8610 <LBB2_842>
      52:	05 00 17 00 00 00 00 00	goto +23 <LBB2_36>

00000000000001a8 <LBB2_7>:
      53:	b7 04 00 00 36 00 00 00	r4 = 54
      54:	79 a5 e8 fe 00 00 00 00	r5 = *(u64 *)(r10 - 280)
      55:	61 51 00 00 00 00 00 00	r1 = *(u32 *)(r5 + 0)
      56:	61 52 04 00 00 00 00 00	r2 = *(u32 *)(r5 + 4)
      57:	57 04 00 00 ff 00 00 00	r4 &= 255
      58:	0f 41 00 00 00 00 00 00	r1 += r4
      59:	bf 14 00 00 00 00 00 00	r4 = r1
      60:	07 01 00 00 02 00 00 00	r1 += 2
      61:	2d 21 02 00 00 00 00 00	if r1 > r2 goto +2 <LBB2_7+0x58>
      62:	b7 05 00 00 00 00 00 00	r5 = 0
      63:	05 00 01 00 00 00 00 00	goto +1 <LBB2_7+0x60>
      64:	b7 05 00 00 ea ff ff ff	r5 = -22
      65:	67 05 00 00 20 00 00 00	r5 <<= 32
      66:	bf 51 00 00 00 00 00 00	r1 = r5
      67:	77 01 00 00 20 00 00 00	r1 >>= 32
      68:	15 01 88 00 00 00 00 00	if r1 == 0 goto +136 <LBB2_9>
      69:	c7 05 00 00 20 00 00 00	r5 s>>= 32
      70:	b7 01 00 00 30 00 00 00	r1 = 48
      71:	7b 1a e0 fe 00 00 00 00	*(u64 *)(r10 - 288) = r1
      72:	b7 01 00 00 00 00 00 00	r1 = 0
      73:	18 06 00 00 7a ff ff ff 00 00 00 00 00 00 00 00	r6 = 4294967162 ll
      75:	6d 51 8a 21 00 00 00 00	if r1 s> r5 goto +8586 <LBB2_842>

0000000000000260 <LBB2_36>:
      76:	bf 31 00 00 00 00 00 00	r1 = r3
      77:	07 01 00 00 0e 00 00 00	r1 += 14
      78:	73 4a 5c ff 00 00 00 00	*(u8 *)(r10 - 164) = r4
      79:	71 35 27 00 00 00 00 00	r5 = *(u8 *)(r3 + 39)
      80:	67 05 00 00 08 00 00 00	r5 <<= 8
      81:	71 32 26 00 00 00 00 00	r2 = *(u8 *)(r3 + 38)
      82:	4f 25 00 00 00 00 00 00	r5 |= r2
      83:	71 32 29 00 00 00 00 00	r2 = *(u8 *)(r3 + 41)
      84:	67 02 00 00 08 00 00 00	r2 <<= 8
      85:	71 30 28 00 00 00 00 00	r0 = *(u8 *)(r3 + 40)
      86:	4f 02 00 00 00 00 00 00	r2 |= r0
      87:	67 02 00 00 10 00 00 00	r2 <<= 16
      88:	4f 52 00 00 00 00 00 00	r2 |= r5
      89:	71 35 2b 00 00 00 00 00	r5 = *(u8 *)(r3 + 43)
      90:	67 05 00 00 08 00 00 00	r5 <<= 8
      91:	71 30 2a 00 00 00 00 00	r0 = *(u8 *)(r3 + 42)
      92:	4f 05 00 00 00 00 00 00	r5 |= r0
      93:	71 30 2d 00 00 00 00 00	r0 = *(u8 *)(r3 + 45)
      94:	67 00 00 00 08 00 00 00	r0 <<= 8
      95:	71 36 2c 00 00 00 00 00	r6 = *(u8 *)(r3 + 44)
      96:	4f 60 00 00 00 00 00 00	r0 |= r6
      97:	67 00 00 00 10 00 00 00	r0 <<= 16
      98:	4f 50 00 00 00 00 00 00	r0 |= r5
      99:	1f 31 00 00 00 00 00 00	r1 -= r3
     100:	67 00 00 00 20 00 00 00	r0 <<= 32
     101:	4f 20 00 00 00 00 00 00	r0 |= r2
     102:	79 a2 e0 fe 00 00 00 00	r2 = *(u64 *)(r10 - 288)
     103:	0f 12 00 00 00 00 00 00	r2 += r1
     104:	7b 2a e0 fe 00 00 00 00	*(u64 *)(r10 - 288) = r2
     105:	7b 0a 38 ff 00 00 00 00	*(u64 *)(r10 - 200) = r0
     106:	71 32 2f 00 00 00 00 00	r2 = *(u8 *)(r3 + 47)
     107:	67 02 00 00 08 00 00 00	r2 <<= 8
     108:	71 31 2e 00 00 00 00 00	r1 = *(u8 *)(r3 + 46)
     109:	4f 12 00 00 00 00 00 00	r2 |= r1
     110:	71 31 31 00 00 00 00 00	r1 = *(u8 *)(r3 + 49)
     111:	67 01 00 00 08 00 00 00	r1 <<= 8
     112:	71 35 30 00 00 00 00 00	r5 = *(u8 *)(r3 + 48)
     113:	4f 51 00 00 00 00 00 00	r1 |= r5
     114:	67 01 00 00 10 00 00 00	r1 <<= 16
     115:	4f 21 00 00 00 00 00 00	r1 |= r2
     116:	71 32 33 00 00 00 00 00	r2 = *(u8 *)(r3 + 51)
     117:	67 02 00 00 08 00 00 00	r2 <<= 8
     118:	71 35 32 00 00 00 00 00	r5 = *(u8 *)(r3 + 50)
     119:	4f 52 00 00 00 00 00 00	r2 |= r5
     120:	71 35 35 00 00 00 00 00	r5 = *(u8 *)(r3 + 53)
     121:	67 05 00 00 08 00 00 00	r5 <<= 8
     122:	71 30 34 00 00 00 00 00	r0 = *(u8 *)(r3 + 52)
     123:	4f 05 00 00 00 00 00 00	r5 |= r0
     124:	67 05 00 00 10 00 00 00	r5 <<= 16
     125:	4f 25 00 00 00 00 00 00	r5 |= r2
     126:	67 05 00 00 20 00 00 00	r5 <<= 32
     127:	4f 15 00 00 00 00 00 00	r5 |= r1
     128:	7b 5a 40 ff 00 00 00 00	*(u64 *)(r10 - 192) = r5
     129:	71 32 17 00 00 00 00 00	r2 = *(u8 *)(r3 + 23)
     130:	67 02 00 00 08 00 00 00	r2 <<= 8
     131:	71 31 16 00 00 00 00 00	r1 = *(u8 *)(r3 + 22)
     132:	4f 12 00 00 00 00 00 00	r2 |= r1
     133:	71 31 19 00 00 00 00 00	r1 = *(u8 *)(r3 + 25)
     134:	67 01 00 00 08 00 00 00	r1 <<= 8
     135:	71 35 18 00 00 00 00 00	r5 = *(u8 *)(r3 + 24)
     136:	4f 51 00 00 00 00 00 00	r1 |= r5
     137:	67 01 00 00 10 00 00 00	r1 <<= 16
     138:	4f 21 00 00 00 00 00 00	r1 |= r2
     139:	71 32 1b 00 00 00 00 00	r2 = *(u8 *)(r3 + 27)
     140:	67 02 00 00 08 00 00 00	r2 <<= 8
     141:	71 35 1a 00 00 00 00 00	r5 = *(u8 *)(r3 + 26)
     142:	4f 52 00 00 00 00 00 00	r2 |= r5
     143:	71 35 1d 00 00 00 00 00	r5 = *(u8 *)(r3 + 29)
     144:	67 05 00 00 08 00 00 00	r5 <<= 8
     145:	71 30 1c 00 00 00 00 00	r0 = *(u8 *)(r3 + 28)
     146:	4f 05 00 00 00 00 00 00	r5 |= r0
     147:	67 05 00 00 10 00 00 00	r5 <<= 16
     148:	4f 25 00 00 00 00 00 00	r5 |= r2
     149:	67 05 00 00 20 00 00 00	r5 <<= 32
     150:	4f 15 00 00 00 00 00 00	r5 |= r1
     151:	7b 5a 48 ff 00 00 00 00	*(u64 *)(r10 - 184) = r5
     152:	71 32 1f 00 00 00 00 00	r2 = *(u8 *)(r3 + 31)
     153:	67 02 00 00 08 00 00 00	r2 <<= 8
     154:	71 31 1e 00 00 00 00 00	r1 = *(u8 *)(r3 + 30)
     155:	4f 12 00 00 00 00 00 00	r2 |= r1
     156:	71 31 21 00 00 00 00 00	r1 = *(u8 *)(r3 + 33)
     157:	67 01 00 00 08 00 00 00	r1 <<= 8
     158:	71 35 20 00 00 00 00 00	r5 = *(u8 *)(r3 + 32)
     159:	4f 51 00 00 00 00 00 00	r1 |= r5
     160:	67 01 00 00 10 00 00 00	r1 <<= 16
     161:	4f 21 00 00 00 00 00 00	r1 |= r2
     162:	71 32 23 00 00 00 00 00	r2 = *(u8 *)(r3 + 35)
     163:	67 02 00 00 08 00 00 00	r2 <<= 8
     164:	71 35 22 00 00 00 00 00	r5 = *(u8 *)(r3 + 34)
     165:	4f 52 00 00 00 00 00 00	r2 |= r5
     166:	71 35 24 00 00 00 00 00	r5 = *(u8 *)(r3 + 36)
     167:	71 33 25 00 00 00 00 00	r3 = *(u8 *)(r3 + 37)
     168:	67 03 00 00 08 00 00 00	r3 <<= 8
     169:	4f 53 00 00 00 00 00 00	r3 |= r5
     170:	67 03 00 00 10 00 00 00	r3 <<= 16
     171:	4f 23 00 00 00 00 00 00	r3 |= r2
     172:	67 03 00 00 20 00 00 00	r3 <<= 32
     173:	4f 13 00 00 00 00 00 00	r3 |= r1
     174:	73 9a 5d ff 00 00 00 00	*(u8 *)(r10 - 163) = r9
     175:	7b 3a 50 ff 00 00 00 00	*(u64 *)(r10 - 176) = r3
     176:	57 04 00 00 ff 00 00 00	r4 &= 255
     177:	15 04 04 00 06 00 00 00	if r4 == 6 goto +4 <LBB2_39>
     178:	15 04 5c 00 3a 00 00 00	if r4 == 58 goto +92 <LBB2_42>
     179:	18 06 00 00 53 ff ff ff 00 00 00 00 00 00 00 00	r6 = 4294967123 ll
     181:	55 04 20 21 11 00 00 00	if r4 != 17 goto +8480 <LBB2_842>

00000000000005b0 <LBB2_39>:
     182:	79 a3 e0 fe 00 00 00 00	r3 = *(u64 *)(r10 - 288)
     183:	67 03 00 00 20 00 00 00	r3 <<= 32
     184:	77 03 00 00 20 00 00 00	r3 >>= 32
     185:	79 a4 e8 fe 00 00 00 00	r4 = *(u64 *)(r10 - 280)
     186:	61 41 00 00 00 00 00 00	r1 = *(u32 *)(r4 + 0)
     187:	61 42 04 00 00 00 00 00	r2 = *(u32 *)(r4 + 4)
     188:	57 03 00 00 ff 00 00 00	r3 &= 255
     189:	0f 31 00 00 00 00 00 00	r1 += r3
     190:	bf 13 00 00 00 00 00 00	r3 = r1
     191:	07 01 00 00 04 00 00 00	r1 += 4
     192:	2d 21 02 00 00 00 00 00	if r1 > r2 goto +2 <LBB2_39+0x68>
     193:	b7 04 00 00 00 00 00 00	r4 = 0
     194:	05 00 01 00 00 00 00 00	goto +1 <LBB2_39+0x70>
     195:	b7 04 00 00 ea ff ff ff	r4 = -22
     196:	67 04 00 00 20 00 00 00	r4 <<= 32
     197:	bf 41 00 00 00 00 00 00	r1 = r4
     198:	77 01 00 00 20 00 00 00	r1 >>= 32
     199:	55 01 1e 00 00 00 00 00	if r1 != 0 goto +30 <LBB2_41>
     200:	b7 02 00 00 00 00 00 00	r2 = 0
     201:	61 31 00 00 00 00 00 00	r1 = *(u32 *)(r3 + 0)
     202:	bf 13 00 00 00 00 00 00	r3 = r1
     203:	77 03 00 00 10 00 00 00	r3 >>= 16
     204:	05 00 1e 00 00 00 00 00	goto +30 <LBB2_49>

0000000000000668 <LBB2_9>:
     205:	69 44 00 00 00 00 00 00	r4 = *(u16 *)(r4 + 0)
     206:	bf 41 00 00 00 00 00 00	r1 = r4
     207:	57 01 00 00 ff 00 00 00	r1 &= 255
     208:	b7 02 00 00 02 00 00 00	r2 = 2
     209:	15 01 01 00 33 00 00 00	if r1 == 51 goto +1 <LBB2_11>
     210:	b7 02 00 00 03 00 00 00	r2 = 3

0000000000000698 <LBB2_11>:
     211:	bf 40 00 00 00 00 00 00	r0 = r4
     212:	77 00 00 00 08 00 00 00	r0 >>= 8
     213:	bf 05 00 00 00 00 00 00	r5 = r0
     214:	6f 25 00 00 00 00 00 00	r5 <<= r2
     215:	bf 52 00 00 00 00 00 00	r2 = r5
     216:	07 02 00 00 30 00 00 00	r2 += 48
     217:	7b 2a e0 fe 00 00 00 00	*(u64 *)(r10 - 288) = r2
     218:	25 01 71 ff 3c 00 00 00	if r1 > 60 goto -143 <LBB2_36>
     219:	b7 02 00 00 01 00 00 00	r2 = 1
     220:	6f 12 00 00 00 00 00 00	r2 <<= r1
     221:	18 06 00 00 01 00 00 00 00 00 00 00 00 08 08 10	r6 = 1155182100513554433 ll
     223:	5f 62 00 00 00 00 00 00	r2 &= r6
     224:	55 02 15 00 00 00 00 00	if r2 != 0 goto +21 <LBB2_16>
     225:	15 01 fa 00 2c 00 00 00	if r1 == 44 goto +250 <LBB2_15>
     226:	18 06 00 00 64 ff ff ff 00 00 00 00 00 00 00 00	r6 = 4294967140 ll
     228:	15 01 f1 20 3b 00 00 00	if r1 == 59 goto +8433 <LBB2_842>
     229:	05 00 66 ff 00 00 00 00	goto -154 <LBB2_36>

0000000000000730 <LBB2_41>:
     230:	c7 04 00 00 20 00 00 00	r4 s>>= 32
     231:	b7 02 00 00 00 00 00 00	r2 = 0
     232:	18 06 00 00 7a ff ff ff 00 00 00 00 00 00 00 00	r6 = 4294967162 ll
     234:	6d 42 eb 20 00 00 00 00	if r2 s> r4 goto +8427 <LBB2_842>

0000000000000758 <LBB2_49>:
     235:	6b 1a 5a ff 00 00 00 00	*(u16 *)(r10 - 166) = r1
     236:	6b 3a 58 ff 00 00 00 00	*(u16 *)(r10 - 168) = r3
     237:	bf 91 00 00 00 00 00 00	r1 = r9
     238:	67 01 00 00 20 00 00 00	r1 <<= 32
     239:	77 01 00 00 20 00 00 00	r1 >>= 32
     240:	15 01 36 00 01 00 00 00	if r1 == 1 goto +54 <LBB2_52>
     241:	55 01 39 00 00 00 00 00	if r1 != 0 goto +57 <LBB2_53>
     242:	18 06 00 00 53 ff ff ff 00 00 00 00 00 00 00 00	r6 = 4294967123 ll
     244:	55 02 e1 20 00 00 00 00	if r2 != 0 goto +8417 <LBB2_842>
     245:	05 00 35 00 00 00 00 00	goto +53 <LBB2_53>

00000000000007b0 <LBB2_16>:
     246:	bf 56 00 00 00 00 00 00	r6 = r5
     247:	07 06 00 00 3e 00 00 00	r6 += 62
     248:	67 06 00 00 20 00 00 00	r6 <<= 32
     249:	77 06 00 00 20 00 00 00	r6 >>= 32
     250:	79 a7 e8 fe 00 00 00 00	r7 = *(u64 *)(r10 - 280)
     251:	61 71 00 00 00 00 00 00	r1 = *(u32 *)(r7 + 0)
     252:	61 72 04 00 00 00 00 00	r2 = *(u32 *)(r7 + 4)
     253:	57 06 00 00 ff 00 00 00	r6 &= 255
     254:	0f 61 00 00 00 00 00 00	r1 += r6
     255:	bf 16 00 00 00 00 00 00	r6 = r1
     256:	07 01 00 00 02 00 00 00	r1 += 2
     257:	2d 21 02 00 00 00 00 00	if r1 > r2 goto +2 <LBB2_16+0x70>
     258:	b7 07 00 00 00 00 00 00	r7 = 0
     259:	05 00 01 00 00 00 00 00	goto +1 <LBB2_16+0x78>
     260:	b7 07 00 00 ea ff ff ff	r7 = -22
     261:	67 07 00 00 20 00 00 00	r7 <<= 32
     262:	bf 71 00 00 00 00 00 00	r1 = r7
     263:	77 01 00 00 20 00 00 00	r1 >>= 32
     264:	15 01 2e 00 00 00 00 00	if r1 == 0 goto +46 <LBB2_18>
     265:	c7 07 00 00 20 00 00 00	r7 s>>= 32
     266:	b7 01 00 00 00 00 00 00	r1 = 0
     267:	18 06 00 00 7a ff ff ff 00 00 00 00 00 00 00 00	r6 = 4294967162 ll
     269:	6d 71 c8 20 00 00 00 00	if r1 s> r7 goto +8392 <LBB2_842>
     270:	05 00 2b 00 00 00 00 00	goto +43 <LBB2_19>

0000000000000878 <LBB2_42>:
     271:	79 a3 e0 fe 00 00 00 00	r3 = *(u64 *)(r10 - 288)
     272:	67 03 00 00 20 00 00 00	r3 <<= 32
     273:	77 03 00 00 20 00 00 00	r3 >>= 32
     274:	79 a4 e8 fe 00 00 00 00	r4 = *(u64 *)(r10 - 280)
     275:	61 41 00 00 00 00 00 00	r1 = *(u32 *)(r4 + 0)
     276:	61 42 04 00 00 00 00 00	r2 = *(u32 *)(r4 + 4)
     277:	57 03 00 00 ff 00 00 00	r3 &= 255
     278:	0f 31 00 00 00 00 00 00	r1 += r3
     279:	bf 14 00 00 00 00 00 00	r4 = r1
     280:	07 01 00 00 08 00 00 00	r1 += 8
     281:	2d 21 02 00 00 00 00 00	if r1 > r2 goto +2 <LBB2_42+0x68>
     282:	b7 03 00 00 00 00 00 00	r3 = 0
     283:	05 00 01 00 00 00 00 00	goto +1 <LBB2_42+0x70>
     284:	b7 03 00 00 ea ff ff ff	r3 = -22
     285:	67 03 00 00 20 00 00 00	r3 <<= 32
     286:	bf 31 00 00 00 00 00 00	r1 = r3
     287:	77 01 00 00 20 00 00 00	r1 >>= 32
     288:	15 01 93 00 00 00 00 00	if r1 == 0 goto +147 <LBB2_44>
     289:	c7 03 00 00 20 00 00 00	r3 s>>= 32
     290:	b7 01 00 00 00 00 00 00	r1 = 0
     291:	18 06 00 00 7a ff ff ff 00 00 00 00 00 00 00 00	r6 = 4294967162 ll
     293:	6d 31 b0 20 00 00 00 00	if r1 s> r3 goto +8368 <LBB2_842>
     294:	05 00 99 00 00 00 00 00	goto +153 <LBB2_47>

0000000000000938 <LBB2_52>:
     295:	57 03 00 00 80 00 00 00	r3 &= 128
     296:	18 06 00 00 53 ff ff ff 00 00 00 00 00 00 00 00	r6 = 4294967123 ll
     298:	15 03 ab 20 00 00 00 00	if r3 == 0 goto +8363 <LBB2_842>

0000000000000958 <LBB2_53>:
     299:	bf a7 00 00 00 00 00 00	r7 = r10
     300:	07 07 00 00 48 ff ff ff	r7 += -184
     301:	bf a2 00 00 00 00 00 00	r2 = r10
     302:	07 02 00 00 38 ff ff ff	r2 += -200
     303:	18 01 00 00 00 00 00 00 00 00 00 00 00 00 00 00	r1 = 0 ll
     305:	85 00 00 00 01 00 00 00	call 1
     306:	bf 08 00 00 00 00 00 00	r8 = r0
     307:	15 08 39 00 00 00 00 00	if r8 == 0 goto +57 <LBB2_57>
     308:	79 81 08 00 00 00 00 00	r1 = *(u64 *)(r8 + 8)
     309:	55 01 34 00 00 00 00 00	if r1 != 0 goto +52 <LBB2_56>
     310:	05 00 e6 1d 00 00 00 00	goto +7654 <LBB2_729>

00000000000009b8 <LBB2_18>:
     311:	69 64 00 00 00 00 00 00	r4 = *(u16 *)(r6 + 0)
     312:	bf 40 00 00 00 00 00 00	r0 = r4
     313:	77 00 00 00 08 00 00 00	r0 >>= 8

00000000000009d0 <LBB2_19>:
     314:	bf 41 00 00 00 00 00 00	r1 = r4
     315:	57 01 00 00 ff 00 00 00	r1 &= 255
     316:	b7 02 00 00 02 00 00 00	r2 = 2
     317:	15 01 01 00 33 00 00 00	if r1 == 51 goto +1 <LBB2_21>
     318:	b7 02 00 00 03 00 00 00	r2 = 3

00000000000009f8 <LBB2_21>:
     319:	bf 06 00 00 00 00 00 00	r6 = r0
     320:	6f 26 00 00 00 00 00 00	r6 <<= r2
     321:	0f 65 00 00 00 00 00 00	r5 += r6
     322:	07 05 00 00 38 00 00 00	r5 += 56
     323:	7b 5a e0 fe 00 00 00 00	*(u64 *)(r10 - 288) = r5
     324:	25 01 07 ff 3c 00 00 00	if r1 > 60 goto -249 <LBB2_36>
     325:	b7 02 00 00 01 00 00 00	r2 = 1
     326:	6f 12 00 00 00 00 00 00	r2 <<= r1
     327:	18 06 00 00 01 00 00 00 00 00 00 00 00 08 08 10	r6 = 1155182100513554433 ll
     329:	5f 62 00 00 00 00 00 00	r2 &= r6
     330:	55 02 06 00 00 00 00 00	if r2 != 0 goto +6 <LBB2_25>
     331:	15 01 90 00 2c 00 00 00	if r1 == 44 goto +144 <LBB2_15>
     332:	7b 5a e0 fe 00 00 00 00	*(u64 *)(r10 - 288) = r5
     333:	18 06 00 00 64 ff ff ff 00 00 00 00 00 00 00 00	r6 = 4294967140 ll
     335:	15 01 86 20 3b 00 00 00	if r1 == 59 goto +8326 <LBB2_842>
     336:	05 00 fb fe 00 00 00 00	goto -261 <LBB2_36>

0000000000000a88 <LBB2_25>:
     337:	bf 56 00 00 00 00 00 00	r6 = r5
     338:	07 06 00 00 0e 00 00 00	r6 += 14
     339:	67 06 00 00 20 00 00 00	r6 <<= 32
     340:	77 06 00 00 20 00 00 00	r6 >>= 32
     341:	79 a7 e8 fe 00 00 00 00	r7 = *(u64 *)(r10 - 280)
     342:	61 71 00 00 00 00 00 00	r1 = *(u32 *)(r7 + 0)
     343:	61 72 04 00 00 00 00 00	r2 = *(u32 *)(r7 + 4)
     344:	57 06 00 00 ff 00 00 00	r6 &= 255
     345:	0f 61 00 00 00 00 00 00	r1 += r6
     346:	bf 16 00 00 00 00 00 00	r6 = r1
     347:	07 01 00 00 02 00 00 00	r1 += 2
     348:	2d 21 02 00 00 00 00 00	if r1 > r2 goto +2 <LBB2_25+0x70>
     349:	b7 07 00 00 00 00 00 00	r7 = 0
     350:	05 00 01 00 00 00 00 00	goto +1 <LBB2_25+0x78>
     351:	b7 07 00 00 ea ff ff ff	r7 = -22
     352:	67 07 00 00 20 00 00 00	r7 <<= 32
     353:	bf 71 00 00 00 00 00 00	r1 = r7
     354:	77 01 00 00 20 00 00 00	r1 >>= 32
     355:	15 01 5f 00 00 00 00 00	if r1 == 0 goto +95 <LBB2_27>
     356:	c7 07 00 00 20 00 00 00	r7 s>>= 32
     357:	b7 01 00 00 00 00 00 00	r1 = 0
     358:	18 06 00 00 7a ff ff ff 00 00 00 00 00 00 00 00	r6 = 4294967162 ll
     360:	6d 71 6d 20 00 00 00 00	if r1 s> r7 goto +8301 <LBB2_842>
     361:	05 00 5c 00 00 00 00 00	goto +92 <LBB2_28>

0000000000000b50 <LBB2_56>:
     362:	79 a1 48 ff 00 00 00 00	r1 = *(u64 *)(r10 - 184)
     363:	79 a2 50 ff 00 00 00 00	r2 = *(u64 *)(r10 - 176)
     364:	05 00 0e 00 00 00 00 00	goto +14 <LBB2_60>

0000000000000b68 <LBB2_57>:
     365:	bf 91 00 00 00 00 00 00	r1 = r9
     366:	67 01 00 00 20 00 00 00	r1 <<= 32
     367:	77 01 00 00 20 00 00 00	r1 >>= 32
     368:	55 01 1a 03 00 00 00 00	if r1 != 0 goto +794 <LBB2_202>
     369:	18 01 00 00 20 01 48 98 00 00 00 00 00 30 00 21	r1 = 2377953382364610848 ll
     371:	79 a2 48 ff 00 00 00 00	r2 = *(u64 *)(r10 - 184)
     372:	5d 12 16 03 00 00 00 00	if r2 != r1 goto +790 <LBB2_202>
     373:	79 a3 50 ff 00 00 00 00	r3 = *(u64 *)(r10 - 176)
     374:	18 02 00 00 af 61 5c 8b 00 00 00 00 1c 6c e1 5b	r2 = 6620691797064311215 ll
     376:	18 04 00 00 af 61 5c 8b 00 00 00 00 1c 6c e1 5b	r4 = 6620691797064311215 ll
     378:	5d 43 10 03 00 00 00 00	if r3 != r4 goto +784 <LBB2_202>

0000000000000bd8 <LBB2_60>:
     379:	bf 94 00 00 00 00 00 00	r4 = r9
     380:	67 04 00 00 20 00 00 00	r4 <<= 32
     381:	77 04 00 00 20 00 00 00	r4 >>= 32
     382:	b7 03 00 00 01 00 00 00	r3 = 1
     383:	55 04 01 00 01 00 00 00	if r4 != 1 goto +1 <LBB2_62>
     384:	b7 03 00 00 00 00 00 00	r3 = 0

0000000000000c08 <LBB2_62>:
     385:	61 a4 58 ff 00 00 00 00	r4 = *(u32 *)(r10 - 168)
     386:	63 4a b8 ff 00 00 00 00	*(u32 *)(r10 - 72) = r4
     387:	7b 2a b0 ff 00 00 00 00	*(u64 *)(r10 - 80) = r2
     388:	7b 1a a8 ff 00 00 00 00	*(u64 *)(r10 - 88) = r1
     389:	79 a1 40 ff 00 00 00 00	r1 = *(u64 *)(r10 - 192)
     390:	7b 1a a0 ff 00 00 00 00	*(u64 *)(r10 - 96) = r1
     391:	79 a1 38 ff 00 00 00 00	r1 = *(u64 *)(r10 - 200)
     392:	7b 1a 98 ff 00 00 00 00	*(u64 *)(r10 - 104) = r1
     393:	69 a2 5c ff 00 00 00 00	r2 = *(u16 *)(r10 - 164)
     394:	bf 21 00 00 00 00 00 00	r1 = r2
     395:	57 01 00 00 ff 00 00 00	r1 &= 255
     396:	18 04 00 00 00 00 00 00 00 00 00 00 00 00 00 00	r4 = 0 ll
     398:	79 a5 e0 fe 00 00 00 00	r5 = *(u64 *)(r10 - 288)
     399:	15 01 02 00 06 00 00 00	if r1 == 6 goto +2 <LBB2_64>
     400:	18 04 00 00 00 00 00 00 00 00 00 00 00 00 00 00	r4 = 0 ll

0000000000000c90 <LBB2_64>:
     402:	6b 2a bc ff 00 00 00 00	*(u16 *)(r10 - 68) = r2
     403:	73 3a bd ff 00 00 00 00	*(u8 *)(r10 - 67) = r3
     404:	7b 2a c8 fe 00 00 00 00	*(u64 *)(r10 - 312) = r2
     405:	7b 4a d8 fe 00 00 00 00	*(u64 *)(r10 - 296) = r4
     406:	15 01 5d 00 06 00 00 00	if r1 == 6 goto +93 <LBB2_81>
     407:	15 01 73 00 11 00 00 00	if r1 == 17 goto +115 <LBB2_89>
     408:	18 06 00 00 77 ff ff ff 00 00 00 00 00 00 00 00	r6 = 4294967159 ll
     410:	55 01 3b 20 3a 00 00 00	if r1 != 58 goto +8251 <LBB2_842>
     411:	67 05 00 00 20 00 00 00	r5 <<= 32
     412:	c7 05 00 00 20 00 00 00	r5 s>>= 32
     413:	79 a4 e8 fe 00 00 00 00	r4 = *(u64 *)(r10 - 280)
     414:	61 41 00 00 00 00 00 00	r1 = *(u32 *)(r4 + 0)
     415:	61 42 04 00 00 00 00 00	r2 = *(u32 *)(r4 + 4)
     416:	57 05 00 00 ff 00 00 00	r5 &= 255
     417:	0f 51 00 00 00 00 00 00	r1 += r5
     418:	bf 10 00 00 00 00 00 00	r0 = r1
     419:	07 01 00 00 01 00 00 00	r1 += 1
     420:	2d 21 02 00 00 00 00 00	if r1 > r2 goto +2 <LBB2_64+0xa8>
     421:	b7 04 00 00 00 00 00 00	r4 = 0
     422:	05 00 01 00 00 00 00 00	goto +1 <LBB2_64+0xb0>
     423:	b7 04 00 00 ea ff ff ff	r4 = -22
     424:	67 04 00 00 20 00 00 00	r4 <<= 32
     425:	bf 41 00 00 00 00 00 00	r1 = r4
     426:	77 01 00 00 20 00 00 00	r1 >>= 32
     427:	15 01 a5 00 00 00 00 00	if r1 == 0 goto +165 <LBB2_71>
     428:	c7 04 00 00 20 00 00 00	r4 s>>= 32
     429:	18 06 00 00 79 ff ff ff 00 00 00 00 00 00 00 00	r6 = 4294967161 ll
     431:	b7 01 00 00 00 00 00 00	r1 = 0
     432:	6d 41 25 20 00 00 00 00	if r1 s> r4 goto +8229 <LBB2_842>
     433:	63 1a b8 ff 00 00 00 00	*(u32 *)(r10 - 72) = r1

0000000000000d90 <LBB2_70>:
     434:	6b 1a ba ff 00 00 00 00	*(u16 *)(r10 - 70) = r1
     435:	05 00 c9 00 00 00 00 00	goto +201 <LBB2_79>

0000000000000da0 <LBB2_44>:
     436:	79 41 00 00 00 00 00 00	r1 = *(u64 *)(r4 + 0)
     437:	bf 14 00 00 00 00 00 00	r4 = r1
     438:	57 04 00 00 ff 00 00 00	r4 &= 255
     439:	bf 42 00 00 00 00 00 00	r2 = r4
     440:	07 02 00 00 79 ff ff ff	r2 += -135
     441:	b7 03 00 00 02 00 00 00	r3 = 2
     442:	2d 23 6e 1f 00 00 00 00	if r3 > r2 goto +8046 <LBB2_840>
     443:	b7 03 00 00 00 00 00 00	r3 = 0
     444:	77 01 00 00 20 00 00 00	r1 >>= 32
     445:	b7 02 00 00 00 00 00 00	r2 = 0
     446:	15 04 2c ff 80 00 00 00	if r4 == 128 goto -212 <LBB2_49>
     447:	15 04 85 00 81 00 00 00	if r4 == 129 goto +133 <LBB2_48>

0000000000000e00 <LBB2_47>:
     448:	18 06 00 00 58 ff ff ff 00 00 00 00 00 00 00 00	r6 = 4294967128 ll
     450:	05 00 13 20 00 00 00 00	goto +8211 <LBB2_842>

0000000000000e18 <LBB2_27>:
     451:	69 64 00 00 00 00 00 00	r4 = *(u16 *)(r6 + 0)
     452:	bf 40 00 00 00 00 00 00	r0 = r4
     453:	77 00 00 00 08 00 00 00	r0 >>= 8

0000000000000e30 <LBB2_28>:
     454:	bf 41 00 00 00 00 00 00	r1 = r4
     455:	57 01 00 00 ff 00 00 00	r1 &= 255
     456:	b7 02 00 00 02 00 00 00	r2 = 2
     457:	15 01 01 00 33 00 00 00	if r1 == 51 goto +1 <LBB2_30>
     458:	b7 02 00 00 03 00 00 00	r2 = 3

0000000000000e58 <LBB2_30>:
     459:	6f 20 00 00 00 00 00 00	r0 <<= r2
     460:	0f 05 00 00 00 00 00 00	r5 += r0
     461:	07 05 00 00 08 00 00 00	r5 += 8
     462:	7b 5a e0 fe 00 00 00 00	*(u64 *)(r10 - 288) = r5
     463:	25 01 7c fe 3c 00 00 00	if r1 > 60 goto -388 <LBB2_36>
     464:	b7 02 00 00 01 00 00 00	r2 = 1
     465:	6f 12 00 00 00 00 00 00	r2 <<= r1
     466:	18 00 00 00 01 00 00 00 00 00 00 00 00 08 08 10	r0 = 1155182100513554433 ll
     468:	5f 02 00 00 00 00 00 00	r2 &= r0
     469:	55 02 09 00 00 00 00 00	if r2 != 0 goto +9 <LBB2_34>
     470:	15 01 05 00 2c 00 00 00	if r1 == 44 goto +5 <LBB2_15>
     471:	7b 5a e0 fe 00 00 00 00	*(u64 *)(r10 - 288) = r5
     472:	18 06 00 00 64 ff ff ff 00 00 00 00 00 00 00 00	r6 = 4294967140 ll
     474:	15 01 fb 1f 3b 00 00 00	if r1 == 59 goto +8187 <LBB2_842>
     475:	05 00 70 fe 00 00 00 00	goto -400 <LBB2_36>

0000000000000ee0 <LBB2_15>:
     476:	18 06 00 00 63 ff ff ff 00 00 00 00 00 00 00 00	r6 = 4294967139 ll
     478:	05 00 f7 1f 00 00 00 00	goto +8183 <LBB2_842>

0000000000000ef8 <LBB2_34>:
     479:	07 05 00 00 0e 00 00 00	r5 += 14
     480:	67 05 00 00 20 00 00 00	r5 <<= 32
     481:	77 05 00 00 20 00 00 00	r5 >>= 32
     482:	79 a3 e8 fe 00 00 00 00	r3 = *(u64 *)(r10 - 280)
     483:	61 31 00 00 00 00 00 00	r1 = *(u32 *)(r3 + 0)
     484:	61 32 04 00 00 00 00 00	r2 = *(u32 *)(r3 + 4)
     485:	57 05 00 00 ff 00 00 00	r5 &= 255
     486:	0f 51 00 00 00 00 00 00	r1 += r5
     487:	bf 13 00 00 00 00 00 00	r3 = r1
     488:	07 01 00 00 02 00 00 00	r1 += 2
     489:	2d 21 02 00 00 00 00 00	if r1 > r2 goto +2 <LBB2_34+0x68>
     490:	b7 04 00 00 00 00 00 00	r4 = 0
     491:	05 00 01 00 00 00 00 00	goto +1 <LBB2_34+0x70>
     492:	b7 04 00 00 ea ff ff ff	r4 = -22
     493:	67 04 00 00 20 00 00 00	r4 <<= 32
     494:	c7 04 00 00 20 00 00 00	r4 s>>= 32
     495:	b7 06 00 00 7a ff ff ff	r6 = -134
     496:	b7 01 00 00 00 00 00 00	r1 = 0
     497:	6d 41 e4 1f 00 00 00 00	if r1 s> r4 goto +8164 <LBB2_842>
     498:	b7 06 00 00 64 ff ff ff	r6 = -156
     499:	05 00 e2 1f 00 00 00 00	goto +8162 <LBB2_842>

0000000000000fa0 <LBB2_81>:
     500:	bf 53 00 00 00 00 00 00	r3 = r5
     501:	67 03 00 00 20 00 00 00	r3 <<= 32
     502:	18 01 00 00 00 00 00 00 00 00 00 00 0c 00 00 00	r1 = 51539607552 ll
     504:	0f 13 00 00 00 00 00 00	r3 += r1
     505:	c7 03 00 00 20 00 00 00	r3 s>>= 32
     506:	79 a4 e8 fe 00 00 00 00	r4 = *(u64 *)(r10 - 280)
     507:	61 41 00 00 00 00 00 00	r1 = *(u32 *)(r4 + 0)
     508:	61 42 04 00 00 00 00 00	r2 = *(u32 *)(r4 + 4)
     509:	57 03 00 00 ff 00 00 00	r3 &= 255
     510:	0f 31 00 00 00 00 00 00	r1 += r3
     511:	bf 14 00 00 00 00 00 00	r4 = r1
     512:	07 01 00 00 02 00 00 00	r1 += 2
     513:	2d 21 02 00 00 00 00 00	if r1 > r2 goto +2 <LBB2_81+0x80>
     514:	b7 03 00 00 00 00 00 00	r3 = 0
     515:	05 00 01 00 00 00 00 00	goto +1 <LBB2_81+0x88>
     516:	b7 03 00 00 ea ff ff ff	r3 = -22
     517:	67 03 00 00 20 00 00 00	r3 <<= 32
     518:	bf 31 00 00 00 00 00 00	r1 = r3
     519:	77 01 00 00 20 00 00 00	r1 >>= 32
     520:	55 01 1a 00 00 00 00 00	if r1 != 0 goto +26 <LBB2_83>
     521:	69 40 00 00 00 00 00 00	r0 = *(u16 *)(r4 + 0)
     522:	05 00 1d 00 00 00 00 00	goto +29 <LBB2_84>

0000000000001058 <LBB2_89>:
     523:	bf 53 00 00 00 00 00 00	r3 = r5
     524:	67 03 00 00 20 00 00 00	r3 <<= 32
     525:	c7 03 00 00 20 00 00 00	r3 s>>= 32
     526:	79 a4 e8 fe 00 00 00 00	r4 = *(u64 *)(r10 - 280)
     527:	61 41 00 00 00 00 00 00	r1 = *(u32 *)(r4 + 0)
     528:	61 42 04 00 00 00 00 00	r2 = *(u32 *)(r4 + 4)
     529:	57 03 00 00 ff 00 00 00	r3 &= 255
     530:	0f 31 00 00 00 00 00 00	r1 += r3
     531:	bf 14 00 00 00 00 00 00	r4 = r1
     532:	07 01 00 00 04 00 00 00	r1 += 4
     533:	2d 21 02 00 00 00 00 00	if r1 > r2 goto +2 <LBB2_89+0x68>
     534:	b7 03 00 00 00 00 00 00	r3 = 0
     535:	05 00 01 00 00 00 00 00	goto +1 <LBB2_89+0x70>
     536:	b7 03 00 00 ea ff ff ff	r3 = -22
     537:	67 03 00 00 20 00 00 00	r3 <<= 32
     538:	bf 31 00 00 00 00 00 00	r1 = r3
     539:	77 01 00 00 20 00 00 00	r1 >>= 32
     540:	55 01 66 00 00 00 00 00	if r1 != 0 goto +102 <LBB2_91>
     541:	61 41 00 00 00 00 00 00	r1 = *(u32 *)(r4 + 0)
     542:	63 1a b8 ff 00 00 00 00	*(u32 *)(r10 - 72) = r1
     543:	b7 01 00 00 01 00 00 00	r1 = 1
     544:	7b 1a c0 fe 00 00 00 00	*(u64 *)(r10 - 320) = r1
     545:	b7 00 00 00 00 00 00 00	r0 = 0
     546:	05 00 67 00 00 00 00 00	goto +103 <LBB2_92>

0000000000001118 <LBB2_83>:
     547:	c7 03 00 00 20 00 00 00	r3 s>>= 32
     548:	18 06 00 00 79 ff ff ff 00 00 00 00 00 00 00 00	r6 = 4294967161 ll
     550:	b7 00 00 00 00 00 00 00	r0 = 0
     551:	6d 30 ae 1f 00 00 00 00	if r0 s> r3 goto +8110 <LBB2_842>

0000000000001140 <LBB2_84>:
     552:	bf 01 00 00 00 00 00 00	r1 = r0
     553:	57 01 00 00 00 05 00 00	r1 &= 1280
     554:	b7 02 00 00 01 00 00 00	r2 = 1
     555:	15 01 01 00 00 00 00 00	if r1 == 0 goto +1 <LBB2_86>
     556:	b7 02 00 00 02 00 00 00	r2 = 2

0000000000001168 <LBB2_86>:
     557:	7b 2a c0 fe 00 00 00 00	*(u64 *)(r10 - 320) = r2
     558:	bf 53 00 00 00 00 00 00	r3 = r5
     559:	67 03 00 00 20 00 00 00	r3 <<= 32
     560:	c7 03 00 00 20 00 00 00	r3 s>>= 32
     561:	79 a4 e8 fe 00 00 00 00	r4 = *(u64 *)(r10 - 280)
     562:	61 41 00 00 00 00 00 00	r1 = *(u32 *)(r4 + 0)
     563:	61 42 04 00 00 00 00 00	r2 = *(u32 *)(r4 + 4)
     564:	57 03 00 00 ff 00 00 00	r3 &= 255
     565:	0f 31 00 00 00 00 00 00	r1 += r3
     566:	bf 14 00 00 00 00 00 00	r4 = r1
     567:	07 01 00 00 04 00 00 00	r1 += 4
     568:	2d 21 02 00 00 00 00 00	if r1 > r2 goto +2 <LBB2_86+0x70>
     569:	b7 03 00 00 00 00 00 00	r3 = 0
     570:	05 00 01 00 00 00 00 00	goto +1 <LBB2_86+0x78>
     571:	b7 03 00 00 ea ff ff ff	r3 = -22
     572:	67 03 00 00 20 00 00 00	r3 <<= 32
     573:	bf 31 00 00 00 00 00 00	r1 = r3
     574:	77 01 00 00 20 00 00 00	r1 >>= 32
     575:	55 01 09 00 00 00 00 00	if r1 != 0 goto +9 <LBB2_88>
     576:	61 41 00 00 00 00 00 00	r1 = *(u32 *)(r4 + 0)
     577:	63 1a b8 ff 00 00 00 00	*(u32 *)(r10 - 72) = r1
     578:	57 00 00 00 00 ff 00 00	r0 &= 65280
     579:	77 00 00 00 08 00 00 00	r0 >>= 8
     580:	05 00 45 00 00 00 00 00	goto +69 <LBB2_92>

0000000000001228 <LBB2_48>:
     581:	b7 02 00 00 01 00 00 00	r2 = 1
     582:	bf 13 00 00 00 00 00 00	r3 = r1
     583:	b7 01 00 00 00 00 00 00	r1 = 0
     584:	05 00 a2 fe 00 00 00 00	goto -350 <LBB2_49>

0000000000001248 <LBB2_88>:
     585:	c7 03 00 00 20 00 00 00	r3 s>>= 32
     586:	18 06 00 00 79 ff ff ff 00 00 00 00 00 00 00 00	r6 = 4294967161 ll
     588:	57 00 00 00 00 ff 00 00	r0 &= 65280
     589:	77 00 00 00 08 00 00 00	r0 >>= 8
     590:	b7 01 00 00 00 00 00 00	r1 = 0
     591:	6d 31 86 1f 00 00 00 00	if r1 s> r3 goto +8070 <LBB2_842>
     592:	05 00 39 00 00 00 00 00	goto +57 <LBB2_92>

0000000000001288 <LBB2_71>:
     593:	71 04 00 00 00 00 00 00	r4 = *(u8 *)(r0 + 0)
     594:	b7 00 00 00 00 00 00 00	r0 = 0
     595:	bf 42 00 00 00 00 00 00	r2 = r4
     596:	67 02 00 00 38 00 00 00	r2 <<= 56
     597:	c7 02 00 00 38 00 00 00	r2 s>>= 56
     598:	b7 01 00 00 00 00 00 00	r1 = 0
     599:	65 02 19 00 81 ff ff ff	if r2 s> -127 goto +25 <LBB2_75>
     600:	07 05 00 00 04 00 00 00	r5 += 4
     601:	79 a0 e8 fe 00 00 00 00	r0 = *(u64 *)(r10 - 280)
     602:	61 01 00 00 00 00 00 00	r1 = *(u32 *)(r0 + 0)
     603:	61 02 04 00 00 00 00 00	r2 = *(u32 *)(r0 + 4)
     604:	57 05 00 00 ff 00 00 00	r5 &= 255
     605:	0f 51 00 00 00 00 00 00	r1 += r5
     606:	bf 10 00 00 00 00 00 00	r0 = r1
     607:	07 01 00 00 02 00 00 00	r1 += 2
     608:	2d 21 02 00 00 00 00 00	if r1 > r2 goto +2 <LBB2_71+0x90>
     609:	b7 05 00 00 00 00 00 00	r5 = 0
     610:	05 00 01 00 00 00 00 00	goto +1 <LBB2_71+0x98>
     611:	b7 05 00 00 ea ff ff ff	r5 = -22
     612:	67 05 00 00 20 00 00 00	r5 <<= 32
     613:	bf 51 00 00 00 00 00 00	r1 = r5
     614:	77 01 00 00 20 00 00 00	r1 >>= 32
     615:	55 01 03 00 00 00 00 00	if r1 != 0 goto +3 <LBB2_74>
     616:	69 01 00 00 00 00 00 00	r1 = *(u16 *)(r0 + 0)
     617:	b7 00 00 00 00 00 00 00	r0 = 0
     618:	05 00 06 00 00 00 00 00	goto +6 <LBB2_75>

0000000000001358 <LBB2_74>:
     619:	c7 05 00 00 20 00 00 00	r5 s>>= 32
     620:	18 06 00 00 79 ff ff ff 00 00 00 00 00 00 00 00	r6 = 4294967161 ll
     622:	b7 01 00 00 00 00 00 00	r1 = 0
     623:	b7 00 00 00 00 00 00 00	r0 = 0
     624:	6d 51 65 1f 00 00 00 00	if r1 s> r5 goto +8037 <LBB2_842>

0000000000001388 <LBB2_75>:
     625:	63 0a b8 ff 00 00 00 00	*(u32 *)(r10 - 72) = r0
     626:	bf 42 00 00 00 00 00 00	r2 = r4
     627:	07 02 00 00 ff ff ff ff	r2 += -1
     628:	b7 05 00 00 04 00 00 00	r5 = 4
     629:	2d 25 05 00 00 00 00 00	if r5 > r2 goto +5 <LBB2_78>
     630:	b7 02 00 00 01 00 00 00	r2 = 1
     631:	7b 2a c0 fe 00 00 00 00	*(u64 *)(r10 - 320) = r2
     632:	15 04 08 00 80 00 00 00	if r4 == 128 goto +8 <LBB2_80>
     633:	15 04 38 ff 81 00 00 00	if r4 == 129 goto -200 <LBB2_70>
     634:	05 00 0f 00 00 00 00 00	goto +15 <LBB2_92>

00000000000013d8 <LBB2_78>:
     635:	47 03 00 00 02 00 00 00	r3 |= 2
     636:	73 3a bd ff 00 00 00 00	*(u8 *)(r10 - 67) = r3

00000000000013e8 <LBB2_79>:
     637:	b7 00 00 00 00 00 00 00	r0 = 0
     638:	b7 01 00 00 00 00 00 00	r1 = 0
     639:	7b 1a c0 fe 00 00 00 00	*(u64 *)(r10 - 320) = r1
     640:	05 00 09 00 00 00 00 00	goto +9 <LBB2_92>

0000000000001408 <LBB2_80>:
     641:	6b 1a b8 ff 00 00 00 00	*(u16 *)(r10 - 72) = r1
     642:	05 00 07 00 00 00 00 00	goto +7 <LBB2_92>

0000000000001418 <LBB2_91>:
     643:	c7 03 00 00 20 00 00 00	r3 s>>= 32
     644:	b7 01 00 00 01 00 00 00	r1 = 1
     645:	7b 1a c0 fe 00 00 00 00	*(u64 *)(r10 - 320) = r1
     646:	18 06 00 00 79 ff ff ff 00 00 00 00 00 00 00 00	r6 = 4294967161 ll
     648:	b7 00 00 00 00 00 00 00	r0 = 0
     649:	6d 30 4c 1f 00 00 00 00	if r0 s> r3 goto +8012 <LBB2_842>

0000000000001450 <LBB2_92>:
     650:	7b 0a d0 fe 00 00 00 00	*(u64 *)(r10 - 304) = r0
     651:	7b 7a b8 fe 00 00 00 00	*(u64 *)(r10 - 328) = r7
     652:	bf a2 00 00 00 00 00 00	r2 = r10
     653:	07 02 00 00 98 ff ff ff	r2 += -104
     654:	79 a6 d8 fe 00 00 00 00	r6 = *(u64 *)(r10 - 296)
     655:	bf 61 00 00 00 00 00 00	r1 = r6
     656:	85 00 00 00 01 00 00 00	call 1
     657:	bf 07 00 00 00 00 00 00	r7 = r0
     658:	15 07 26 00 00 00 00 00	if r7 == 0 goto +38 <LBB2_134>
     659:	bf 75 00 00 00 00 00 00	r5 = r7
     660:	69 51 24 00 00 00 00 00	r1 = *(u16 *)(r5 + 36)
     661:	bf 12 00 00 00 00 00 00	r2 = r1
     662:	57 02 00 00 03 00 00 00	r2 &= 3
     663:	15 02 a3 00 03 00 00 00	if r2 == 3 goto +163 <LBB2_105>
     664:	b7 06 00 00 3a 00 00 00	r6 = 58
     665:	79 a2 c8 fe 00 00 00 00	r2 = *(u64 *)(r10 - 312)
     666:	57 02 00 00 ff 00 00 00	r2 &= 255
     667:	55 02 0d 00 06 00 00 00	if r2 != 6 goto +13 <LBB2_97>
     668:	79 a2 d0 fe 00 00 00 00	r2 = *(u64 *)(r10 - 304)
     669:	67 02 00 00 03 00 00 00	r2 <<= 3
     670:	a7 02 00 00 ff ff ff ff	r2 ^= -1
     671:	bf 13 00 00 00 00 00 00	r3 = r1
     672:	4f 23 00 00 00 00 00 00	r3 |= r2
     673:	57 03 00 00 10 00 00 00	r3 &= 16
     674:	57 01 00 00 ef ff 00 00	r1 &= 65519
     675:	bf 32 00 00 00 00 00 00	r2 = r3
     676:	4f 12 00 00 00 00 00 00	r2 |= r1
     677:	6b 25 24 00 00 00 00 00	*(u16 *)(r5 + 36) = r2
     678:	b7 06 00 00 3a 00 00 00	r6 = 58
     679:	15 03 01 00 00 00 00 00	if r3 == 0 goto +1 <LBB2_97>
     680:	b7 06 00 00 65 52 00 00	r6 = 21093

0000000000001548 <LBB2_97>:
     681:	7b 8a d8 fe 00 00 00 00	*(u64 *)(r10 - 296) = r8
     682:	bf 58 00 00 00 00 00 00	r8 = r5
     683:	85 00 00 00 76 00 00 00	call 118
     684:	bf 85 00 00 00 00 00 00	r5 = r8
     685:	77 00 00 00 08 00 00 00	r0 >>= 8
     686:	0f 06 00 00 00 00 00 00	r6 += r0
     687:	63 65 20 00 00 00 00 00	*(u32 *)(r5 + 32) = r6
     688:	79 a2 d0 fe 00 00 00 00	r2 = *(u64 *)(r10 - 304)
     689:	57 02 00 00 07 00 00 00	r2 &= 7
     690:	bf 91 00 00 00 00 00 00	r1 = r9
     691:	67 01 00 00 20 00 00 00	r1 <<= 32
     692:	77 01 00 00 20 00 00 00	r1 >>= 32
     693:	55 01 43 00 01 00 00 00	if r1 != 1 goto +67 <LBB2_99>
     694:	71 51 2b 00 00 00 00 00	r1 = *(u8 *)(r5 + 43)
     695:	61 54 34 00 00 00 00 00	r4 = *(u32 *)(r5 + 52)
     696:	05 00 42 00 00 00 00 00	goto +66 <LBB2_100>

00000000000015c8 <LBB2_134>:
     697:	71 a2 bd ff 00 00 00 00	r2 = *(u8 *)(r10 - 67)
     698:	bf 21 00 00 00 00 00 00	r1 = r2
     699:	47 01 00 00 01 00 00 00	r1 |= 1
     700:	bf 23 00 00 00 00 00 00	r3 = r2
     701:	57 03 00 00 01 00 00 00	r3 &= 1
     702:	15 03 02 00 00 00 00 00	if r3 == 0 goto +2 <LBB2_136>
     703:	57 02 00 00 fe 00 00 00	r2 &= 254
     704:	bf 21 00 00 00 00 00 00	r1 = r2

0000000000001608 <LBB2_136>:
     705:	79 a2 a8 ff 00 00 00 00	r2 = *(u64 *)(r10 - 88)
     706:	79 a3 98 ff 00 00 00 00	r3 = *(u64 *)(r10 - 104)
     707:	7b 3a a8 ff 00 00 00 00	*(u64 *)(r10 - 88) = r3
     708:	79 a3 a0 ff 00 00 00 00	r3 = *(u64 *)(r10 - 96)
     709:	79 a4 b0 ff 00 00 00 00	r4 = *(u64 *)(r10 - 80)
     710:	7b 4a a0 ff 00 00 00 00	*(u64 *)(r10 - 96) = r4
     711:	7b 3a b0 ff 00 00 00 00	*(u64 *)(r10 - 80) = r3
     712:	7b 2a 98 ff 00 00 00 00	*(u64 *)(r10 - 104) = r2
     713:	69 a2 ba ff 00 00 00 00	r2 = *(u16 *)(r10 - 70)
     714:	69 a3 b8 ff 00 00 00 00	r3 = *(u16 *)(r10 - 72)
     715:	6b 3a ba ff 00 00 00 00	*(u16 *)(r10 - 70) = r3
     716:	6b 2a b8 ff 00 00 00 00	*(u16 *)(r10 - 72) = r2
     717:	73 1a bd ff 00 00 00 00	*(u8 *)(r10 - 67) = r1
     718:	bf a2 00 00 00 00 00 00	r2 = r10
     719:	07 02 00 00 98 ff ff ff	r2 += -104
     720:	bf 61 00 00 00 00 00 00	r1 = r6
     721:	85 00 00 00 01 00 00 00	call 1
     722:	bf 07 00 00 00 00 00 00	r7 = r0
     723:	15 07 3c 00 00 00 00 00	if r7 == 0 goto +60 <LBB2_178>
     724:	bf 75 00 00 00 00 00 00	r5 = r7
     725:	69 51 24 00 00 00 00 00	r1 = *(u16 *)(r5 + 36)
     726:	bf 12 00 00 00 00 00 00	r2 = r1
     727:	57 02 00 00 03 00 00 00	r2 &= 3
     728:	15 02 38 01 03 00 00 00	if r2 == 3 goto +312 <LBB2_149>
     729:	b7 06 00 00 3a 00 00 00	r6 = 58
     730:	79 a2 c8 fe 00 00 00 00	r2 = *(u64 *)(r10 - 312)
     731:	57 02 00 00 ff 00 00 00	r2 &= 255
     732:	55 02 0d 00 06 00 00 00	if r2 != 6 goto +13 <LBB2_141>
     733:	79 a2 d0 fe 00 00 00 00	r2 = *(u64 *)(r10 - 304)
     734:	67 02 00 00 03 00 00 00	r2 <<= 3
     735:	a7 02 00 00 ff ff ff ff	r2 ^= -1
     736:	bf 13 00 00 00 00 00 00	r3 = r1
     737:	4f 23 00 00 00 00 00 00	r3 |= r2
     738:	57 03 00 00 10 00 00 00	r3 &= 16
     739:	57 01 00 00 ef ff 00 00	r1 &= 65519
     740:	bf 32 00 00 00 00 00 00	r2 = r3
     741:	4f 12 00 00 00 00 00 00	r2 |= r1
     742:	6b 25 24 00 00 00 00 00	*(u16 *)(r5 + 36) = r2
     743:	b7 06 00 00 3a 00 00 00	r6 = 58
     744:	15 03 01 00 00 00 00 00	if r3 == 0 goto +1 <LBB2_141>
     745:	b7 06 00 00 65 52 00 00	r6 = 21093

0000000000001750 <LBB2_141>:
     746:	7b 5a b0 fe 00 00 00 00	*(u64 *)(r10 - 336) = r5
     747:	85 00 00 00 76 00 00 00	call 118
     748:	79 a5 b0 fe 00 00 00 00	r5 = *(u64 *)(r10 - 336)
     749:	77 00 00 00 08 00 00 00	r0 >>= 8
     750:	0f 06 00 00 00 00 00 00	r6 += r0
     751:	63 65 20 00 00 00 00 00	*(u32 *)(r5 + 32) = r6
     752:	79 a2 d0 fe 00 00 00 00	r2 = *(u64 *)(r10 - 304)
     753:	57 02 00 00 07 00 00 00	r2 &= 7
     754:	bf 91 00 00 00 00 00 00	r1 = r9
     755:	67 01 00 00 20 00 00 00	r1 <<= 32
     756:	77 01 00 00 20 00 00 00	r1 >>= 32
     757:	55 01 cb 00 01 00 00 00	if r1 != 1 goto +203 <LBB2_143>
     758:	71 51 2b 00 00 00 00 00	r1 = *(u8 *)(r5 + 43)
     759:	61 54 34 00 00 00 00 00	r4 = *(u32 *)(r5 + 52)
     760:	05 00 ca 00 00 00 00 00	goto +202 <LBB2_144>

00000000000017c8 <LBB2_99>:
     761:	71 51 2a 00 00 00 00 00	r1 = *(u8 *)(r5 + 42)
     762:	61 54 30 00 00 00 00 00	r4 = *(u32 *)(r5 + 48)

00000000000017d8 <LBB2_100>:
     763:	79 a8 d8 fe 00 00 00 00	r8 = *(u64 *)(r10 - 296)
     764:	bf 13 00 00 00 00 00 00	r3 = r1
     765:	4f 23 00 00 00 00 00 00	r3 |= r2
     766:	bf 02 00 00 00 00 00 00	r2 = r0
     767:	67 02 00 00 20 00 00 00	r2 <<= 32
     768:	77 02 00 00 20 00 00 00	r2 >>= 32
     769:	07 04 00 00 04 00 00 00	r4 += 4
     770:	2d 42 03 00 00 00 00 00	if r2 > r4 goto +3 <LBB2_102>
     771:	bf 32 00 00 00 00 00 00	r2 = r3
     772:	57 02 00 00 ff 00 00 00	r2 &= 255
     773:	1d 21 35 00 00 00 00 00	if r1 == r2 goto +53 <LBB2_105>

0000000000001830 <LBB2_102>:
     774:	bf 91 00 00 00 00 00 00	r1 = r9
     775:	67 01 00 00 20 00 00 00	r1 <<= 32
     776:	77 01 00 00 20 00 00 00	r1 >>= 32
     777:	55 01 2e 00 01 00 00 00	if r1 != 1 goto +46 <LBB2_104>
     778:	73 35 2b 00 00 00 00 00	*(u8 *)(r5 + 43) = r3
     779:	63 05 34 00 00 00 00 00	*(u32 *)(r5 + 52) = r0
     780:	b7 06 00 00 01 00 00 00	r6 = 1
     781:	b7 02 00 00 08 00 00 00	r2 = 8
     782:	bf 53 00 00 00 00 00 00	r3 = r5
     783:	05 00 36 00 00 00 00 00	goto +54 <LBB2_107>

0000000000001880 <LBB2_178>:
     784:	18 03 00 00 00 00 00 00 00 00 00 00 00 00 00 00	r3 = 0 ll
     786:	71 a1 bc ff 00 00 00 00	r1 = *(u8 *)(r10 - 68)
     787:	15 01 02 00 06 00 00 00	if r1 == 6 goto +2 <LBB2_180>
     788:	18 03 00 00 00 00 00 00 00 00 00 00 00 00 00 00	r3 = 0 ll

00000000000018b0 <LBB2_180>:
     790:	b7 02 00 00 00 00 00 00	r2 = 0
     791:	7b 2a f0 ff 00 00 00 00	*(u64 *)(r10 - 16) = r2
     792:	7b 2a e8 ff 00 00 00 00	*(u64 *)(r10 - 24) = r2
     793:	7b 2a e0 ff 00 00 00 00	*(u64 *)(r10 - 32) = r2
     794:	7b 2a d8 ff 00 00 00 00	*(u64 *)(r10 - 40) = r2
     795:	7b 2a d0 ff 00 00 00 00	*(u64 *)(r10 - 48) = r2
     796:	7b 2a c8 ff 00 00 00 00	*(u64 *)(r10 - 56) = r2
     797:	7b 2a c0 ff 00 00 00 00	*(u64 *)(r10 - 64) = r2
     798:	b7 06 00 00 01 00 00 00	r6 = 1
     799:	15 01 01 00 06 00 00 00	if r1 == 6 goto +1 <LBB2_182>
     800:	b7 06 00 00 00 00 00 00	r6 = 0

0000000000001908 <LBB2_182>:
     801:	b7 07 00 00 3a 00 00 00	r7 = 58
     802:	67 06 00 00 01 00 00 00	r6 <<= 1
     803:	55 01 08 00 06 00 00 00	if r1 != 6 goto +8 <LBB2_186>
     804:	bf 61 00 00 00 00 00 00	r1 = r6
     805:	67 01 00 00 03 00 00 00	r1 <<= 3
     806:	a7 01 00 00 10 00 00 00	r1 ^= 16
     807:	57 01 00 00 f8 00 00 00	r1 &= 248
     808:	b7 07 00 00 3a 00 00 00	r7 = 58
     809:	15 01 01 00 00 00 00 00	if r1 == 0 goto +1 <LBB2_185>
     810:	b7 07 00 00 65 52 00 00	r7 = 21093

0000000000001958 <LBB2_185>:
     811:	6b 1a e4 ff 00 00 00 00	*(u16 *)(r10 - 28) = r1

0000000000001960 <LBB2_186>:
     812:	7b 3a d8 fe 00 00 00 00	*(u64 *)(r10 - 296) = r3
     813:	85 00 00 00 76 00 00 00	call 118
     814:	77 00 00 00 08 00 00 00	r0 >>= 8
     815:	0f 07 00 00 00 00 00 00	r7 += r0
     816:	63 7a e0 ff 00 00 00 00	*(u32 *)(r10 - 32) = r7
     817:	bf 91 00 00 00 00 00 00	r1 = r9
     818:	67 01 00 00 20 00 00 00	r1 <<= 32
     819:	77 01 00 00 20 00 00 00	r1 >>= 32
     820:	55 01 6a 00 01 00 00 00	if r1 != 1 goto +106 <LBB2_188>
     821:	71 a1 eb ff 00 00 00 00	r1 = *(u8 *)(r10 - 21)
     822:	61 a3 f4 ff 00 00 00 00	r3 = *(u32 *)(r10 - 12)
     823:	05 00 69 00 00 00 00 00	goto +105 <LBB2_189>

00000000000019c0 <LBB2_104>:
     824:	73 35 2a 00 00 00 00 00	*(u8 *)(r5 + 42) = r3
     825:	63 05 30 00 00 00 00 00	*(u32 *)(r5 + 48) = r0
     826:	05 00 07 00 00 00 00 00	goto +7 <LBB2_106>

00000000000019d8 <LBB2_105>:
     827:	b7 06 00 00 01 00 00 00	r6 = 1
     828:	b7 02 00 00 08 00 00 00	r2 = 8
     829:	bf 91 00 00 00 00 00 00	r1 = r9
     830:	67 01 00 00 20 00 00 00	r1 <<= 32
     831:	77 01 00 00 20 00 00 00	r1 >>= 32
     832:	bf 53 00 00 00 00 00 00	r3 = r5
     833:	15 01 04 00 01 00 00 00	if r1 == 1 goto +4 <LBB2_107>

0000000000001a10 <LBB2_106>:
     834:	b7 06 00 00 00 00 00 00	r6 = 0
     835:	b7 02 00 00 18 00 00 00	r2 = 24
     836:	bf 73 00 00 00 00 00 00	r3 = r7
     837:	07 03 00 00 10 00 00 00	r3 += 16

0000000000001a30 <LBB2_107>:
     838:	b7 01 00 00 01 00 00 00	r1 = 1
     839:	b7 04 00 00 01 00 00 00	r4 = 1
     840:	db 43 00 00 00 00 00 00	lock *(u64 *)(r3 + 0) += r4
     841:	0f 27 00 00 00 00 00 00	r7 += r2
     842:	79 a3 e8 fe 00 00 00 00	r3 = *(u64 *)(r10 - 280)
     843:	61 32 00 00 00 00 00 00	r2 = *(u32 *)(r3 + 0)
     844:	61 33 04 00 00 00 00 00	r3 = *(u32 *)(r3 + 4)
     845:	1f 23 00 00 00 00 00 00	r3 -= r2
     846:	db 37 00 00 00 00 00 00	lock *(u64 *)(r7 + 0) += r3
     847:	79 a2 c0 fe 00 00 00 00	r2 = *(u64 *)(r10 - 320)
     848:	67 02 00 00 20 00 00 00	r2 <<= 32
     849:	77 02 00 00 20 00 00 00	r2 >>= 32
     850:	79 a3 d0 fe 00 00 00 00	r3 = *(u64 *)(r10 - 304)
     851:	15 02 2f 00 02 00 00 00	if r2 == 2 goto +47 <LBB2_122>
     852:	79 a7 b8 fe 00 00 00 00	r7 = *(u64 *)(r10 - 328)
     853:	55 02 34 01 01 00 00 00	if r2 != 1 goto +308 <LBB2_201>
     854:	69 51 24 00 00 00 00 00	r1 = *(u16 *)(r5 + 36)
     855:	bf 12 00 00 00 00 00 00	r2 = r1
     856:	77 02 00 00 01 00 00 00	r2 >>= 1
     857:	4f 12 00 00 00 00 00 00	r2 |= r1
     858:	57 02 00 00 01 00 00 00	r2 &= 1
     859:	67 03 00 00 08 00 00 00	r3 <<= 8
     860:	57 03 00 00 00 02 00 00	r3 &= 512
     861:	4f 32 00 00 00 00 00 00	r2 |= r3
     862:	55 02 2b 01 01 02 00 00	if r2 != 513 goto +299 <LBB2_201>
     863:	7b 8a d8 fe 00 00 00 00	*(u64 *)(r10 - 296) = r8
     864:	bf 12 00 00 00 00 00 00	r2 = r1
     865:	57 02 00 00 fc ff 00 00	r2 &= 65532
     866:	7b 5a c0 fe 00 00 00 00	*(u64 *)(r10 - 320) = r5
     867:	6b 25 24 00 00 00 00 00	*(u16 *)(r5 + 36) = r2
     868:	b7 07 00 00 3a 00 00 00	r7 = 58
     869:	79 a2 c8 fe 00 00 00 00	r2 = *(u64 *)(r10 - 312)
     870:	57 02 00 00 ff 00 00 00	r2 &= 255
     871:	55 02 0e 00 06 00 00 00	if r2 != 6 goto +14 <LBB2_113>
     872:	79 a2 d0 fe 00 00 00 00	r2 = *(u64 *)(r10 - 304)
     873:	67 02 00 00 03 00 00 00	r2 <<= 3
     874:	a7 02 00 00 ff ff ff ff	r2 ^= -1
     875:	bf 13 00 00 00 00 00 00	r3 = r1
     876:	4f 23 00 00 00 00 00 00	r3 |= r2
     877:	57 03 00 00 10 00 00 00	r3 &= 16
     878:	57 01 00 00 ec ff 00 00	r1 &= 65516
     879:	bf 32 00 00 00 00 00 00	r2 = r3
     880:	4f 12 00 00 00 00 00 00	r2 |= r1
     881:	79 a1 c0 fe 00 00 00 00	r1 = *(u64 *)(r10 - 320)
     882:	6b 21 24 00 00 00 00 00	*(u16 *)(r1 + 36) = r2
     883:	b7 07 00 00 3a 00 00 00	r7 = 58
     884:	15 03 01 00 00 00 00 00	if r3 == 0 goto +1 <LBB2_113>
     885:	b7 07 00 00 65 52 00 00	r7 = 21093

0000000000001bb0 <LBB2_113>:
     886:	85 00 00 00 76 00 00 00	call 118
     887:	77 00 00 00 08 00 00 00	r0 >>= 8
     888:	0f 07 00 00 00 00 00 00	r7 += r0
     889:	79 a1 c0 fe 00 00 00 00	r1 = *(u64 *)(r10 - 320)
     890:	63 71 20 00 00 00 00 00	*(u32 *)(r1 + 32) = r7
     891:	79 a1 d0 fe 00 00 00 00	r1 = *(u64 *)(r10 - 304)
     892:	57 01 00 00 07 00 00 00	r1 &= 7
     893:	7b 1a d0 fe 00 00 00 00	*(u64 *)(r10 - 304) = r1
     894:	15 06 bb 1f 00 00 00 00	if r6 == 0 goto +8123 <LBB2_115>
     895:	79 a2 c0 fe 00 00 00 00	r2 = *(u64 *)(r10 - 320)
     896:	71 21 2b 00 00 00 00 00	r1 = *(u8 *)(r2 + 43)
     897:	61 23 34 00 00 00 00 00	r3 = *(u32 *)(r2 + 52)
     898:	05 00 ba 1f 00 00 00 00	goto +8122 <LBB2_116>

0000000000001c18 <LBB2_122>:
     899:	79 a7 b8 fe 00 00 00 00	r7 = *(u64 *)(r10 - 328)
     900:	55 06 01 00 00 00 00 00	if r6 != 0 goto +1 <LBB2_124>
     901:	b7 01 00 00 02 00 00 00	r1 = 2

0000000000001c30 <LBB2_124>:
     902:	7b 6a c8 fe 00 00 00 00	*(u64 *)(r10 - 312) = r6
     903:	bf 32 00 00 00 00 00 00	r2 = r3
     904:	57 02 00 00 04 00 00 00	r2 &= 4
     905:	15 02 01 00 00 00 00 00	if r2 == 0 goto +1 <LBB2_126>
     906:	b7 01 00 00 03 00 00 00	r1 = 3

0000000000001c58 <LBB2_126>:
     907:	69 52 24 00 00 00 00 00	r2 = *(u16 *)(r5 + 36)
     908:	4f 12 00 00 00 00 00 00	r2 |= r1
     909:	6b 25 24 00 00 00 00 00	*(u16 *)(r5 + 36) = r2
     910:	57 02 00 00 03 00 00 00	r2 &= 3
     911:	55 02 fa 00 03 00 00 00	if r2 != 3 goto +250 <LBB2_201>
     912:	7b 8a d8 fe 00 00 00 00	*(u64 *)(r10 - 296) = r8
     913:	bf 36 00 00 00 00 00 00	r6 = r3
     914:	bf 58 00 00 00 00 00 00	r8 = r5
     915:	85 00 00 00 76 00 00 00	call 118
     916:	bf 85 00 00 00 00 00 00	r5 = r8
     917:	77 00 00 00 08 00 00 00	r0 >>= 8
     918:	bf 01 00 00 00 00 00 00	r1 = r0
     919:	07 01 00 00 09 00 00 00	r1 += 9
     920:	63 15 20 00 00 00 00 00	*(u32 *)(r5 + 32) = r1
     921:	57 06 00 00 07 00 00 00	r6 &= 7
     922:	79 a1 c8 fe 00 00 00 00	r1 = *(u64 *)(r10 - 312)
     923:	15 01 3b 00 00 00 00 00	if r1 == 0 goto +59 <LBB2_129>
     924:	71 51 2b 00 00 00 00 00	r1 = *(u8 *)(r5 + 43)
     925:	61 53 34 00 00 00 00 00	r3 = *(u32 *)(r5 + 52)
     926:	05 00 3a 00 00 00 00 00	goto +58 <LBB2_130>

0000000000001cf8 <LBB2_188>:
     927:	71 a1 ea ff 00 00 00 00	r1 = *(u8 *)(r10 - 22)
     928:	61 a3 f0 ff 00 00 00 00	r3 = *(u32 *)(r10 - 16)

0000000000001d08 <LBB2_189>:
     929:	79 a7 b8 fe 00 00 00 00	r7 = *(u64 *)(r10 - 328)
     930:	bf 12 00 00 00 00 00 00	r2 = r1
     931:	4f 62 00 00 00 00 00 00	r2 |= r6
     932:	bf 04 00 00 00 00 00 00	r4 = r0
     933:	67 04 00 00 20 00 00 00	r4 <<= 32
     934:	77 04 00 00 20 00 00 00	r4 >>= 32
     935:	07 03 00 00 04 00 00 00	r3 += 4
     936:	2d 34 03 00 00 00 00 00	if r4 > r3 goto +3 <LBB2_191>
     937:	bf 23 00 00 00 00 00 00	r3 = r2
     938:	57 03 00 00 ff 00 00 00	r3 &= 255
     939:	1d 31 08 00 00 00 00 00	if r1 == r3 goto +8 <LBB2_193>

0000000000001d60 <LBB2_191>:
     940:	bf 91 00 00 00 00 00 00	r1 = r9
     941:	67 01 00 00 20 00 00 00	r1 <<= 32
     942:	77 01 00 00 20 00 00 00	r1 >>= 32
     943:	55 01 39 00 01 00 00 00	if r1 != 1 goto +57 <LBB2_195>
     944:	73 2a eb ff 00 00 00 00	*(u8 *)(r10 - 21) = r2
     945:	63 0a f4 ff 00 00 00 00	*(u32 *)(r10 - 12) = r0
     946:	79 a1 d8 fe 00 00 00 00	r1 = *(u64 *)(r10 - 296)
     947:	05 00 05 00 00 00 00 00	goto +5 <LBB2_194>

0000000000001da0 <LBB2_193>:
     948:	bf 92 00 00 00 00 00 00	r2 = r9
     949:	67 02 00 00 20 00 00 00	r2 <<= 32
     950:	77 02 00 00 20 00 00 00	r2 >>= 32
     951:	79 a1 d8 fe 00 00 00 00	r1 = *(u64 *)(r10 - 296)
     952:	55 02 33 00 01 00 00 00	if r2 != 1 goto +51 <LBB2_196>

0000000000001dc8 <LBB2_194>:
     953:	b7 02 00 00 01 00 00 00	r2 = 1
     954:	7b 2a c0 ff 00 00 00 00	*(u64 *)(r10 - 64) = r2
     955:	79 a2 e8 fe 00 00 00 00	r2 = *(u64 *)(r10 - 280)
     956:	61 23 00 00 00 00 00 00	r3 = *(u32 *)(r2 + 0)
     957:	61 22 04 00 00 00 00 00	r2 = *(u32 *)(r2 + 4)
     958:	1f 32 00 00 00 00 00 00	r2 -= r3
     959:	7b 2a c8 ff 00 00 00 00	*(u64 *)(r10 - 56) = r2
     960:	05 00 32 00 00 00 00 00	goto +50 <LBB2_197>

0000000000001e08 <LBB2_143>:
     961:	71 51 2a 00 00 00 00 00	r1 = *(u8 *)(r5 + 42)
     962:	61 54 30 00 00 00 00 00	r4 = *(u32 *)(r5 + 48)

0000000000001e18 <LBB2_144>:
     963:	bf 13 00 00 00 00 00 00	r3 = r1
     964:	4f 23 00 00 00 00 00 00	r3 |= r2
     965:	bf 02 00 00 00 00 00 00	r2 = r0
     966:	67 02 00 00 20 00 00 00	r2 <<= 32
     967:	77 02 00 00 20 00 00 00	r2 >>= 32
     968:	07 04 00 00 04 00 00 00	r4 += 4
     969:	2d 42 03 00 00 00 00 00	if r2 > r4 goto +3 <LBB2_146>
     970:	bf 32 00 00 00 00 00 00	r2 = r3
     971:	57 02 00 00 ff 00 00 00	r2 &= 255
     972:	1d 21 44 00 00 00 00 00	if r1 == r2 goto +68 <LBB2_149>

0000000000001e68 <LBB2_146>:
     973:	bf 91 00 00 00 00 00 00	r1 = r9
     974:	67 01 00 00 20 00 00 00	r1 <<= 32
     975:	77 01 00 00 20 00 00 00	r1 >>= 32
     976:	55 01 3d 00 01 00 00 00	if r1 != 1 goto +61 <LBB2_148>
     977:	73 35 2b 00 00 00 00 00	*(u8 *)(r5 + 43) = r3
     978:	63 05 34 00 00 00 00 00	*(u32 *)(r5 + 52) = r0
     979:	b7 06 00 00 01 00 00 00	r6 = 1
     980:	b7 02 00 00 08 00 00 00	r2 = 8
     981:	bf 53 00 00 00 00 00 00	r3 = r5
     982:	05 00 45 00 00 00 00 00	goto +69 <LBB2_151>

0000000000001eb8 <LBB2_129>:
     983:	71 51 2a 00 00 00 00 00	r1 = *(u8 *)(r5 + 42)
     984:	61 53 30 00 00 00 00 00	r3 = *(u32 *)(r5 + 48)

0000000000001ec8 <LBB2_130>:
     985:	bf 12 00 00 00 00 00 00	r2 = r1
     986:	4f 62 00 00 00 00 00 00	r2 |= r6
     987:	bf 04 00 00 00 00 00 00	r4 = r0
     988:	67 04 00 00 20 00 00 00	r4 <<= 32
     989:	77 04 00 00 20 00 00 00	r4 >>= 32
     990:	07 03 00 00 04 00 00 00	r3 += 4
     991:	79 a8 d8 fe 00 00 00 00	r8 = *(u64 *)(r10 - 296)
     992:	2d 34 03 00 00 00 00 00	if r4 > r3 goto +3 <LBB2_132>
     993:	bf 23 00 00 00 00 00 00	r3 = r2
     994:	57 03 00 00 ff 00 00 00	r3 &= 255
     995:	1d 31 a6 00 00 00 00 00	if r1 == r3 goto +166 <LBB2_201>

0000000000001f20 <LBB2_132>:
     996:	79 a1 c8 fe 00 00 00 00	r1 = *(u64 *)(r10 - 312)
     997:	15 01 8e 00 00 00 00 00	if r1 == 0 goto +142 <LBB2_200>
     998:	73 25 2b 00 00 00 00 00	*(u8 *)(r5 + 43) = r2
     999:	63 05 34 00 00 00 00 00	*(u32 *)(r5 + 52) = r0
    1000:	05 00 a1 00 00 00 00 00	goto +161 <LBB2_201>

0000000000001f48 <LBB2_195>:
    1001:	73 2a ea ff 00 00 00 00	*(u8 *)(r10 - 22) = r2
    1002:	63 0a f0 ff 00 00 00 00	*(u32 *)(r10 - 16) = r0
    1003:	79 a1 d8 fe 00 00 00 00	r1 = *(u64 *)(r10 - 296)

0000000000001f60 <LBB2_196>:
    1004:	b7 02 00 00 01 00 00 00	r2 = 1
    1005:	7b 2a d0 ff 00 00 00 00	*(u64 *)(r10 - 48) = r2
    1006:	79 a2 e8 fe 00 00 00 00	r2 = *(u64 *)(r10 - 280)
    1007:	61 23 00 00 00 00 00 00	r3 = *(u32 *)(r2 + 0)
    1008:	61 22 04 00 00 00 00 00	r2 = *(u32 *)(r2 + 4)
    1009:	1f 32 00 00 00 00 00 00	r2 -= r3
    1010:	7b 2a d8 ff 00 00 00 00	*(u64 *)(r10 - 40) = r2

0000000000001f98 <LBB2_197>:
    1011:	b7 06 00 00 00 00 00 00	r6 = 0
    1012:	63 6a ec ff 00 00 00 00	*(u32 *)(r10 - 20) = r6
    1013:	bf a2 00 00 00 00 00 00	r2 = r10
    1014:	07 02 00 00 98 ff ff ff	r2 += -104
    1015:	bf a3 00 00 00 00 00 00	r3 = r10
    1016:	07 03 00 00 c0 ff ff ff	r3 += -64
    1017:	b7 04 00 00 00 00 00 00	r4 = 0
    1018:	85 00 00 00 02 00 00 00	call 2
    1019:	67 00 00 00 20 00 00 00	r0 <<= 32
    1020:	c7 00 00 00 20 00 00 00	r0 s>>= 32
    1021:	6d 06 01 00 00 00 00 00	if r6 s> r0 goto +1 <LBB2_199>
    1022:	05 00 8b 00 00 00 00 00	goto +139 <LBB2_201>

0000000000001ff8 <LBB2_199>:
    1023:	18 01 00 00 01 00 00 00 00 00 00 00 01 00 00 00	r1 = 4294967297 ll
    1025:	7b 1a f8 ff 00 00 00 00	*(u64 *)(r10 - 8) = r1
    1026:	bf a4 00 00 00 00 00 00	r4 = r10
    1027:	07 04 00 00 f8 ff ff ff	r4 += -8
    1028:	79 a1 e8 fe 00 00 00 00	r1 = *(u64 *)(r10 - 280)
    1029:	18 02 00 00 00 00 00 00 00 00 00 00 00 00 00 00	r2 = 0 ll
    1031:	18 03 00 00 ff ff ff ff 00 00 00 00 00 00 00 00	r3 = 4294967295 ll
    1033:	b7 05 00 00 08 00 00 00	r5 = 8
    1034:	85 00 00 00 19 00 00 00	call 25
    1035:	18 06 00 00 65 ff ff ff 00 00 00 00 00 00 00 00	r6 = 4294967141 ll
    1037:	05 00 c8 1d 00 00 00 00	goto +7624 <LBB2_842>

0000000000002070 <LBB2_148>:
    1038:	73 35 2a 00 00 00 00 00	*(u8 *)(r5 + 42) = r3
    1039:	63 05 30 00 00 00 00 00	*(u32 *)(r5 + 48) = r0
    1040:	05 00 07 00 00 00 00 00	goto +7 <LBB2_150>

0000000000002088 <LBB2_149>:
    1041:	b7 06 00 00 01 00 00 00	r6 = 1
    1042:	b7 02 00 00 08 00 00 00	r2 = 8
    1043:	bf 91 00 00 00 00 00 00	r1 = r9
    1044:	67 01 00 00 20 00 00 00	r1 <<= 32
    1045:	77 01 00 00 20 00 00 00	r1 >>= 32
    1046:	bf 53 00 00 00 00 00 00	r3 = r5
    1047:	15 01 04 00 01 00 00 00	if r1 == 1 goto +4 <LBB2_151>

00000000000020c0 <LBB2_150>:
    1048:	b7 06 00 00 00 00 00 00	r6 = 0
    1049:	b7 02 00 00 18 00 00 00	r2 = 24
    1050:	bf 73 00 00 00 00 00 00	r3 = r7
    1051:	07 03 00 00 10 00 00 00	r3 += 16

00000000000020e0 <LBB2_151>:
    1052:	b7 01 00 00 01 00 00 00	r1 = 1
    1053:	b7 04 00 00 01 00 00 00	r4 = 1
    1054:	db 43 00 00 00 00 00 00	lock *(u64 *)(r3 + 0) += r4
    1055:	0f 27 00 00 00 00 00 00	r7 += r2
    1056:	79 a3 e8 fe 00 00 00 00	r3 = *(u64 *)(r10 - 280)
    1057:	61 32 00 00 00 00 00 00	r2 = *(u32 *)(r3 + 0)
    1058:	61 33 04 00 00 00 00 00	r3 = *(u32 *)(r3 + 4)
    1059:	1f 23 00 00 00 00 00 00	r3 -= r2
    1060:	db 37 00 00 00 00 00 00	lock *(u64 *)(r7 + 0) += r3
    1061:	79 a2 c0 fe 00 00 00 00	r2 = *(u64 *)(r10 - 320)
    1062:	67 02 00 00 20 00 00 00	r2 <<= 32
    1063:	77 02 00 00 20 00 00 00	r2 >>= 32
    1064:	79 a3 d0 fe 00 00 00 00	r3 = *(u64 *)(r10 - 304)
    1065:	15 02 2f 00 02 00 00 00	if r2 == 2 goto +47 <LBB2_165>
    1066:	79 a7 b8 fe 00 00 00 00	r7 = *(u64 *)(r10 - 328)
    1067:	55 02 5e 00 01 00 00 00	if r2 != 1 goto +94 <LBB2_201>
    1068:	69 51 24 00 00 00 00 00	r1 = *(u16 *)(r5 + 36)
    1069:	bf 12 00 00 00 00 00 00	r2 = r1
    1070:	77 02 00 00 01 00 00 00	r2 >>= 1
    1071:	4f 12 00 00 00 00 00 00	r2 |= r1
    1072:	57 02 00 00 01 00 00 00	r2 &= 1
    1073:	67 03 00 00 08 00 00 00	r3 <<= 8
    1074:	57 03 00 00 00 02 00 00	r3 &= 512
    1075:	4f 32 00 00 00 00 00 00	r2 |= r3
    1076:	55 02 55 00 01 02 00 00	if r2 != 513 goto +85 <LBB2_201>
    1077:	7b 8a d8 fe 00 00 00 00	*(u64 *)(r10 - 296) = r8
    1078:	bf 12 00 00 00 00 00 00	r2 = r1
    1079:	57 02 00 00 fc ff 00 00	r2 &= 65532
    1080:	7b 5a b0 fe 00 00 00 00	*(u64 *)(r10 - 336) = r5
    1081:	6b 25 24 00 00 00 00 00	*(u16 *)(r5 + 36) = r2
    1082:	b7 07 00 00 3a 00 00 00	r7 = 58
    1083:	79 a2 c8 fe 00 00 00 00	r2 = *(u64 *)(r10 - 312)
    1084:	57 02 00 00 ff 00 00 00	r2 &= 255
    1085:	55 02 0e 00 06 00 00 00	if r2 != 6 goto +14 <LBB2_157>
    1086:	79 a2 d0 fe 00 00 00 00	r2 = *(u64 *)(r10 - 304)
    1087:	67 02 00 00 03 00 00 00	r2 <<= 3
    1088:	a7 02 00 00 ff ff ff ff	r2 ^= -1
    1089:	bf 13 00 00 00 00 00 00	r3 = r1
    1090:	4f 23 00 00 00 00 00 00	r3 |= r2
    1091:	57 03 00 00 10 00 00 00	r3 &= 16
    1092:	57 01 00 00 ec ff 00 00	r1 &= 65516
    1093:	bf 32 00 00 00 00 00 00	r2 = r3
    1094:	4f 12 00 00 00 00 00 00	r2 |= r1
    1095:	79 a1 b0 fe 00 00 00 00	r1 = *(u64 *)(r10 - 336)
    1096:	6b 21 24 00 00 00 00 00	*(u16 *)(r1 + 36) = r2
    1097:	b7 07 00 00 3a 00 00 00	r7 = 58
    1098:	15 03 01 00 00 00 00 00	if r3 == 0 goto +1 <LBB2_157>
    1099:	b7 07 00 00 65 52 00 00	r7 = 21093

0000000000002260 <LBB2_157>:
    1100:	85 00 00 00 76 00 00 00	call 118
    1101:	77 00 00 00 08 00 00 00	r0 >>= 8
    1102:	0f 07 00 00 00 00 00 00	r7 += r0
    1103:	79 a1 b0 fe 00 00 00 00	r1 = *(u64 *)(r10 - 336)
    1104:	63 71 20 00 00 00 00 00	*(u32 *)(r1 + 32) = r7
    1105:	79 a1 d0 fe 00 00 00 00	r1 = *(u64 *)(r10 - 304)
    1106:	57 01 00 00 07 00 00 00	r1 &= 7
    1107:	7b 1a d0 fe 00 00 00 00	*(u64 *)(r10 - 304) = r1
    1108:	15 06 fe 1e 00 00 00 00	if r6 == 0 goto +7934 <LBB2_159>
    1109:	79 a2 b0 fe 00 00 00 00	r2 = *(u64 *)(r10 - 336)
    1110:	71 21 2b 00 00 00 00 00	r1 = *(u8 *)(r2 + 43)
    1111:	61 23 34 00 00 00 00 00	r3 = *(u32 *)(r2 + 52)
    1112:	05 00 fd 1e 00 00 00 00	goto +7933 <LBB2_160>

00000000000022c8 <LBB2_165>:
    1113:	55 06 01 00 00 00 00 00	if r6 != 0 goto +1 <LBB2_167>
    1114:	b7 01 00 00 02 00 00 00	r1 = 2

00000000000022d8 <LBB2_167>:
    1115:	7b 6a d8 fe 00 00 00 00	*(u64 *)(r10 - 296) = r6
    1116:	bf 32 00 00 00 00 00 00	r2 = r3
    1117:	57 02 00 00 04 00 00 00	r2 &= 4
    1118:	79 a7 b8 fe 00 00 00 00	r7 = *(u64 *)(r10 - 328)
    1119:	15 02 01 00 00 00 00 00	if r2 == 0 goto +1 <LBB2_169>
    1120:	b7 01 00 00 03 00 00 00	r1 = 3

0000000000002308 <LBB2_169>:
    1121:	69 52 24 00 00 00 00 00	r2 = *(u16 *)(r5 + 36)
    1122:	4f 12 00 00 00 00 00 00	r2 |= r1
    1123:	6b 25 24 00 00 00 00 00	*(u16 *)(r5 + 36) = r2
    1124:	57 02 00 00 03 00 00 00	r2 &= 3
    1125:	55 02 24 00 03 00 00 00	if r2 != 3 goto +36 <LBB2_201>
    1126:	bf 36 00 00 00 00 00 00	r6 = r3
    1127:	7b 5a b0 fe 00 00 00 00	*(u64 *)(r10 - 336) = r5
    1128:	85 00 00 00 76 00 00 00	call 118
    1129:	79 a5 b0 fe 00 00 00 00	r5 = *(u64 *)(r10 - 336)
    1130:	77 00 00 00 08 00 00 00	r0 >>= 8
    1131:	bf 01 00 00 00 00 00 00	r1 = r0
    1132:	07 01 00 00 09 00 00 00	r1 += 9
    1133:	63 15 20 00 00 00 00 00	*(u32 *)(r5 + 32) = r1
    1134:	57 06 00 00 07 00 00 00	r6 &= 7
    1135:	79 a1 d8 fe 00 00 00 00	r1 = *(u64 *)(r10 - 296)
    1136:	15 01 06 00 00 00 00 00	if r1 == 0 goto +6 <LBB2_172>
    1137:	71 51 2b 00 00 00 00 00	r1 = *(u8 *)(r5 + 43)
    1138:	61 53 34 00 00 00 00 00	r3 = *(u32 *)(r5 + 52)
    1139:	05 00 05 00 00 00 00 00	goto +5 <LBB2_173>

00000000000023a0 <LBB2_200>:
    1140:	73 25 2a 00 00 00 00 00	*(u8 *)(r5 + 42) = r2
    1141:	63 05 30 00 00 00 00 00	*(u32 *)(r5 + 48) = r0
    1142:	05 00 13 00 00 00 00 00	goto +19 <LBB2_201>

00000000000023b8 <LBB2_172>:
    1143:	71 51 2a 00 00 00 00 00	r1 = *(u8 *)(r5 + 42)
    1144:	61 53 30 00 00 00 00 00	r3 = *(u32 *)(r5 + 48)

00000000000023c8 <LBB2_173>:
    1145:	bf 12 00 00 00 00 00 00	r2 = r1
    1146:	4f 62 00 00 00 00 00 00	r2 |= r6
    1147:	bf 04 00 00 00 00 00 00	r4 = r0
    1148:	67 04 00 00 20 00 00 00	r4 <<= 32
    1149:	77 04 00 00 20 00 00 00	r4 >>= 32
    1150:	07 03 00 00 04 00 00 00	r3 += 4
    1151:	2d 34 03 00 00 00 00 00	if r4 > r3 goto +3 <LBB2_175>
    1152:	bf 23 00 00 00 00 00 00	r3 = r2
    1153:	57 03 00 00 ff 00 00 00	r3 &= 255
    1154:	1d 31 07 00 00 00 00 00	if r1 == r3 goto +7 <LBB2_201>

0000000000002418 <LBB2_175>:
    1155:	79 a1 d8 fe 00 00 00 00	r1 = *(u64 *)(r10 - 296)
    1156:	15 01 03 00 00 00 00 00	if r1 == 0 goto +3 <LBB2_177>
    1157:	73 25 2b 00 00 00 00 00	*(u8 *)(r5 + 43) = r2
    1158:	63 05 34 00 00 00 00 00	*(u32 *)(r5 + 52) = r0
    1159:	05 00 02 00 00 00 00 00	goto +2 <LBB2_201>

0000000000002440 <LBB2_177>:
    1160:	73 25 2a 00 00 00 00 00	*(u8 *)(r5 + 42) = r2
    1161:	63 05 30 00 00 00 00 00	*(u32 *)(r5 + 48) = r0

0000000000002450 <LBB2_201>:
    1162:	55 08 92 1a 00 00 00 00	if r8 != 0 goto +6802 <LBB2_729>

0000000000002458 <LBB2_202>:
    1163:	bf 91 00 00 00 00 00 00	r1 = r9
    1164:	67 01 00 00 20 00 00 00	r1 <<= 32
    1165:	77 01 00 00 20 00 00 00	r1 >>= 32
    1166:	55 01 0a 00 01 00 00 00	if r1 != 1 goto +10 <LBB2_206>
    1167:	18 06 00 00 59 ff ff ff 00 00 00 00 00 00 00 00	r6 = 4294967129 ll
    1169:	71 a1 5c ff 00 00 00 00	r1 = *(u8 *)(r10 - 164)
    1170:	15 01 43 1d 3a 00 00 00	if r1 == 58 goto +7491 <LBB2_842>
    1171:	69 a1 58 ff 00 00 00 00	r1 = *(u16 *)(r10 - 168)
    1172:	57 01 00 00 80 00 00 00	r1 &= 128
    1173:	b7 06 00 00 53 ff ff ff	r6 = -173
    1174:	15 01 3f 1d 00 00 00 00	if r1 == 0 goto +7487 <LBB2_842>
    1175:	b7 06 00 00 59 ff ff ff	r6 = -167
    1176:	05 00 3d 1d 00 00 00 00	goto +7485 <LBB2_842>

00000000000024c8 <LBB2_206>:
    1177:	b7 01 00 00 00 00 00 00	r1 = 0
    1178:	7b 1a f0 ff 00 00 00 00	*(u64 *)(r10 - 16) = r1
    1179:	7b 1a e8 ff 00 00 00 00	*(u64 *)(r10 - 24) = r1
    1180:	7b 1a e0 ff 00 00 00 00	*(u64 *)(r10 - 32) = r1
    1181:	7b 1a d8 ff 00 00 00 00	*(u64 *)(r10 - 40) = r1
    1182:	7b 1a d0 ff 00 00 00 00	*(u64 *)(r10 - 48) = r1
    1183:	7b 1a c8 ff 00 00 00 00	*(u64 *)(r10 - 56) = r1
    1184:	7b 1a c0 ff 00 00 00 00	*(u64 *)(r10 - 64) = r1
    1185:	7b 1a 60 ff 00 00 00 00	*(u64 *)(r10 - 160) = r1
    1186:	7b 1a 68 ff 00 00 00 00	*(u64 *)(r10 - 152) = r1
    1187:	7b 1a 70 ff 00 00 00 00	*(u64 *)(r10 - 144) = r1
    1188:	7b 1a 78 ff 00 00 00 00	*(u64 *)(r10 - 136) = r1
    1189:	7b 1a 80 ff 00 00 00 00	*(u64 *)(r10 - 128) = r1
    1190:	7b 1a 88 ff 00 00 00 00	*(u64 *)(r10 - 120) = r1
    1191:	7b 1a 90 ff 00 00 00 00	*(u64 *)(r10 - 112) = r1
    1192:	79 72 00 00 00 00 00 00	r2 = *(u64 *)(r7 + 0)
    1193:	7b 2a e0 ff 00 00 00 00	*(u64 *)(r10 - 32) = r2
    1194:	79 72 08 00 00 00 00 00	r2 = *(u64 *)(r7 + 8)
    1195:	7b 2a e8 ff 00 00 00 00	*(u64 *)(r10 - 24) = r2
    1196:	18 02 00 00 20 01 48 98 00 00 00 00 00 30 00 21	r2 = 2377953382364610848 ll
    1198:	7b 2a 80 ff 00 00 00 00	*(u64 *)(r10 - 128) = r2
    1199:	18 02 00 00 af 61 5c 8b 00 00 00 00 1c 6c e1 5b	r2 = 6620691797064311215 ll
    1201:	7b 2a 88 ff 00 00 00 00	*(u64 *)(r10 - 120) = r2
    1202:	69 a0 5a ff 00 00 00 00	r0 = *(u16 *)(r10 - 166)
    1203:	6b 0a f0 ff 00 00 00 00	*(u16 *)(r10 - 16) = r0
    1204:	71 a2 5c ff 00 00 00 00	r2 = *(u8 *)(r10 - 164)
    1205:	73 2a bc ff 00 00 00 00	*(u8 *)(r10 - 68) = r2
    1206:	79 72 08 00 00 00 00 00	r2 = *(u64 *)(r7 + 8)
    1207:	7b 2a a0 ff 00 00 00 00	*(u64 *)(r10 - 96) = r2
    1208:	79 72 00 00 00 00 00 00	r2 = *(u64 *)(r7 + 0)
    1209:	7b 2a 98 ff 00 00 00 00	*(u64 *)(r10 - 104) = r2
    1210:	79 a2 40 ff 00 00 00 00	r2 = *(u64 *)(r10 - 192)
    1211:	7b 2a b0 ff 00 00 00 00	*(u64 *)(r10 - 80) = r2
    1212:	79 a2 38 ff 00 00 00 00	r2 = *(u64 *)(r10 - 200)
    1213:	7b 2a a8 ff 00 00 00 00	*(u64 *)(r10 - 88) = r2
    1214:	6b 0a b8 ff 00 00 00 00	*(u16 *)(r10 - 72) = r0
    1215:	69 a2 58 ff 00 00 00 00	r2 = *(u16 *)(r10 - 168)
    1216:	6b 2a ba ff 00 00 00 00	*(u16 *)(r10 - 70) = r2
    1217:	b7 02 00 00 01 00 00 00	r2 = 1
    1218:	71 a3 5d ff 00 00 00 00	r3 = *(u8 *)(r10 - 163)
    1219:	15 03 01 00 00 00 00 00	if r3 == 0 goto +1 <LBB2_208>
    1220:	b7 02 00 00 00 00 00 00	r2 = 0

0000000000002628 <LBB2_208>:
    1221:	73 2a bd ff 00 00 00 00	*(u8 *)(r10 - 67) = r2
    1222:	dc 00 00 00 40 00 00 00	r0 = be64 r0
    1223:	c7 00 00 00 30 00 00 00	r0 s>>= 48
    1224:	6d 01 06 00 00 00 00 00	if r1 s> r0 goto +6 <LBB2_210>
    1225:	85 00 00 00 07 00 00 00	call 7
    1226:	bf 01 00 00 00 00 00 00	r1 = r0
    1227:	57 01 00 00 ff ff 00 00	r1 &= 65535
    1228:	37 01 00 00 ff 7f 00 00	r1 /= 32767
    1229:	0f 10 00 00 00 00 00 00	r0 += r1
    1230:	47 00 00 00 00 80 ff ff	r0 |= -32768

0000000000002678 <LBB2_210>:
    1231:	bf 76 00 00 00 00 00 00	r6 = r7
    1232:	18 01 00 00 af 61 5c 8b 00 00 00 00 1c 6c e1 5b	r1 = 6620691797064311215 ll
    1234:	7b 1a a0 ff 00 00 00 00	*(u64 *)(r10 - 96) = r1
    1235:	dc 00 00 00 10 00 00 00	r0 = be16 r0
    1236:	6b 0a b8 ff 00 00 00 00	*(u16 *)(r10 - 72) = r0
    1237:	6b 0a 90 ff 00 00 00 00	*(u16 *)(r10 - 112) = r0
    1238:	79 a2 50 ff 00 00 00 00	r2 = *(u64 *)(r10 - 176)
    1239:	18 03 00 00 20 01 48 98 00 00 00 00 00 30 00 21	r3 = 2377953382364610848 ll
    1241:	7b 3a 98 ff 00 00 00 00	*(u64 *)(r10 - 104) = r3
    1242:	79 a4 48 ff 00 00 00 00	r4 = *(u64 *)(r10 - 184)
    1243:	5d 34 04 00 00 00 00 00	if r4 != r3 goto +4 <LBB2_213>
    1244:	5d 12 03 00 00 00 00 00	if r2 != r1 goto +3 <LBB2_213>
    1245:	b7 01 00 00 01 00 00 00	r1 = 1
    1246:	7b 1a c8 ff 00 00 00 00	*(u64 *)(r10 - 56) = r1
    1247:	7b 1a 68 ff 00 00 00 00	*(u64 *)(r10 - 152) = r1

0000000000002700 <LBB2_213>:
    1248:	bf a2 00 00 00 00 00 00	r2 = r10
    1249:	07 02 00 00 98 ff ff ff	r2 += -104
    1250:	18 01 00 00 00 00 00 00 00 00 00 00 00 00 00 00	r1 = 0 ll
    1252:	85 00 00 00 01 00 00 00	call 1
    1253:	18 07 00 00 59 ff ff ff 00 00 00 00 00 00 00 00	r7 = 4294967129 ll
    1255:	55 00 23 00 00 00 00 00	if r0 != 0 goto +35 <LBB2_217>
    1256:	85 00 00 00 76 00 00 00	call 118
    1257:	77 00 00 00 08 00 00 00	r0 >>= 8
    1258:	7b 0a 60 ff 00 00 00 00	*(u64 *)(r10 - 160) = r0
    1259:	7b 0a c0 ff 00 00 00 00	*(u64 *)(r10 - 64) = r0
    1260:	bf a2 00 00 00 00 00 00	r2 = r10
    1261:	07 02 00 00 98 ff ff ff	r2 += -104
    1262:	bf a3 00 00 00 00 00 00	r3 = r10
    1263:	07 03 00 00 c0 ff ff ff	r3 += -64
    1264:	18 01 00 00 00 00 00 00 00 00 00 00 00 00 00 00	r1 = 0 ll
    1266:	b7 04 00 00 01 00 00 00	r4 = 1
    1267:	85 00 00 00 02 00 00 00	call 2
    1268:	bf 07 00 00 00 00 00 00	r7 = r0
    1269:	bf 71 00 00 00 00 00 00	r1 = r7
    1270:	67 01 00 00 20 00 00 00	r1 <<= 32
    1271:	77 01 00 00 20 00 00 00	r1 >>= 32
    1272:	55 01 12 00 00 00 00 00	if r1 != 0 goto +18 <LBB2_217>
    1273:	bf a2 00 00 00 00 00 00	r2 = r10
    1274:	07 02 00 00 38 ff ff ff	r2 += -200
    1275:	bf a3 00 00 00 00 00 00	r3 = r10
    1276:	07 03 00 00 60 ff ff ff	r3 += -160
    1277:	18 01 00 00 00 00 00 00 00 00 00 00 00 00 00 00	r1 = 0 ll
    1279:	b7 04 00 00 01 00 00 00	r4 = 1
    1280:	85 00 00 00 02 00 00 00	call 2
    1281:	bf 07 00 00 00 00 00 00	r7 = r0
    1282:	bf 71 00 00 00 00 00 00	r1 = r7
    1283:	67 01 00 00 20 00 00 00	r1 <<= 32
    1284:	77 01 00 00 20 00 00 00	r1 >>= 32
    1285:	15 01 14 1a 00 00 00 00	if r1 == 0 goto +6676 <LBB2_728>
    1286:	bf a2 00 00 00 00 00 00	r2 = r10
    1287:	07 02 00 00 98 ff ff ff	r2 += -104
    1288:	18 01 00 00 00 00 00 00 00 00 00 00 00 00 00 00	r1 = 0 ll
    1290:	85 00 00 00 03 00 00 00	call 3

0000000000002858 <LBB2_217>:
    1291:	85 00 00 00 07 00 00 00	call 7
    1292:	bf 08 00 00 00 00 00 00	r8 = r0
    1293:	bf 81 00 00 00 00 00 00	r1 = r8
    1294:	57 01 00 00 ff ff 00 00	r1 &= 65535
    1295:	37 01 00 00 ff 7f 00 00	r1 /= 32767
    1296:	0f 18 00 00 00 00 00 00	r8 += r1
    1297:	47 08 00 00 00 80 ff ff	r8 |= -32768
    1298:	bf 81 00 00 00 00 00 00	r1 = r8
    1299:	dc 01 00 00 10 00 00 00	r1 = be16 r1
    1300:	6b 1a 90 ff 00 00 00 00	*(u16 *)(r10 - 112) = r1
    1301:	6b 1a b8 ff 00 00 00 00	*(u16 *)(r10 - 72) = r1
    1302:	bf a2 00 00 00 00 00 00	r2 = r10
    1303:	07 02 00 00 98 ff ff ff	r2 += -104
    1304:	18 01 00 00 00 00 00 00 00 00 00 00 00 00 00 00	r1 = 0 ll
    1306:	85 00 00 00 01 00 00 00	call 1
    1307:	15 00 da 19 00 00 00 00	if r0 == 0 goto +6618 <LBB2_220>

00000000000028e0 <LBB2_223>:
    1308:	07 08 00 00 01 00 00 00	r8 += 1
    1309:	bf 81 00 00 00 00 00 00	r1 = r8
    1310:	57 01 00 00 ff ff 00 00	r1 &= 65535
    1311:	37 01 00 00 ff 7f 00 00	r1 /= 32767
    1312:	0f 18 00 00 00 00 00 00	r8 += r1
    1313:	47 08 00 00 00 80 ff ff	r8 |= -32768
    1314:	bf 81 00 00 00 00 00 00	r1 = r8
    1315:	dc 01 00 00 10 00 00 00	r1 = be16 r1
    1316:	6b 1a b8 ff 00 00 00 00	*(u16 *)(r10 - 72) = r1
    1317:	6b 1a 90 ff 00 00 00 00	*(u16 *)(r10 - 112) = r1
    1318:	bf a2 00 00 00 00 00 00	r2 = r10
    1319:	07 02 00 00 98 ff ff ff	r2 += -104
    1320:	18 01 00 00 00 00 00 00 00 00 00 00 00 00 00 00	r1 = 0 ll
    1322:	85 00 00 00 01 00 00 00	call 1
    1323:	55 00 23 00 00 00 00 00	if r0 != 0 goto +35 <LBB2_227>
    1324:	85 00 00 00 76 00 00 00	call 118
    1325:	77 00 00 00 08 00 00 00	r0 >>= 8
    1326:	7b 0a 60 ff 00 00 00 00	*(u64 *)(r10 - 160) = r0
    1327:	7b 0a c0 ff 00 00 00 00	*(u64 *)(r10 - 64) = r0
    1328:	bf a2 00 00 00 00 00 00	r2 = r10
    1329:	07 02 00 00 98 ff ff ff	r2 += -104
    1330:	bf a3 00 00 00 00 00 00	r3 = r10
    1331:	07 03 00 00 c0 ff ff ff	r3 += -64
    1332:	18 01 00 00 00 00 00 00 00 00 00 00 00 00 00 00	r1 = 0 ll
    1334:	b7 04 00 00 01 00 00 00	r4 = 1
    1335:	85 00 00 00 02 00 00 00	call 2
    1336:	bf 07 00 00 00 00 00 00	r7 = r0
    1337:	bf 71 00 00 00 00 00 00	r1 = r7
    1338:	67 01 00 00 20 00 00 00	r1 <<= 32
    1339:	77 01 00 00 20 00 00 00	r1 >>= 32
    1340:	55 01 12 00 00 00 00 00	if r1 != 0 goto +18 <LBB2_227>
    1341:	bf a2 00 00 00 00 00 00	r2 = r10
    1342:	07 02 00 00 38 ff ff ff	r2 += -200
    1343:	bf a3 00 00 00 00 00 00	r3 = r10
    1344:	07 03 00 00 60 ff ff ff	r3 += -160
    1345:	18 01 00 00 00 00 00 00 00 00 00 00 00 00 00 00	r1 = 0 ll
    1347:	b7 04 00 00 01 00 00 00	r4 = 1
    1348:	85 00 00 00 02 00 00 00	call 2
    1349:	bf 07 00 00 00 00 00 00	r7 = r0
    1350:	bf 71 00 00 00 00 00 00	r1 = r7
    1351:	67 01 00 00 20 00 00 00	r1 <<= 32
    1352:	77 01 00 00 20 00 00 00	r1 >>= 32
    1353:	15 01 d0 19 00 00 00 00	if r1 == 0 goto +6608 <LBB2_728>
    1354:	bf a2 00 00 00 00 00 00	r2 = r10
    1355:	07 02 00 00 98 ff ff ff	r2 += -104
    1356:	18 01 00 00 00 00 00 00 00 00 00 00 00 00 00 00	r1 = 0 ll
    1358:	85 00 00 00 03 00 00 00	call 3

0000000000002a78 <LBB2_227>:
    1359:	07 08 00 00 01 00 00 00	r8 += 1
    1360:	bf 81 00 00 00 00 00 00	r1 = r8
    1361:	57 01 00 00 ff ff 00 00	r1 &= 65535
    1362:	37 01 00 00 ff 7f 00 00	r1 /= 32767
    1363:	0f 18 00 00 00 00 00 00	r8 += r1
    1364:	47 08 00 00 00 80 ff ff	r8 |= -32768
    1365:	bf 81 00 00 00 00 00 00	r1 = r8
    1366:	dc 01 00 00 10 00 00 00	r1 = be16 r1
    1367:	6b 1a b8 ff 00 00 00 00	*(u16 *)(r10 - 72) = r1
    1368:	6b 1a 90 ff 00 00 00 00	*(u16 *)(r10 - 112) = r1
    1369:	bf a2 00 00 00 00 00 00	r2 = r10
    1370:	07 02 00 00 98 ff ff ff	r2 += -104
    1371:	18 01 00 00 00 00 00 00 00 00 00 00 00 00 00 00	r1 = 0 ll
    1373:	85 00 00 00 01 00 00 00	call 1
    1374:	55 00 23 00 00 00 00 00	if r0 != 0 goto +35 <LBB2_231>
    1375:	85 00 00 00 76 00 00 00	call 118
    1376:	77 00 00 00 08 00 00 00	r0 >>= 8
    1377:	7b 0a 60 ff 00 00 00 00	*(u64 *)(r10 - 160) = r0
    1378:	7b 0a c0 ff 00 00 00 00	*(u64 *)(r10 - 64) = r0
    1379:	bf a2 00 00 00 00 00 00	r2 = r10
    1380:	07 02 00 00 98 ff ff ff	r2 += -104
    1381:	bf a3 00 00 00 00 00 00	r3 = r10
    1382:	07 03 00 00 c0 ff ff ff	r3 += -64
    1383:	18 01 00 00 00 00 00 00 00 00 00 00 00 00 00 00	r1 = 0 ll
    1385:	b7 04 00 00 01 00 00 00	r4 = 1
    1386:	85 00 00 00 02 00 00 00	call 2
    1387:	bf 07 00 00 00 00 00 00	r7 = r0
    1388:	bf 71 00 00 00 00 00 00	r1 = r7
    1389:	67 01 00 00 20 00 00 00	r1 <<= 32
    1390:	77 01 00 00 20 00 00 00	r1 >>= 32
    1391:	55 01 12 00 00 00 00 00	if r1 != 0 goto +18 <LBB2_231>
    1392:	bf a2 00 00 00 00 00 00	r2 = r10
    1393:	07 02 00 00 38 ff ff ff	r2 += -200
    1394:	bf a3 00 00 00 00 00 00	r3 = r10
    1395:	07 03 00 00 60 ff ff ff	r3 += -160
    1396:	18 01 00 00 00 00 00 00 00 00 00 00 00 00 00 00	r1 = 0 ll
    1398:	b7 04 00 00 01 00 00 00	r4 = 1
    1399:	85 00 00 00 02 00 00 00	call 2
    1400:	bf 07 00 00 00 00 00 00	r7 = r0
    1401:	bf 71 00 00 00 00 00 00	r1 = r7
    1402:	67 01 00 00 20 00 00 00	r1 <<= 32
    1403:	77 01 00 00 20 00 00 00	r1 >>= 32
    1404:	15 01 9d 19 00 00 00 00	if r1 == 0 goto +6557 <LBB2_728>
    1405:	bf a2 00 00 00 00 00 00	r2 = r10
    1406:	07 02 00 00 98 ff ff ff	r2 += -104
    1407:	18 01 00 00 00 00 00 00 00 00 00 00 00 00 00 00	r1 = 0 ll
    1409:	85 00 00 00 03 00 00 00	call 3

0000000000002c10 <LBB2_231>:
    1410:	07 08 00 00 01 00 00 00	r8 += 1
    1411:	bf 81 00 00 00 00 00 00	r1 = r8
    1412:	57 01 00 00 ff ff 00 00	r1 &= 65535
    1413:	37 01 00 00 ff 7f 00 00	r1 /= 32767
    1414:	0f 18 00 00 00 00 00 00	r8 += r1
    1415:	47 08 00 00 00 80 ff ff	r8 |= -32768
    1416:	bf 81 00 00 00 00 00 00	r1 = r8
    1417:	dc 01 00 00 10 00 00 00	r1 = be16 r1
    1418:	6b 1a b8 ff 00 00 00 00	*(u16 *)(r10 - 72) = r1
    1419:	6b 1a 90 ff 00 00 00 00	*(u16 *)(r10 - 112) = r1
    1420:	bf a2 00 00 00 00 00 00	r2 = r10
    1421:	07 02 00 00 98 ff ff ff	r2 += -104
    1422:	18 01 00 00 00 00 00 00 00 00 00 00 00 00 00 00	r1 = 0 ll
    1424:	85 00 00 00 01 00 00 00	call 1
    1425:	55 00 23 00 00 00 00 00	if r0 != 0 goto +35 <LBB2_235>
    1426:	85 00 00 00 76 00 00 00	call 118
    1427:	77 00 00 00 08 00 00 00	r0 >>= 8
    1428:	7b 0a 60 ff 00 00 00 00	*(u64 *)(r10 - 160) = r0
    1429:	7b 0a c0 ff 00 00 00 00	*(u64 *)(r10 - 64) = r0
    1430:	bf a2 00 00 00 00 00 00	r2 = r10
    1431:	07 02 00 00 98 ff ff ff	r2 += -104
    1432:	bf a3 00 00 00 00 00 00	r3 = r10
    1433:	07 03 00 00 c0 ff ff ff	r3 += -64
    1434:	18 01 00 00 00 00 00 00 00 00 00 00 00 00 00 00	r1 = 0 ll
    1436:	b7 04 00 00 01 00 00 00	r4 = 1
    1437:	85 00 00 00 02 00 00 00	call 2
    1438:	bf 07 00 00 00 00 00 00	r7 = r0
    1439:	bf 71 00 00 00 00 00 00	r1 = r7
    1440:	67 01 00 00 20 00 00 00	r1 <<= 32
    1441:	77 01 00 00 20 00 00 00	r1 >>= 32
    1442:	55 01 12 00 00 00 00 00	if r1 != 0 goto +18 <LBB2_235>
    1443:	bf a2 00 00 00 00 00 00	r2 = r10
    1444:	07 02 00 00 38 ff ff ff	r2 += -200
    1445:	bf a3 00 00 00 00 00 00	r3 = r10
    1446:	07 03 00 00 60 ff ff ff	r3 += -160
    1447:	18 01 00 00 00 00 00 00 00 00 00 00 00 00 00 00	r1 = 0 ll
    1449:	b7 04 00 00 01 00 00 00	r4 = 1
    1450:	85 00 00 00 02 00 00 00	call 2
    1451:	bf 07 00 00 00 00 00 00	r7 = r0
    1452:	bf 71 00 00 00 00 00 00	r1 = r7
    1453:	67 01 00 00 20 00 00 00	r1 <<= 32
    1454:	77 01 00 00 20 00 00 00	r1 >>= 32
    1455:	15 01 6a 19 00 00 00 00	if r1 == 0 goto +6506 <LBB2_728>
    1456:	bf a2 00 00 00 00 00 00	r2 = r10
    1457:	07 02 00 00 98 ff ff ff	r2 += -104
    1458:	18 01 00 00 00 00 00 00 00 00 00 00 00 00 00 00	r1 = 0 ll
    1460:	85 00 00 00 03 00 00 00	call 3

0000000000002da8 <LBB2_235>:
    1461:	07 08 00 00 01 00 00 00	r8 += 1
    1462:	bf 81 00 00 00 00 00 00	r1 = r8
    1463:	57 01 00 00 ff ff 00 00	r1 &= 65535
    1464:	37 01 00 00 ff 7f 00 00	r1 /= 32767
    1465:	0f 18 00 00 00 00 00 00	r8 += r1
    1466:	47 08 00 00 00 80 ff ff	r8 |= -32768
    1467:	bf 81 00 00 00 00 00 00	r1 = r8
    1468:	dc 01 00 00 10 00 00 00	r1 = be16 r1
    1469:	6b 1a b8 ff 00 00 00 00	*(u16 *)(r10 - 72) = r1
    1470:	6b 1a 90 ff 00 00 00 00	*(u16 *)(r10 - 112) = r1
    1471:	bf a2 00 00 00 00 00 00	r2 = r10
    1472:	07 02 00 00 98 ff ff ff	r2 += -104
    1473:	18 01 00 00 00 00 00 00 00 00 00 00 00 00 00 00	r1 = 0 ll
    1475:	85 00 00 00 01 00 00 00	call 1
    1476:	55 00 23 00 00 00 00 00	if r0 != 0 goto +35 <LBB2_239>
    1477:	85 00 00 00 76 00 00 00	call 118
    1478:	77 00 00 00 08 00 00 00	r0 >>= 8
    1479:	7b 0a 60 ff 00 00 00 00	*(u64 *)(r10 - 160) = r0
    1480:	7b 0a c0 ff 00 00 00 00	*(u64 *)(r10 - 64) = r0
    1481:	bf a2 00 00 00 00 00 00	r2 = r10
    1482:	07 02 00 00 98 ff ff ff	r2 += -104
    1483:	bf a3 00 00 00 00 00 00	r3 = r10
    1484:	07 03 00 00 c0 ff ff ff	r3 += -64
    1485:	18 01 00 00 00 00 00 00 00 00 00 00 00 00 00 00	r1 = 0 ll
    1487:	b7 04 00 00 01 00 00 00	r4 = 1
    1488:	85 00 00 00 02 00 00 00	call 2
    1489:	bf 07 00 00 00 00 00 00	r7 = r0
    1490:	bf 71 00 00 00 00 00 00	r1 = r7
    1491:	67 01 00 00 20 00 00 00	r1 <<= 32
    1492:	77 01 00 00 20 00 00 00	r1 >>= 32
    1493:	55 01 12 00 00 00 00 00	if r1 != 0 goto +18 <LBB2_239>
    1494:	bf a2 00 00 00 00 00 00	r2 = r10
    1495:	07 02 00 00 38 ff ff ff	r2 += -200
    1496:	bf a3 00 00 00 00 00 00	r3 = r10
    1497:	07 03 00 00 60 ff ff ff	r3 += -160
    1498:	18 01 00 00 00 00 00 00 00 00 00 00 00 00 00 00	r1 = 0 ll
    1500:	b7 04 00 00 01 00 00 00	r4 = 1
    1501:	85 00 00 00 02 00 00 00	call 2
    1502:	bf 07 00 00 00 00 00 00	r7 = r0
    1503:	bf 71 00 00 00 00 00 00	r1 = r7
    1504:	67 01 00 00 20 00 00 00	r1 <<= 32
    1505:	77 01 00 00 20 00 00 00	r1 >>= 32
    1506:	15 01 37 19 00 00 00 00	if r1 == 0 goto +6455 <LBB2_728>
    1507:	bf a2 00 00 00 00 00 00	r2 = r10
    1508:	07 02 00 00 98 ff ff ff	r2 += -104
    1509:	18 01 00 00 00 00 00 00 00 00 00 00 00 00 00 00	r1 = 0 ll
    1511:	85 00 00 00 03 00 00 00	call 3

0000000000002f40 <LBB2_239>:
    1512:	07 08 00 00 01 00 00 00	r8 += 1
    1513:	bf 81 00 00 00 00 00 00	r1 = r8
    1514:	57 01 00 00 ff ff 00 00	r1 &= 65535
    1515:	37 01 00 00 ff 7f 00 00	r1 /= 32767
    1516:	0f 18 00 00 00 00 00 00	r8 += r1
    1517:	47 08 00 00 00 80 ff ff	r8 |= -32768
    1518:	bf 81 00 00 00 00 00 00	r1 = r8
    1519:	dc 01 00 00 10 00 00 00	r1 = be16 r1
    1520:	6b 1a b8 ff 00 00 00 00	*(u16 *)(r10 - 72) = r1
    1521:	6b 1a 90 ff 00 00 00 00	*(u16 *)(r10 - 112) = r1
    1522:	bf a2 00 00 00 00 00 00	r2 = r10
    1523:	07 02 00 00 98 ff ff ff	r2 += -104
    1524:	18 01 00 00 00 00 00 00 00 00 00 00 00 00 00 00	r1 = 0 ll
    1526:	85 00 00 00 01 00 00 00	call 1
    1527:	55 00 23 00 00 00 00 00	if r0 != 0 goto +35 <LBB2_243>
    1528:	85 00 00 00 76 00 00 00	call 118
    1529:	77 00 00 00 08 00 00 00	r0 >>= 8
    1530:	7b 0a 60 ff 00 00 00 00	*(u64 *)(r10 - 160) = r0
    1531:	7b 0a c0 ff 00 00 00 00	*(u64 *)(r10 - 64) = r0
    1532:	bf a2 00 00 00 00 00 00	r2 = r10
    1533:	07 02 00 00 98 ff ff ff	r2 += -104
    1534:	bf a3 00 00 00 00 00 00	r3 = r10
    1535:	07 03 00 00 c0 ff ff ff	r3 += -64
    1536:	18 01 00 00 00 00 00 00 00 00 00 00 00 00 00 00	r1 = 0 ll
    1538:	b7 04 00 00 01 00 00 00	r4 = 1
    1539:	85 00 00 00 02 00 00 00	call 2
    1540:	bf 07 00 00 00 00 00 00	r7 = r0
    1541:	bf 71 00 00 00 00 00 00	r1 = r7
    1542:	67 01 00 00 20 00 00 00	r1 <<= 32
    1543:	77 01 00 00 20 00 00 00	r1 >>= 32
    1544:	55 01 12 00 00 00 00 00	if r1 != 0 goto +18 <LBB2_243>
    1545:	bf a2 00 00 00 00 00 00	r2 = r10
    1546:	07 02 00 00 38 ff ff ff	r2 += -200
    1547:	bf a3 00 00 00 00 00 00	r3 = r10
    1548:	07 03 00 00 60 ff ff ff	r3 += -160
    1549:	18 01 00 00 00 00 00 00 00 00 00 00 00 00 00 00	r1 = 0 ll
    1551:	b7 04 00 00 01 00 00 00	r4 = 1
    1552:	85 00 00 00 02 00 00 00	call 2
    1553:	bf 07 00 00 00 00 00 00	r7 = r0
    1554:	bf 71 00 00 00 00 00 00	r1 = r7
    1555:	67 01 00 00 20 00 00 00	r1 <<= 32
    1556:	77 01 00 00 20 00 00 00	r1 >>= 32
    1557:	15 01 04 19 00 00 00 00	if r1 == 0 goto +6404 <LBB2_728>
    1558:	bf a2 00 00 00 00 00 00	r2 = r10
    1559:	07 02 00 00 98 ff ff ff	r2 += -104
    1560:	18 01 00 00 00 00 00 00 00 00 00 00 00 00 00 00	r1 = 0 ll
    1562:	85 00 00 00 03 00 00 00	call 3

00000000000030d8 <LBB2_243>:
    1563:	07 08 00 00 01 00 00 00	r8 += 1
    1564:	bf 81 00 00 00 00 00 00	r1 = r8
    1565:	57 01 00 00 ff ff 00 00	r1 &= 65535
    1566:	37 01 00 00 ff 7f 00 00	r1 /= 32767
    1567:	0f 18 00 00 00 00 00 00	r8 += r1
    1568:	47 08 00 00 00 80 ff ff	r8 |= -32768
    1569:	bf 81 00 00 00 00 00 00	r1 = r8
    1570:	dc 01 00 00 10 00 00 00	r1 = be16 r1
    1571:	6b 1a b8 ff 00 00 00 00	*(u16 *)(r10 - 72) = r1
    1572:	6b 1a 90 ff 00 00 00 00	*(u16 *)(r10 - 112) = r1
    1573:	bf a2 00 00 00 00 00 00	r2 = r10
    1574:	07 02 00 00 98 ff ff ff	r2 += -104
    1575:	18 01 00 00 00 00 00 00 00 00 00 00 00 00 00 00	r1 = 0 ll
    1577:	85 00 00 00 01 00 00 00	call 1
    1578:	55 00 23 00 00 00 00 00	if r0 != 0 goto +35 <LBB2_247>
    1579:	85 00 00 00 76 00 00 00	call 118
    1580:	77 00 00 00 08 00 00 00	r0 >>= 8
    1581:	7b 0a 60 ff 00 00 00 00	*(u64 *)(r10 - 160) = r0
    1582:	7b 0a c0 ff 00 00 00 00	*(u64 *)(r10 - 64) = r0
    1583:	bf a2 00 00 00 00 00 00	r2 = r10
    1584:	07 02 00 00 98 ff ff ff	r2 += -104
    1585:	bf a3 00 00 00 00 00 00	r3 = r10
    1586:	07 03 00 00 c0 ff ff ff	r3 += -64
    1587:	18 01 00 00 00 00 00 00 00 00 00 00 00 00 00 00	r1 = 0 ll
    1589:	b7 04 00 00 01 00 00 00	r4 = 1
    1590:	85 00 00 00 02 00 00 00	call 2
    1591:	bf 07 00 00 00 00 00 00	r7 = r0
    1592:	bf 71 00 00 00 00 00 00	r1 = r7
    1593:	67 01 00 00 20 00 00 00	r1 <<= 32
    1594:	77 01 00 00 20 00 00 00	r1 >>= 32
    1595:	55 01 12 00 00 00 00 00	if r1 != 0 goto +18 <LBB2_247>
    1596:	bf a2 00 00 00 00 00 00	r2 = r10
    1597:	07 02 00 00 38 ff ff ff	r2 += -200
    1598:	bf a3 00 00 00 00 00 00	r3 = r10
    1599:	07 03 00 00 60 ff ff ff	r3 += -160
    1600:	18 01 00 00 00 00 00 00 00 00 00 00 00 00 00 00	r1 = 0 ll
    1602:	b7 04 00 00 01 00 00 00	r4 = 1
    1603:	85 00 00 00 02 00 00 00	call 2
    1604:	bf 07 00 00 00 00 00 00	r7 = r0
    1605:	bf 71 00 00 00 00 00 00	r1 = r7
    1606:	67 01 00 00 20 00 00 00	r1 <<= 32
    1607:	77 01 00 00 20 00 00 00	r1 >>= 32
    1608:	15 01 d1 18 00 00 00 00	if r1 == 0 goto +6353 <LBB2_728>
    1609:	bf a2 00 00 00 00 00 00	r2 = r10
    1610:	07 02 00 00 98 ff ff ff	r2 += -104
    1611:	18 01 00 00 00 00 00 00 00 00 00 00 00 00 00 00	r1 = 0 ll
    1613:	85 00 00 00 03 00 00 00	call 3

0000000000003270 <LBB2_247>:
    1614:	07 08 00 00 01 00 00 00	r8 += 1
    1615:	bf 81 00 00 00 00 00 00	r1 = r8
    1616:	57 01 00 00 ff ff 00 00	r1 &= 65535
    1617:	37 01 00 00 ff 7f 00 00	r1 /= 32767
    1618:	0f 18 00 00 00 00 00 00	r8 += r1
    1619:	47 08 00 00 00 80 ff ff	r8 |= -32768
    1620:	bf 81 00 00 00 00 00 00	r1 = r8
    1621:	dc 01 00 00 10 00 00 00	r1 = be16 r1
    1622:	6b 1a b8 ff 00 00 00 00	*(u16 *)(r10 - 72) = r1
    1623:	6b 1a 90 ff 00 00 00 00	*(u16 *)(r10 - 112) = r1
    1624:	bf a2 00 00 00 00 00 00	r2 = r10
    1625:	07 02 00 00 98 ff ff ff	r2 += -104
    1626:	18 01 00 00 00 00 00 00 00 00 00 00 00 00 00 00	r1 = 0 ll
    1628:	85 00 00 00 01 00 00 00	call 1
    1629:	55 00 23 00 00 00 00 00	if r0 != 0 goto +35 <LBB2_251>
    1630:	85 00 00 00 76 00 00 00	call 118
    1631:	77 00 00 00 08 00 00 00	r0 >>= 8
    1632:	7b 0a 60 ff 00 00 00 00	*(u64 *)(r10 - 160) = r0
    1633:	7b 0a c0 ff 00 00 00 00	*(u64 *)(r10 - 64) = r0
    1634:	bf a2 00 00 00 00 00 00	r2 = r10
    1635:	07 02 00 00 98 ff ff ff	r2 += -104
    1636:	bf a3 00 00 00 00 00 00	r3 = r10
    1637:	07 03 00 00 c0 ff ff ff	r3 += -64
    1638:	18 01 00 00 00 00 00 00 00 00 00 00 00 00 00 00	r1 = 0 ll
    1640:	b7 04 00 00 01 00 00 00	r4 = 1
    1641:	85 00 00 00 02 00 00 00	call 2
    1642:	bf 07 00 00 00 00 00 00	r7 = r0
    1643:	bf 71 00 00 00 00 00 00	r1 = r7
    1644:	67 01 00 00 20 00 00 00	r1 <<= 32
    1645:	77 01 00 00 20 00 00 00	r1 >>= 32
    1646:	55 01 12 00 00 00 00 00	if r1 != 0 goto +18 <LBB2_251>
    1647:	bf a2 00 00 00 00 00 00	r2 = r10
    1648:	07 02 00 00 38 ff ff ff	r2 += -200
    1649:	bf a3 00 00 00 00 00 00	r3 = r10
    1650:	07 03 00 00 60 ff ff ff	r3 += -160
    1651:	18 01 00 00 00 00 00 00 00 00 00 00 00 00 00 00	r1 = 0 ll
    1653:	b7 04 00 00 01 00 00 00	r4 = 1
    1654:	85 00 00 00 02 00 00 00	call 2
    1655:	bf 07 00 00 00 00 00 00	r7 = r0
    1656:	bf 71 00 00 00 00 00 00	r1 = r7
    1657:	67 01 00 00 20 00 00 00	r1 <<= 32
    1658:	77 01 00 00 20 00 00 00	r1 >>= 32
    1659:	15 01 9e 18 00 00 00 00	if r1 == 0 goto +6302 <LBB2_728>
    1660:	bf a2 00 00 00 00 00 00	r2 = r10
    1661:	07 02 00 00 98 ff ff ff	r2 += -104
    1662:	18 01 00 00 00 00 00 00 00 00 00 00 00 00 00 00	r1 = 0 ll
    1664:	85 00 00 00 03 00 00 00	call 3

0000000000003408 <LBB2_251>:
    1665:	07 08 00 00 01 00 00 00	r8 += 1
    1666:	bf 81 00 00 00 00 00 00	r1 = r8
    1667:	57 01 00 00 ff ff 00 00	r1 &= 65535
    1668:	37 01 00 00 ff 7f 00 00	r1 /= 32767
    1669:	0f 18 00 00 00 00 00 00	r8 += r1
    1670:	47 08 00 00 00 80 ff ff	r8 |= -32768
    1671:	bf 81 00 00 00 00 00 00	r1 = r8
    1672:	dc 01 00 00 10 00 00 00	r1 = be16 r1
    1673:	6b 1a b8 ff 00 00 00 00	*(u16 *)(r10 - 72) = r1
    1674:	6b 1a 90 ff 00 00 00 00	*(u16 *)(r10 - 112) = r1
    1675:	bf a2 00 00 00 00 00 00	r2 = r10
    1676:	07 02 00 00 98 ff ff ff	r2 += -104
    1677:	18 01 00 00 00 00 00 00 00 00 00 00 00 00 00 00	r1 = 0 ll
    1679:	85 00 00 00 01 00 00 00	call 1
    1680:	55 00 23 00 00 00 00 00	if r0 != 0 goto +35 <LBB2_255>
    1681:	85 00 00 00 76 00 00 00	call 118
    1682:	77 00 00 00 08 00 00 00	r0 >>= 8
    1683:	7b 0a 60 ff 00 00 00 00	*(u64 *)(r10 - 160) = r0
    1684:	7b 0a c0 ff 00 00 00 00	*(u64 *)(r10 - 64) = r0
    1685:	bf a2 00 00 00 00 00 00	r2 = r10
    1686:	07 02 00 00 98 ff ff ff	r2 += -104
    1687:	bf a3 00 00 00 00 00 00	r3 = r10
    1688:	07 03 00 00 c0 ff ff ff	r3 += -64
    1689:	18 01 00 00 00 00 00 00 00 00 00 00 00 00 00 00	r1 = 0 ll
    1691:	b7 04 00 00 01 00 00 00	r4 = 1
    1692:	85 00 00 00 02 00 00 00	call 2
    1693:	bf 07 00 00 00 00 00 00	r7 = r0
    1694:	bf 71 00 00 00 00 00 00	r1 = r7
    1695:	67 01 00 00 20 00 00 00	r1 <<= 32
    1696:	77 01 00 00 20 00 00 00	r1 >>= 32
    1697:	55 01 12 00 00 00 00 00	if r1 != 0 goto +18 <LBB2_255>
    1698:	bf a2 00 00 00 00 00 00	r2 = r10
    1699:	07 02 00 00 38 ff ff ff	r2 += -200
    1700:	bf a3 00 00 00 00 00 00	r3 = r10
    1701:	07 03 00 00 60 ff ff ff	r3 += -160
    1702:	18 01 00 00 00 00 00 00 00 00 00 00 00 00 00 00	r1 = 0 ll
    1704:	b7 04 00 00 01 00 00 00	r4 = 1
    1705:	85 00 00 00 02 00 00 00	call 2
    1706:	bf 07 00 00 00 00 00 00	r7 = r0
    1707:	bf 71 00 00 00 00 00 00	r1 = r7
    1708:	67 01 00 00 20 00 00 00	r1 <<= 32
    1709:	77 01 00 00 20 00 00 00	r1 >>= 32
    1710:	15 01 6b 18 00 00 00 00	if r1 == 0 goto +6251 <LBB2_728>
    1711:	bf a2 00 00 00 00 00 00	r2 = r10
    1712:	07 02 00 00 98 ff ff ff	r2 += -104
    1713:	18 01 00 00 00 00 00 00 00 00 00 00 00 00 00 00	r1 = 0 ll
    1715:	85 00 00 00 03 00 00 00	call 3

00000000000035a0 <LBB2_255>:
    1716:	07 08 00 00 01 00 00 00	r8 += 1
    1717:	bf 81 00 00 00 00 00 00	r1 = r8
    1718:	57 01 00 00 ff ff 00 00	r1 &= 65535
    1719:	37 01 00 00 ff 7f 00 00	r1 /= 32767
    1720:	0f 18 00 00 00 00 00 00	r8 += r1
    1721:	47 08 00 00 00 80 ff ff	r8 |= -32768
    1722:	bf 81 00 00 00 00 00 00	r1 = r8
    1723:	dc 01 00 00 10 00 00 00	r1 = be16 r1
    1724:	6b 1a b8 ff 00 00 00 00	*(u16 *)(r10 - 72) = r1
    1725:	6b 1a 90 ff 00 00 00 00	*(u16 *)(r10 - 112) = r1
    1726:	bf a2 00 00 00 00 00 00	r2 = r10
    1727:	07 02 00 00 98 ff ff ff	r2 += -104
    1728:	18 01 00 00 00 00 00 00 00 00 00 00 00 00 00 00	r1 = 0 ll
    1730:	85 00 00 00 01 00 00 00	call 1
    1731:	55 00 23 00 00 00 00 00	if r0 != 0 goto +35 <LBB2_259>
    1732:	85 00 00 00 76 00 00 00	call 118
    1733:	77 00 00 00 08 00 00 00	r0 >>= 8
    1734:	7b 0a 60 ff 00 00 00 00	*(u64 *)(r10 - 160) = r0
    1735:	7b 0a c0 ff 00 00 00 00	*(u64 *)(r10 - 64) = r0
    1736:	bf a2 00 00 00 00 00 00	r2 = r10
    1737:	07 02 00 00 98 ff ff ff	r2 += -104
    1738:	bf a3 00 00 00 00 00 00	r3 = r10
    1739:	07 03 00 00 c0 ff ff ff	r3 += -64
    1740:	18 01 00 00 00 00 00 00 00 00 00 00 00 00 00 00	r1 = 0 ll
    1742:	b7 04 00 00 01 00 00 00	r4 = 1
    1743:	85 00 00 00 02 00 00 00	call 2
    1744:	bf 07 00 00 00 00 00 00	r7 = r0
    1745:	bf 71 00 00 00 00 00 00	r1 = r7
    1746:	67 01 00 00 20 00 00 00	r1 <<= 32
    1747:	77 01 00 00 20 00 00 00	r1 >>= 32
    1748:	55 01 12 00 00 00 00 00	if r1 != 0 goto +18 <LBB2_259>
    1749:	bf a2 00 00 00 00 00 00	r2 = r10
    1750:	07 02 00 00 38 ff ff ff	r2 += -200
    1751:	bf a3 00 00 00 00 00 00	r3 = r10
    1752:	07 03 00 00 60 ff ff ff	r3 += -160
    1753:	18 01 00 00 00 00 00 00 00 00 00 00 00 00 00 00	r1 = 0 ll
    1755:	b7 04 00 00 01 00 00 00	r4 = 1
    1756:	85 00 00 00 02 00 00 00	call 2
    1757:	bf 07 00 00 00 00 00 00	r7 = r0
    1758:	bf 71 00 00 00 00 00 00	r1 = r7
    1759:	67 01 00 00 20 00 00 00	r1 <<= 32
    1760:	77 01 00 00 20 00 00 00	r1 >>= 32
    1761:	15 01 38 18 00 00 00 00	if r1 == 0 goto +6200 <LBB2_728>
    1762:	bf a2 00 00 00 00 00 00	r2 = r10
    1763:	07 02 00 00 98 ff ff ff	r2 += -104
    1764:	18 01 00 00 00 00 00 00 00 00 00 00 00 00 00 00	r1 = 0 ll
    1766:	85 00 00 00 03 00 00 00	call 3

0000000000003738 <LBB2_259>:
    1767:	07 08 00 00 01 00 00 00	r8 += 1
    1768:	bf 81 00 00 00 00 00 00	r1 = r8
    1769:	57 01 00 00 ff ff 00 00	r1 &= 65535
    1770:	37 01 00 00 ff 7f 00 00	r1 /= 32767
    1771:	0f 18 00 00 00 00 00 00	r8 += r1
    1772:	47 08 00 00 00 80 ff ff	r8 |= -32768
    1773:	bf 81 00 00 00 00 00 00	r1 = r8
    1774:	dc 01 00 00 10 00 00 00	r1 = be16 r1
    1775:	6b 1a b8 ff 00 00 00 00	*(u16 *)(r10 - 72) = r1
    1776:	6b 1a 90 ff 00 00 00 00	*(u16 *)(r10 - 112) = r1
    1777:	bf a2 00 00 00 00 00 00	r2 = r10
    1778:	07 02 00 00 98 ff ff ff	r2 += -104
    1779:	18 01 00 00 00 00 00 00 00 00 00 00 00 00 00 00	r1 = 0 ll
    1781:	85 00 00 00 01 00 00 00	call 1
    1782:	55 00 23 00 00 00 00 00	if r0 != 0 goto +35 <LBB2_263>
    1783:	85 00 00 00 76 00 00 00	call 118
    1784:	77 00 00 00 08 00 00 00	r0 >>= 8
    1785:	7b 0a 60 ff 00 00 00 00	*(u64 *)(r10 - 160) = r0
    1786:	7b 0a c0 ff 00 00 00 00	*(u64 *)(r10 - 64) = r0
    1787:	bf a2 00 00 00 00 00 00	r2 = r10
    1788:	07 02 00 00 98 ff ff ff	r2 += -104
    1789:	bf a3 00 00 00 00 00 00	r3 = r10
    1790:	07 03 00 00 c0 ff ff ff	r3 += -64
    1791:	18 01 00 00 00 00 00 00 00 00 00 00 00 00 00 00	r1 = 0 ll
    1793:	b7 04 00 00 01 00 00 00	r4 = 1
    1794:	85 00 00 00 02 00 00 00	call 2
    1795:	bf 07 00 00 00 00 00 00	r7 = r0
    1796:	bf 71 00 00 00 00 00 00	r1 = r7
    1797:	67 01 00 00 20 00 00 00	r1 <<= 32
    1798:	77 01 00 00 20 00 00 00	r1 >>= 32
    1799:	55 01 12 00 00 00 00 00	if r1 != 0 goto +18 <LBB2_263>
    1800:	bf a2 00 00 00 00 00 00	r2 = r10
    1801:	07 02 00 00 38 ff ff ff	r2 += -200
    1802:	bf a3 00 00 00 00 00 00	r3 = r10
    1803:	07 03 00 00 60 ff ff ff	r3 += -160
    1804:	18 01 00 00 00 00 00 00 00 00 00 00 00 00 00 00	r1 = 0 ll
    1806:	b7 04 00 00 01 00 00 00	r4 = 1
    1807:	85 00 00 00 02 00 00 00	call 2
    1808:	bf 07 00 00 00 00 00 00	r7 = r0
    1809:	bf 71 00 00 00 00 00 00	r1 = r7
    1810:	67 01 00 00 20 00 00 00	r1 <<= 32
    1811:	77 01 00 00 20 00 00 00	r1 >>= 32
    1812:	15 01 05 18 00 00 00 00	if r1 == 0 goto +6149 <LBB2_728>
    1813:	bf a2 00 00 00 00 00 00	r2 = r10
    1814:	07 02 00 00 98 ff ff ff	r2 += -104
    1815:	18 01 00 00 00 00 00 00 00 00 00 00 00 00 00 00	r1 = 0 ll
    1817:	85 00 00 00 03 00 00 00	call 3

00000000000038d0 <LBB2_263>:
    1818:	07 08 00 00 01 00 00 00	r8 += 1
    1819:	bf 81 00 00 00 00 00 00	r1 = r8
    1820:	57 01 00 00 ff ff 00 00	r1 &= 65535
    1821:	37 01 00 00 ff 7f 00 00	r1 /= 32767
    1822:	0f 18 00 00 00 00 00 00	r8 += r1
    1823:	47 08 00 00 00 80 ff ff	r8 |= -32768
    1824:	bf 81 00 00 00 00 00 00	r1 = r8
    1825:	dc 01 00 00 10 00 00 00	r1 = be16 r1
    1826:	6b 1a b8 ff 00 00 00 00	*(u16 *)(r10 - 72) = r1
    1827:	6b 1a 90 ff 00 00 00 00	*(u16 *)(r10 - 112) = r1
    1828:	bf a2 00 00 00 00 00 00	r2 = r10
    1829:	07 02 00 00 98 ff ff ff	r2 += -104
    1830:	18 01 00 00 00 00 00 00 00 00 00 00 00 00 00 00	r1 = 0 ll
    1832:	85 00 00 00 01 00 00 00	call 1
    1833:	55 00 23 00 00 00 00 00	if r0 != 0 goto +35 <LBB2_267>
    1834:	85 00 00 00 76 00 00 00	call 118
    1835:	77 00 00 00 08 00 00 00	r0 >>= 8
    1836:	7b 0a 60 ff 00 00 00 00	*(u64 *)(r10 - 160) = r0
    1837:	7b 0a c0 ff 00 00 00 00	*(u64 *)(r10 - 64) = r0
    1838:	bf a2 00 00 00 00 00 00	r2 = r10
    1839:	07 02 00 00 98 ff ff ff	r2 += -104
    1840:	bf a3 00 00 00 00 00 00	r3 = r10
    1841:	07 03 00 00 c0 ff ff ff	r3 += -64
    1842:	18 01 00 00 00 00 00 00 00 00 00 00 00 00 00 00	r1 = 0 ll
    1844:	b7 04 00 00 01 00 00 00	r4 = 1
    1845:	85 00 00 00 02 00 00 00	call 2
    1846:	bf 07 00 00 00 00 00 00	r7 = r0
    1847:	bf 71 00 00 00 00 00 00	r1 = r7
    1848:	67 01 00 00 20 00 00 00	r1 <<= 32
    1849:	77 01 00 00 20 00 00 00	r1 >>= 32
    1850:	55 01 12 00 00 00 00 00	if r1 != 0 goto +18 <LBB2_267>
    1851:	bf a2 00 00 00 00 00 00	r2 = r10
    1852:	07 02 00 00 38 ff ff ff	r2 += -200
    1853:	bf a3 00 00 00 00 00 00	r3 = r10
    1854:	07 03 00 00 60 ff ff ff	r3 += -160
    1855:	18 01 00 00 00 00 00 00 00 00 00 00 00 00 00 00	r1 = 0 ll
    1857:	b7 04 00 00 01 00 00 00	r4 = 1
    1858:	85 00 00 00 02 00 00 00	call 2
    1859:	bf 07 00 00 00 00 00 00	r7 = r0
    1860:	bf 71 00 00 00 00 00 00	r1 = r7
    1861:	67 01 00 00 20 00 00 00	r1 <<= 32
    1862:	77 01 00 00 20 00 00 00	r1 >>= 32
    1863:	15 01 d2 17 00 00 00 00	if r1 == 0 goto +6098 <LBB2_728>
    1864:	bf a2 00 00 00 00 00 00	r2 = r10
    1865:	07 02 00 00 98 ff ff ff	r2 += -104
    1866:	18 01 00 00 00 00 00 00 00 00 00 00 00 00 00 00	r1 = 0 ll
    1868:	85 00 00 00 03 00 00 00	call 3

0000000000003a68 <LBB2_267>:
    1869:	07 08 00 00 01 00 00 00	r8 += 1
    1870:	bf 81 00 00 00 00 00 00	r1 = r8
    1871:	57 01 00 00 ff ff 00 00	r1 &= 65535
    1872:	37 01 00 00 ff 7f 00 00	r1 /= 32767
    1873:	0f 18 00 00 00 00 00 00	r8 += r1
    1874:	47 08 00 00 00 80 ff ff	r8 |= -32768
    1875:	bf 81 00 00 00 00 00 00	r1 = r8
    1876:	dc 01 00 00 10 00 00 00	r1 = be16 r1
    1877:	6b 1a b8 ff 00 00 00 00	*(u16 *)(r10 - 72) = r1
    1878:	6b 1a 90 ff 00 00 00 00	*(u16 *)(r10 - 112) = r1
    1879:	bf a2 00 00 00 00 00 00	r2 = r10
    1880:	07 02 00 00 98 ff ff ff	r2 += -104
    1881:	18 01 00 00 00 00 00 00 00 00 00 00 00 00 00 00	r1 = 0 ll
    1883:	85 00 00 00 01 00 00 00	call 1
    1884:	55 00 23 00 00 00 00 00	if r0 != 0 goto +35 <LBB2_271>
    1885:	85 00 00 00 76 00 00 00	call 118
    1886:	77 00 00 00 08 00 00 00	r0 >>= 8
    1887:	7b 0a 60 ff 00 00 00 00	*(u64 *)(r10 - 160) = r0
    1888:	7b 0a c0 ff 00 00 00 00	*(u64 *)(r10 - 64) = r0
    1889:	bf a2 00 00 00 00 00 00	r2 = r10
    1890:	07 02 00 00 98 ff ff ff	r2 += -104
    1891:	bf a3 00 00 00 00 00 00	r3 = r10
    1892:	07 03 00 00 c0 ff ff ff	r3 += -64
    1893:	18 01 00 00 00 00 00 00 00 00 00 00 00 00 00 00	r1 = 0 ll
    1895:	b7 04 00 00 01 00 00 00	r4 = 1
    1896:	85 00 00 00 02 00 00 00	call 2
    1897:	bf 07 00 00 00 00 00 00	r7 = r0
    1898:	bf 71 00 00 00 00 00 00	r1 = r7
    1899:	67 01 00 00 20 00 00 00	r1 <<= 32
    1900:	77 01 00 00 20 00 00 00	r1 >>= 32
    1901:	55 01 12 00 00 00 00 00	if r1 != 0 goto +18 <LBB2_271>
    1902:	bf a2 00 00 00 00 00 00	r2 = r10
    1903:	07 02 00 00 38 ff ff ff	r2 += -200
    1904:	bf a3 00 00 00 00 00 00	r3 = r10
    1905:	07 03 00 00 60 ff ff ff	r3 += -160
    1906:	18 01 00 00 00 00 00 00 00 00 00 00 00 00 00 00	r1 = 0 ll
    1908:	b7 04 00 00 01 00 00 00	r4 = 1
    1909:	85 00 00 00 02 00 00 00	call 2
    1910:	bf 07 00 00 00 00 00 00	r7 = r0
    1911:	bf 71 00 00 00 00 00 00	r1 = r7
    1912:	67 01 00 00 20 00 00 00	r1 <<= 32
    1913:	77 01 00 00 20 00 00 00	r1 >>= 32
    1914:	15 01 9f 17 00 00 00 00	if r1 == 0 goto +6047 <LBB2_728>
    1915:	bf a2 00 00 00 00 00 00	r2 = r10
    1916:	07 02 00 00 98 ff ff ff	r2 += -104
    1917:	18 01 00 00 00 00 00 00 00 00 00 00 00 00 00 00	r1 = 0 ll
    1919:	85 00 00 00 03 00 00 00	call 3

0000000000003c00 <LBB2_271>:
    1920:	07 08 00 00 01 00 00 00	r8 += 1
    1921:	bf 81 00 00 00 00 00 00	r1 = r8
    1922:	57 01 00 00 ff ff 00 00	r1 &= 65535
    1923:	37 01 00 00 ff 7f 00 00	r1 /= 32767
    1924:	0f 18 00 00 00 00 00 00	r8 += r1
    1925:	47 08 00 00 00 80 ff ff	r8 |= -32768
    1926:	bf 81 00 00 00 00 00 00	r1 = r8
    1927:	dc 01 00 00 10 00 00 00	r1 = be16 r1
    1928:	6b 1a b8 ff 00 00 00 00	*(u16 *)(r10 - 72) = r1
    1929:	6b 1a 90 ff 00 00 00 00	*(u16 *)(r10 - 112) = r1
    1930:	bf a2 00 00 00 00 00 00	r2 = r10
    1931:	07 02 00 00 98 ff ff ff	r2 += -104
    1932:	18 01 00 00 00 00 00 00 00 00 00 00 00 00 00 00	r1 = 0 ll
    1934:	85 00 00 00 01 00 00 00	call 1
    1935:	55 00 23 00 00 00 00 00	if r0 != 0 goto +35 <LBB2_275>
    1936:	85 00 00 00 76 00 00 00	call 118
    1937:	77 00 00 00 08 00 00 00	r0 >>= 8
    1938:	7b 0a 60 ff 00 00 00 00	*(u64 *)(r10 - 160) = r0
    1939:	7b 0a c0 ff 00 00 00 00	*(u64 *)(r10 - 64) = r0
    1940:	bf a2 00 00 00 00 00 00	r2 = r10
    1941:	07 02 00 00 98 ff ff ff	r2 += -104
    1942:	bf a3 00 00 00 00 00 00	r3 = r10
    1943:	07 03 00 00 c0 ff ff ff	r3 += -64
    1944:	18 01 00 00 00 00 00 00 00 00 00 00 00 00 00 00	r1 = 0 ll
    1946:	b7 04 00 00 01 00 00 00	r4 = 1
    1947:	85 00 00 00 02 00 00 00	call 2
    1948:	bf 07 00 00 00 00 00 00	r7 = r0
    1949:	bf 71 00 00 00 00 00 00	r1 = r7
    1950:	67 01 00 00 20 00 00 00	r1 <<= 32
    1951:	77 01 00 00 20 00 00 00	r1 >>= 32
    1952:	55 01 12 00 00 00 00 00	if r1 != 0 goto +18 <LBB2_275>
    1953:	bf a2 00 00 00 00 00 00	r2 = r10
    1954:	07 02 00 00 38 ff ff ff	r2 += -200
    1955:	bf a3 00 00 00 00 00 00	r3 = r10
    1956:	07 03 00 00 60 ff ff ff	r3 += -160
    1957:	18 01 00 00 00 00 00 00 00 00 00 00 00 00 00 00	r1 = 0 ll
    1959:	b7 04 00 00 01 00 00 00	r4 = 1
    1960:	85 00 00 00 02 00 00 00	call 2
    1961:	bf 07 00 00 00 00 00 00	r7 = r0
    1962:	bf 71 00 00 00 00 00 00	r1 = r7
    1963:	67 01 00 00 20 00 00 00	r1 <<= 32
    1964:	77 01 00 00 20 00 00 00	r1 >>= 32
    1965:	15 01 6c 17 00 00 00 00	if r1 == 0 goto +5996 <LBB2_728>
    1966:	bf a2 00 00 00 00 00 00	r2 = r10
    1967:	07 02 00 00 98 ff ff ff	r2 += -104
    1968:	18 01 00 00 00 00 00 00 00 00 00 00 00 00 00 00	r1 = 0 ll
    1970:	85 00 00 00 03 00 00 00	call 3

0000000000003d98 <LBB2_275>:
    1971:	07 08 00 00 01 00 00 00	r8 += 1
    1972:	bf 81 00 00 00 00 00 00	r1 = r8
    1973:	57 01 00 00 ff ff 00 00	r1 &= 65535
    1974:	37 01 00 00 ff 7f 00 00	r1 /= 32767
    1975:	0f 18 00 00 00 00 00 00	r8 += r1
    1976:	47 08 00 00 00 80 ff ff	r8 |= -32768
    1977:	bf 81 00 00 00 00 00 00	r1 = r8
    1978:	dc 01 00 00 10 00 00 00	r1 = be16 r1
    1979:	6b 1a b8 ff 00 00 00 00	*(u16 *)(r10 - 72) = r1
    1980:	6b 1a 90 ff 00 00 00 00	*(u16 *)(r10 - 112) = r1
    1981:	bf a2 00 00 00 00 00 00	r2 = r10
    1982:	07 02 00 00 98 ff ff ff	r2 += -104
    1983:	18 01 00 00 00 00 00 00 00 00 00 00 00 00 00 00	r1 = 0 ll
    1985:	85 00 00 00 01 00 00 00	call 1
    1986:	55 00 23 00 00 00 00 00	if r0 != 0 goto +35 <LBB2_279>
    1987:	85 00 00 00 76 00 00 00	call 118
    1988:	77 00 00 00 08 00 00 00	r0 >>= 8
    1989:	7b 0a 60 ff 00 00 00 00	*(u64 *)(r10 - 160) = r0
    1990:	7b 0a c0 ff 00 00 00 00	*(u64 *)(r10 - 64) = r0
    1991:	bf a2 00 00 00 00 00 00	r2 = r10
    1992:	07 02 00 00 98 ff ff ff	r2 += -104
    1993:	bf a3 00 00 00 00 00 00	r3 = r10
    1994:	07 03 00 00 c0 ff ff ff	r3 += -64
    1995:	18 01 00 00 00 00 00 00 00 00 00 00 00 00 00 00	r1 = 0 ll
    1997:	b7 04 00 00 01 00 00 00	r4 = 1
    1998:	85 00 00 00 02 00 00 00	call 2
    1999:	bf 07 00 00 00 00 00 00	r7 = r0
    2000:	bf 71 00 00 00 00 00 00	r1 = r7
    2001:	67 01 00 00 20 00 00 00	r1 <<= 32
    2002:	77 01 00 00 20 00 00 00	r1 >>= 32
    2003:	55 01 12 00 00 00 00 00	if r1 != 0 goto +18 <LBB2_279>
    2004:	bf a2 00 00 00 00 00 00	r2 = r10
    2005:	07 02 00 00 38 ff ff ff	r2 += -200
    2006:	bf a3 00 00 00 00 00 00	r3 = r10
    2007:	07 03 00 00 60 ff ff ff	r3 += -160
    2008:	18 01 00 00 00 00 00 00 00 00 00 00 00 00 00 00	r1 = 0 ll
    2010:	b7 04 00 00 01 00 00 00	r4 = 1
    2011:	85 00 00 00 02 00 00 00	call 2
    2012:	bf 07 00 00 00 00 00 00	r7 = r0
    2013:	bf 71 00 00 00 00 00 00	r1 = r7
    2014:	67 01 00 00 20 00 00 00	r1 <<= 32
    2015:	77 01 00 00 20 00 00 00	r1 >>= 32
    2016:	15 01 39 17 00 00 00 00	if r1 == 0 goto +5945 <LBB2_728>
    2017:	bf a2 00 00 00 00 00 00	r2 = r10
    2018:	07 02 00 00 98 ff ff ff	r2 += -104
    2019:	18 01 00 00 00 00 00 00 00 00 00 00 00 00 00 00	r1 = 0 ll
    2021:	85 00 00 00 03 00 00 00	call 3

0000000000003f30 <LBB2_279>:
    2022:	07 08 00 00 01 00 00 00	r8 += 1
    2023:	bf 81 00 00 00 00 00 00	r1 = r8
    2024:	57 01 00 00 ff ff 00 00	r1 &= 65535
    2025:	37 01 00 00 ff 7f 00 00	r1 /= 32767
    2026:	0f 18 00 00 00 00 00 00	r8 += r1
    2027:	47 08 00 00 00 80 ff ff	r8 |= -32768
    2028:	bf 81 00 00 00 00 00 00	r1 = r8
    2029:	dc 01 00 00 10 00 00 00	r1 = be16 r1
    2030:	6b 1a b8 ff 00 00 00 00	*(u16 *)(r10 - 72) = r1
    2031:	6b 1a 90 ff 00 00 00 00	*(u16 *)(r10 - 112) = r1
    2032:	bf a2 00 00 00 00 00 00	r2 = r10
    2033:	07 02 00 00 98 ff ff ff	r2 += -104
    2034:	18 01 00 00 00 00 00 00 00 00 00 00 00 00 00 00	r1 = 0 ll
    2036:	85 00 00 00 01 00 00 00	call 1
    2037:	55 00 23 00 00 00 00 00	if r0 != 0 goto +35 <LBB2_283>
    2038:	85 00 00 00 76 00 00 00	call 118
    2039:	77 00 00 00 08 00 00 00	r0 >>= 8
    2040:	7b 0a 60 ff 00 00 00 00	*(u64 *)(r10 - 160) = r0
    2041:	7b 0a c0 ff 00 00 00 00	*(u64 *)(r10 - 64) = r0
    2042:	bf a2 00 00 00 00 00 00	r2 = r10
    2043:	07 02 00 00 98 ff ff ff	r2 += -104
    2044:	bf a3 00 00 00 00 00 00	r3 = r10
    2045:	07 03 00 00 c0 ff ff ff	r3 += -64
    2046:	18 01 00 00 00 00 00 00 00 00 00 00 00 00 00 00	r1 = 0 ll
    2048:	b7 04 00 00 01 00 00 00	r4 = 1
    2049:	85 00 00 00 02 00 00 00	call 2
    2050:	bf 07 00 00 00 00 00 00	r7 = r0
    2051:	bf 71 00 00 00 00 00 00	r1 = r7
    2052:	67 01 00 00 20 00 00 00	r1 <<= 32
    2053:	77 01 00 00 20 00 00 00	r1 >>= 32
    2054:	55 01 12 00 00 00 00 00	if r1 != 0 goto +18 <LBB2_283>
    2055:	bf a2 00 00 00 00 00 00	r2 = r10
    2056:	07 02 00 00 38 ff ff ff	r2 += -200
    2057:	bf a3 00 00 00 00 00 00	r3 = r10
    2058:	07 03 00 00 60 ff ff ff	r3 += -160
    2059:	18 01 00 00 00 00 00 00 00 00 00 00 00 00 00 00	r1 = 0 ll
    2061:	b7 04 00 00 01 00 00 00	r4 = 1
    2062:	85 00 00 00 02 00 00 00	call 2
    2063:	bf 07 00 00 00 00 00 00	r7 = r0
    2064:	bf 71 00 00 00 00 00 00	r1 = r7
    2065:	67 01 00 00 20 00 00 00	r1 <<= 32
    2066:	77 01 00 00 20 00 00 00	r1 >>= 32
    2067:	15 01 06 17 00 00 00 00	if r1 == 0 goto +5894 <LBB2_728>
    2068:	bf a2 00 00 00 00 00 00	r2 = r10
    2069:	07 02 00 00 98 ff ff ff	r2 += -104
    2070:	18 01 00 00 00 00 00 00 00 00 00 00 00 00 00 00	r1 = 0 ll
    2072:	85 00 00 00 03 00 00 00	call 3

00000000000040c8 <LBB2_283>:
    2073:	07 08 00 00 01 00 00 00	r8 += 1
    2074:	bf 81 00 00 00 00 00 00	r1 = r8
    2075:	57 01 00 00 ff ff 00 00	r1 &= 65535
    2076:	37 01 00 00 ff 7f 00 00	r1 /= 32767
    2077:	0f 18 00 00 00 00 00 00	r8 += r1
    2078:	47 08 00 00 00 80 ff ff	r8 |= -32768
    2079:	bf 81 00 00 00 00 00 00	r1 = r8
    2080:	dc 01 00 00 10 00 00 00	r1 = be16 r1
    2081:	6b 1a b8 ff 00 00 00 00	*(u16 *)(r10 - 72) = r1
    2082:	6b 1a 90 ff 00 00 00 00	*(u16 *)(r10 - 112) = r1
    2083:	bf a2 00 00 00 00 00 00	r2 = r10
    2084:	07 02 00 00 98 ff ff ff	r2 += -104
    2085:	18 01 00 00 00 00 00 00 00 00 00 00 00 00 00 00	r1 = 0 ll
    2087:	85 00 00 00 01 00 00 00	call 1
    2088:	55 00 23 00 00 00 00 00	if r0 != 0 goto +35 <LBB2_287>
    2089:	85 00 00 00 76 00 00 00	call 118
    2090:	77 00 00 00 08 00 00 00	r0 >>= 8
    2091:	7b 0a 60 ff 00 00 00 00	*(u64 *)(r10 - 160) = r0
    2092:	7b 0a c0 ff 00 00 00 00	*(u64 *)(r10 - 64) = r0
    2093:	bf a2 00 00 00 00 00 00	r2 = r10
    2094:	07 02 00 00 98 ff ff ff	r2 += -104
    2095:	bf a3 00 00 00 00 00 00	r3 = r10
    2096:	07 03 00 00 c0 ff ff ff	r3 += -64
    2097:	18 01 00 00 00 00 00 00 00 00 00 00 00 00 00 00	r1 = 0 ll
    2099:	b7 04 00 00 01 00 00 00	r4 = 1
    2100:	85 00 00 00 02 00 00 00	call 2
    2101:	bf 07 00 00 00 00 00 00	r7 = r0
    2102:	bf 71 00 00 00 00 00 00	r1 = r7
    2103:	67 01 00 00 20 00 00 00	r1 <<= 32
    2104:	77 01 00 00 20 00 00 00	r1 >>= 32
    2105:	55 01 12 00 00 00 00 00	if r1 != 0 goto +18 <LBB2_287>
    2106:	bf a2 00 00 00 00 00 00	r2 = r10
    2107:	07 02 00 00 38 ff ff ff	r2 += -200
    2108:	bf a3 00 00 00 00 00 00	r3 = r10
    2109:	07 03 00 00 60 ff ff ff	r3 += -160
    2110:	18 01 00 00 00 00 00 00 00 00 00 00 00 00 00 00	r1 = 0 ll
    2112:	b7 04 00 00 01 00 00 00	r4 = 1
    2113:	85 00 00 00 02 00 00 00	call 2
    2114:	bf 07 00 00 00 00 00 00	r7 = r0
    2115:	bf 71 00 00 00 00 00 00	r1 = r7
    2116:	67 01 00 00 20 00 00 00	r1 <<= 32
    2117:	77 01 00 00 20 00 00 00	r1 >>= 32
    2118:	15 01 d3 16 00 00 00 00	if r1 == 0 goto +5843 <LBB2_728>
    2119:	bf a2 00 00 00 00 00 00	r2 = r10
    2120:	07 02 00 00 98 ff ff ff	r2 += -104
    2121:	18 01 00 00 00 00 00 00 00 00 00 00 00 00 00 00	r1 = 0 ll
    2123:	85 00 00 00 03 00 00 00	call 3

0000000000004260 <LBB2_287>:
    2124:	07 08 00 00 01 00 00 00	r8 += 1
    2125:	bf 81 00 00 00 00 00 00	r1 = r8
    2126:	57 01 00 00 ff ff 00 00	r1 &= 65535
    2127:	37 01 00 00 ff 7f 00 00	r1 /= 32767
    2128:	0f 18 00 00 00 00 00 00	r8 += r1
    2129:	47 08 00 00 00 80 ff ff	r8 |= -32768
    2130:	bf 81 00 00 00 00 00 00	r1 = r8
    2131:	dc 01 00 00 10 00 00 00	r1 = be16 r1
    2132:	6b 1a b8 ff 00 00 00 00	*(u16 *)(r10 - 72) = r1
    2133:	6b 1a 90 ff 00 00 00 00	*(u16 *)(r10 - 112) = r1
    2134:	bf a2 00 00 00 00 00 00	r2 = r10
    2135:	07 02 00 00 98 ff ff ff	r2 += -104
    2136:	18 01 00 00 00 00 00 00 00 00 00 00 00 00 00 00	r1 = 0 ll
    2138:	85 00 00 00 01 00 00 00	call 1
    2139:	55 00 23 00 00 00 00 00	if r0 != 0 goto +35 <LBB2_291>
    2140:	85 00 00 00 76 00 00 00	call 118
    2141:	77 00 00 00 08 00 00 00	r0 >>= 8
    2142:	7b 0a 60 ff 00 00 00 00	*(u64 *)(r10 - 160) = r0
    2143:	7b 0a c0 ff 00 00 00 00	*(u64 *)(r10 - 64) = r0
    2144:	bf a2 00 00 00 00 00 00	r2 = r10
    2145:	07 02 00 00 98 ff ff ff	r2 += -104
    2146:	bf a3 00 00 00 00 00 00	r3 = r10
    2147:	07 03 00 00 c0 ff ff ff	r3 += -64
    2148:	18 01 00 00 00 00 00 00 00 00 00 00 00 00 00 00	r1 = 0 ll
    2150:	b7 04 00 00 01 00 00 00	r4 = 1
    2151:	85 00 00 00 02 00 00 00	call 2
    2152:	bf 07 00 00 00 00 00 00	r7 = r0
    2153:	bf 71 00 00 00 00 00 00	r1 = r7
    2154:	67 01 00 00 20 00 00 00	r1 <<= 32
    2155:	77 01 00 00 20 00 00 00	r1 >>= 32
    2156:	55 01 12 00 00 00 00 00	if r1 != 0 goto +18 <LBB2_291>
    2157:	bf a2 00 00 00 00 00 00	r2 = r10
    2158:	07 02 00 00 38 ff ff ff	r2 += -200
    2159:	bf a3 00 00 00 00 00 00	r3 = r10
    2160:	07 03 00 00 60 ff ff ff	r3 += -160
    2161:	18 01 00 00 00 00 00 00 00 00 00 00 00 00 00 00	r1 = 0 ll
    2163:	b7 04 00 00 01 00 00 00	r4 = 1
    2164:	85 00 00 00 02 00 00 00	call 2
    2165:	bf 07 00 00 00 00 00 00	r7 = r0
    2166:	bf 71 00 00 00 00 00 00	r1 = r7
    2167:	67 01 00 00 20 00 00 00	r1 <<= 32
    2168:	77 01 00 00 20 00 00 00	r1 >>= 32
    2169:	15 01 a0 16 00 00 00 00	if r1 == 0 goto +5792 <LBB2_728>
    2170:	bf a2 00 00 00 00 00 00	r2 = r10
    2171:	07 02 00 00 98 ff ff ff	r2 += -104
    2172:	18 01 00 00 00 00 00 00 00 00 00 00 00 00 00 00	r1 = 0 ll
    2174:	85 00 00 00 03 00 00 00	call 3

00000000000043f8 <LBB2_291>:
    2175:	07 08 00 00 01 00 00 00	r8 += 1
    2176:	bf 81 00 00 00 00 00 00	r1 = r8
    2177:	57 01 00 00 ff ff 00 00	r1 &= 65535
    2178:	37 01 00 00 ff 7f 00 00	r1 /= 32767
    2179:	0f 18 00 00 00 00 00 00	r8 += r1
    2180:	47 08 00 00 00 80 ff ff	r8 |= -32768
    2181:	bf 81 00 00 00 00 00 00	r1 = r8
    2182:	dc 01 00 00 10 00 00 00	r1 = be16 r1
    2183:	6b 1a b8 ff 00 00 00 00	*(u16 *)(r10 - 72) = r1
    2184:	6b 1a 90 ff 00 00 00 00	*(u16 *)(r10 - 112) = r1
    2185:	bf a2 00 00 00 00 00 00	r2 = r10
    2186:	07 02 00 00 98 ff ff ff	r2 += -104
    2187:	18 01 00 00 00 00 00 00 00 00 00 00 00 00 00 00	r1 = 0 ll
    2189:	85 00 00 00 01 00 00 00	call 1
    2190:	55 00 23 00 00 00 00 00	if r0 != 0 goto +35 <LBB2_295>
    2191:	85 00 00 00 76 00 00 00	call 118
    2192:	77 00 00 00 08 00 00 00	r0 >>= 8
    2193:	7b 0a 60 ff 00 00 00 00	*(u64 *)(r10 - 160) = r0
    2194:	7b 0a c0 ff 00 00 00 00	*(u64 *)(r10 - 64) = r0
    2195:	bf a2 00 00 00 00 00 00	r2 = r10
    2196:	07 02 00 00 98 ff ff ff	r2 += -104
    2197:	bf a3 00 00 00 00 00 00	r3 = r10
    2198:	07 03 00 00 c0 ff ff ff	r3 += -64
    2199:	18 01 00 00 00 00 00 00 00 00 00 00 00 00 00 00	r1 = 0 ll
    2201:	b7 04 00 00 01 00 00 00	r4 = 1
    2202:	85 00 00 00 02 00 00 00	call 2
    2203:	bf 07 00 00 00 00 00 00	r7 = r0
    2204:	bf 71 00 00 00 00 00 00	r1 = r7
    2205:	67 01 00 00 20 00 00 00	r1 <<= 32
    2206:	77 01 00 00 20 00 00 00	r1 >>= 32
    2207:	55 01 12 00 00 00 00 00	if r1 != 0 goto +18 <LBB2_295>
    2208:	bf a2 00 00 00 00 00 00	r2 = r10
    2209:	07 02 00 00 38 ff ff ff	r2 += -200
    2210:	bf a3 00 00 00 00 00 00	r3 = r10
    2211:	07 03 00 00 60 ff ff ff	r3 += -160
    2212:	18 01 00 00 00 00 00 00 00 00 00 00 00 00 00 00	r1 = 0 ll
    2214:	b7 04 00 00 01 00 00 00	r4 = 1
    2215:	85 00 00 00 02 00 00 00	call 2
    2216:	bf 07 00 00 00 00 00 00	r7 = r0
    2217:	bf 71 00 00 00 00 00 00	r1 = r7
    2218:	67 01 00 00 20 00 00 00	r1 <<= 32
    2219:	77 01 00 00 20 00 00 00	r1 >>= 32
    2220:	15 01 6d 16 00 00 00 00	if r1 == 0 goto +5741 <LBB2_728>
    2221:	bf a2 00 00 00 00 00 00	r2 = r10
    2222:	07 02 00 00 98 ff ff ff	r2 += -104
    2223:	18 01 00 00 00 00 00 00 00 00 00 00 00 00 00 00	r1 = 0 ll
    2225:	85 00 00 00 03 00 00 00	call 3

0000000000004590 <LBB2_295>:
    2226:	07 08 00 00 01 00 00 00	r8 += 1
    2227:	bf 81 00 00 00 00 00 00	r1 = r8
    2228:	57 01 00 00 ff ff 00 00	r1 &= 65535
    2229:	37 01 00 00 ff 7f 00 00	r1 /= 32767
    2230:	0f 18 00 00 00 00 00 00	r8 += r1
    2231:	47 08 00 00 00 80 ff ff	r8 |= -32768
    2232:	bf 81 00 00 00 00 00 00	r1 = r8
    2233:	dc 01 00 00 10 00 00 00	r1 = be16 r1
    2234:	6b 1a b8 ff 00 00 00 00	*(u16 *)(r10 - 72) = r1
    2235:	6b 1a 90 ff 00 00 00 00	*(u16 *)(r10 - 112) = r1
    2236:	bf a2 00 00 00 00 00 00	r2 = r10
    2237:	07 02 00 00 98 ff ff ff	r2 += -104
    2238:	18 01 00 00 00 00 00 00 00 00 00 00 00 00 00 00	r1 = 0 ll
    2240:	85 00 00 00 01 00 00 00	call 1
    2241:	55 00 23 00 00 00 00 00	if r0 != 0 goto +35 <LBB2_299>
    2242:	85 00 00 00 76 00 00 00	call 118
    2243:	77 00 00 00 08 00 00 00	r0 >>= 8
    2244:	7b 0a 60 ff 00 00 00 00	*(u64 *)(r10 - 160) = r0
    2245:	7b 0a c0 ff 00 00 00 00	*(u64 *)(r10 - 64) = r0
    2246:	bf a2 00 00 00 00 00 00	r2 = r10
    2247:	07 02 00 00 98 ff ff ff	r2 += -104
    2248:	bf a3 00 00 00 00 00 00	r3 = r10
    2249:	07 03 00 00 c0 ff ff ff	r3 += -64
    2250:	18 01 00 00 00 00 00 00 00 00 00 00 00 00 00 00	r1 = 0 ll
    2252:	b7 04 00 00 01 00 00 00	r4 = 1
    2253:	85 00 00 00 02 00 00 00	call 2
    2254:	bf 07 00 00 00 00 00 00	r7 = r0
    2255:	bf 71 00 00 00 00 00 00	r1 = r7
    2256:	67 01 00 00 20 00 00 00	r1 <<= 32
    2257:	77 01 00 00 20 00 00 00	r1 >>= 32
    2258:	55 01 12 00 00 00 00 00	if r1 != 0 goto +18 <LBB2_299>
    2259:	bf a2 00 00 00 00 00 00	r2 = r10
    2260:	07 02 00 00 38 ff ff ff	r2 += -200
    2261:	bf a3 00 00 00 00 00 00	r3 = r10
    2262:	07 03 00 00 60 ff ff ff	r3 += -160
    2263:	18 01 00 00 00 00 00 00 00 00 00 00 00 00 00 00	r1 = 0 ll
    2265:	b7 04 00 00 01 00 00 00	r4 = 1
    2266:	85 00 00 00 02 00 00 00	call 2
    2267:	bf 07 00 00 00 00 00 00	r7 = r0
    2268:	bf 71 00 00 00 00 00 00	r1 = r7
    2269:	67 01 00 00 20 00 00 00	r1 <<= 32
    2270:	77 01 00 00 20 00 00 00	r1 >>= 32
    2271:	15 01 3a 16 00 00 00 00	if r1 == 0 goto +5690 <LBB2_728>
    2272:	bf a2 00 00 00 00 00 00	r2 = r10
    2273:	07 02 00 00 98 ff ff ff	r2 += -104
    2274:	18 01 00 00 00 00 00 00 00 00 00 00 00 00 00 00	r1 = 0 ll
    2276:	85 00 00 00 03 00 00 00	call 3

0000000000004728 <LBB2_299>:
    2277:	07 08 00 00 01 00 00 00	r8 += 1
    2278:	bf 81 00 00 00 00 00 00	r1 = r8
    2279:	57 01 00 00 ff ff 00 00	r1 &= 65535
    2280:	37 01 00 00 ff 7f 00 00	r1 /= 32767
    2281:	0f 18 00 00 00 00 00 00	r8 += r1
    2282:	47 08 00 00 00 80 ff ff	r8 |= -32768
    2283:	bf 81 00 00 00 00 00 00	r1 = r8
    2284:	dc 01 00 00 10 00 00 00	r1 = be16 r1
    2285:	6b 1a b8 ff 00 00 00 00	*(u16 *)(r10 - 72) = r1
    2286:	6b 1a 90 ff 00 00 00 00	*(u16 *)(r10 - 112) = r1
    2287:	bf a2 00 00 00 00 00 00	r2 = r10
    2288:	07 02 00 00 98 ff ff ff	r2 += -104
    2289:	18 01 00 00 00 00 00 00 00 00 00 00 00 00 00 00	r1 = 0 ll
    2291:	85 00 00 00 01 00 00 00	call 1
    2292:	55 00 23 00 00 00 00 00	if r0 != 0 goto +35 <LBB2_303>
    2293:	85 00 00 00 76 00 00 00	call 118
    2294:	77 00 00 00 08 00 00 00	r0 >>= 8
    2295:	7b 0a 60 ff 00 00 00 00	*(u64 *)(r10 - 160) = r0
    2296:	7b 0a c0 ff 00 00 00 00	*(u64 *)(r10 - 64) = r0
    2297:	bf a2 00 00 00 00 00 00	r2 = r10
    2298:	07 02 00 00 98 ff ff ff	r2 += -104
    2299:	bf a3 00 00 00 00 00 00	r3 = r10
    2300:	07 03 00 00 c0 ff ff ff	r3 += -64
    2301:	18 01 00 00 00 00 00 00 00 00 00 00 00 00 00 00	r1 = 0 ll
    2303:	b7 04 00 00 01 00 00 00	r4 = 1
    2304:	85 00 00 00 02 00 00 00	call 2
    2305:	bf 07 00 00 00 00 00 00	r7 = r0
    2306:	bf 71 00 00 00 00 00 00	r1 = r7
    2307:	67 01 00 00 20 00 00 00	r1 <<= 32
    2308:	77 01 00 00 20 00 00 00	r1 >>= 32
    2309:	55 01 12 00 00 00 00 00	if r1 != 0 goto +18 <LBB2_303>
    2310:	bf a2 00 00 00 00 00 00	r2 = r10
    2311:	07 02 00 00 38 ff ff ff	r2 += -200
    2312:	bf a3 00 00 00 00 00 00	r3 = r10
    2313:	07 03 00 00 60 ff ff ff	r3 += -160
    2314:	18 01 00 00 00 00 00 00 00 00 00 00 00 00 00 00	r1 = 0 ll
    2316:	b7 04 00 00 01 00 00 00	r4 = 1
    2317:	85 00 00 00 02 00 00 00	call 2
    2318:	bf 07 00 00 00 00 00 00	r7 = r0
    2319:	bf 71 00 00 00 00 00 00	r1 = r7
    2320:	67 01 00 00 20 00 00 00	r1 <<= 32
    2321:	77 01 00 00 20 00 00 00	r1 >>= 32
    2322:	15 01 07 16 00 00 00 00	if r1 == 0 goto +5639 <LBB2_728>
    2323:	bf a2 00 00 00 00 00 00	r2 = r10
    2324:	07 02 00 00 98 ff ff ff	r2 += -104
    2325:	18 01 00 00 00 00 00 00 00 00 00 00 00 00 00 00	r1 = 0 ll
    2327:	85 00 00 00 03 00 00 00	call 3

00000000000048c0 <LBB2_303>:
    2328:	07 08 00 00 01 00 00 00	r8 += 1
    2329:	bf 81 00 00 00 00 00 00	r1 = r8
    2330:	57 01 00 00 ff ff 00 00	r1 &= 65535
    2331:	37 01 00 00 ff 7f 00 00	r1 /= 32767
    2332:	0f 18 00 00 00 00 00 00	r8 += r1
    2333:	47 08 00 00 00 80 ff ff	r8 |= -32768
    2334:	bf 81 00 00 00 00 00 00	r1 = r8
    2335:	dc 01 00 00 10 00 00 00	r1 = be16 r1
    2336:	6b 1a b8 ff 00 00 00 00	*(u16 *)(r10 - 72) = r1
    2337:	6b 1a 90 ff 00 00 00 00	*(u16 *)(r10 - 112) = r1
    2338:	bf a2 00 00 00 00 00 00	r2 = r10
    2339:	07 02 00 00 98 ff ff ff	r2 += -104
    2340:	18 01 00 00 00 00 00 00 00 00 00 00 00 00 00 00	r1 = 0 ll
    2342:	85 00 00 00 01 00 00 00	call 1
    2343:	55 00 23 00 00 00 00 00	if r0 != 0 goto +35 <LBB2_307>
    2344:	85 00 00 00 76 00 00 00	call 118
    2345:	77 00 00 00 08 00 00 00	r0 >>= 8
    2346:	7b 0a 60 ff 00 00 00 00	*(u64 *)(r10 - 160) = r0
    2347:	7b 0a c0 ff 00 00 00 00	*(u64 *)(r10 - 64) = r0
    2348:	bf a2 00 00 00 00 00 00	r2 = r10
    2349:	07 02 00 00 98 ff ff ff	r2 += -104
    2350:	bf a3 00 00 00 00 00 00	r3 = r10
    2351:	07 03 00 00 c0 ff ff ff	r3 += -64
    2352:	18 01 00 00 00 00 00 00 00 00 00 00 00 00 00 00	r1 = 0 ll
    2354:	b7 04 00 00 01 00 00 00	r4 = 1
    2355:	85 00 00 00 02 00 00 00	call 2
    2356:	bf 07 00 00 00 00 00 00	r7 = r0
    2357:	bf 71 00 00 00 00 00 00	r1 = r7
    2358:	67 01 00 00 20 00 00 00	r1 <<= 32
    2359:	77 01 00 00 20 00 00 00	r1 >>= 32
    2360:	55 01 12 00 00 00 00 00	if r1 != 0 goto +18 <LBB2_307>
    2361:	bf a2 00 00 00 00 00 00	r2 = r10
    2362:	07 02 00 00 38 ff ff ff	r2 += -200
    2363:	bf a3 00 00 00 00 00 00	r3 = r10
    2364:	07 03 00 00 60 ff ff ff	r3 += -160
    2365:	18 01 00 00 00 00 00 00 00 00 00 00 00 00 00 00	r1 = 0 ll
    2367:	b7 04 00 00 01 00 00 00	r4 = 1
    2368:	85 00 00 00 02 00 00 00	call 2
    2369:	bf 07 00 00 00 00 00 00	r7 = r0
    2370:	bf 71 00 00 00 00 00 00	r1 = r7
    2371:	67 01 00 00 20 00 00 00	r1 <<= 32
    2372:	77 01 00 00 20 00 00 00	r1 >>= 32
    2373:	15 01 d4 15 00 00 00 00	if r1 == 0 goto +5588 <LBB2_728>
    2374:	bf a2 00 00 00 00 00 00	r2 = r10
    2375:	07 02 00 00 98 ff ff ff	r2 += -104
    2376:	18 01 00 00 00 00 00 00 00 00 00 00 00 00 00 00	r1 = 0 ll
    2378:	85 00 00 00 03 00 00 00	call 3

0000000000004a58 <LBB2_307>:
    2379:	07 08 00 00 01 00 00 00	r8 += 1
    2380:	bf 81 00 00 00 00 00 00	r1 = r8
    2381:	57 01 00 00 ff ff 00 00	r1 &= 65535
    2382:	37 01 00 00 ff 7f 00 00	r1 /= 32767
    2383:	0f 18 00 00 00 00 00 00	r8 += r1
    2384:	47 08 00 00 00 80 ff ff	r8 |= -32768
    2385:	bf 81 00 00 00 00 00 00	r1 = r8
    2386:	dc 01 00 00 10 00 00 00	r1 = be16 r1
    2387:	6b 1a b8 ff 00 00 00 00	*(u16 *)(r10 - 72) = r1
    2388:	6b 1a 90 ff 00 00 00 00	*(u16 *)(r10 - 112) = r1
    2389:	bf a2 00 00 00 00 00 00	r2 = r10
    2390:	07 02 00 00 98 ff ff ff	r2 += -104
    2391:	18 01 00 00 00 00 00 00 00 00 00 00 00 00 00 00	r1 = 0 ll
    2393:	85 00 00 00 01 00 00 00	call 1
    2394:	55 00 23 00 00 00 00 00	if r0 != 0 goto +35 <LBB2_311>
    2395:	85 00 00 00 76 00 00 00	call 118
    2396:	77 00 00 00 08 00 00 00	r0 >>= 8
    2397:	7b 0a 60 ff 00 00 00 00	*(u64 *)(r10 - 160) = r0
    2398:	7b 0a c0 ff 00 00 00 00	*(u64 *)(r10 - 64) = r0
    2399:	bf a2 00 00 00 00 00 00	r2 = r10
    2400:	07 02 00 00 98 ff ff ff	r2 += -104
    2401:	bf a3 00 00 00 00 00 00	r3 = r10
    2402:	07 03 00 00 c0 ff ff ff	r3 += -64
    2403:	18 01 00 00 00 00 00 00 00 00 00 00 00 00 00 00	r1 = 0 ll
    2405:	b7 04 00 00 01 00 00 00	r4 = 1
    2406:	85 00 00 00 02 00 00 00	call 2
    2407:	bf 07 00 00 00 00 00 00	r7 = r0
    2408:	bf 71 00 00 00 00 00 00	r1 = r7
    2409:	67 01 00 00 20 00 00 00	r1 <<= 32
    2410:	77 01 00 00 20 00 00 00	r1 >>= 32
    2411:	55 01 12 00 00 00 00 00	if r1 != 0 goto +18 <LBB2_311>
    2412:	bf a2 00 00 00 00 00 00	r2 = r10
    2413:	07 02 00 00 38 ff ff ff	r2 += -200
    2414:	bf a3 00 00 00 00 00 00	r3 = r10
    2415:	07 03 00 00 60 ff ff ff	r3 += -160
    2416:	18 01 00 00 00 00 00 00 00 00 00 00 00 00 00 00	r1 = 0 ll
    2418:	b7 04 00 00 01 00 00 00	r4 = 1
    2419:	85 00 00 00 02 00 00 00	call 2
    2420:	bf 07 00 00 00 00 00 00	r7 = r0
    2421:	bf 71 00 00 00 00 00 00	r1 = r7
    2422:	67 01 00 00 20 00 00 00	r1 <<= 32
    2423:	77 01 00 00 20 00 00 00	r1 >>= 32
    2424:	15 01 a1 15 00 00 00 00	if r1 == 0 goto +5537 <LBB2_728>
    2425:	bf a2 00 00 00 00 00 00	r2 = r10
    2426:	07 02 00 00 98 ff ff ff	r2 += -104
    2427:	18 01 00 00 00 00 00 00 00 00 00 00 00 00 00 00	r1 = 0 ll
    2429:	85 00 00 00 03 00 00 00	call 3

0000000000004bf0 <LBB2_311>:
    2430:	07 08 00 00 01 00 00 00	r8 += 1
    2431:	bf 81 00 00 00 00 00 00	r1 = r8
    2432:	57 01 00 00 ff ff 00 00	r1 &= 65535
    2433:	37 01 00 00 ff 7f 00 00	r1 /= 32767
    2434:	0f 18 00 00 00 00 00 00	r8 += r1
    2435:	47 08 00 00 00 80 ff ff	r8 |= -32768
    2436:	bf 81 00 00 00 00 00 00	r1 = r8
    2437:	dc 01 00 00 10 00 00 00	r1 = be16 r1
    2438:	6b 1a b8 ff 00 00 00 00	*(u16 *)(r10 - 72) = r1
    2439:	6b 1a 90 ff 00 00 00 00	*(u16 *)(r10 - 112) = r1
    2440:	bf a2 00 00 00 00 00 00	r2 = r10
    2441:	07 02 00 00 98 ff ff ff	r2 += -104
    2442:	18 01 00 00 00 00 00 00 00 00 00 00 00 00 00 00	r1 = 0 ll
    2444:	85 00 00 00 01 00 00 00	call 1
    2445:	55 00 23 00 00 00 00 00	if r0 != 0 goto +35 <LBB2_315>
    2446:	85 00 00 00 76 00 00 00	call 118
    2447:	77 00 00 00 08 00 00 00	r0 >>= 8
    2448:	7b 0a 60 ff 00 00 00 00	*(u64 *)(r10 - 160) = r0
    2449:	7b 0a c0 ff 00 00 00 00	*(u64 *)(r10 - 64) = r0
    2450:	bf a2 00 00 00 00 00 00	r2 = r10
    2451:	07 02 00 00 98 ff ff ff	r2 += -104
    2452:	bf a3 00 00 00 00 00 00	r3 = r10
    2453:	07 03 00 00 c0 ff ff ff	r3 += -64
    2454:	18 01 00 00 00 00 00 00 00 00 00 00 00 00 00 00	r1 = 0 ll
    2456:	b7 04 00 00 01 00 00 00	r4 = 1
    2457:	85 00 00 00 02 00 00 00	call 2
    2458:	bf 07 00 00 00 00 00 00	r7 = r0
    2459:	bf 71 00 00 00 00 00 00	r1 = r7
    2460:	67 01 00 00 20 00 00 00	r1 <<= 32
    2461:	77 01 00 00 20 00 00 00	r1 >>= 32
    2462:	55 01 12 00 00 00 00 00	if r1 != 0 goto +18 <LBB2_315>
    2463:	bf a2 00 00 00 00 00 00	r2 = r10
    2464:	07 02 00 00 38 ff ff ff	r2 += -200
    2465:	bf a3 00 00 00 00 00 00	r3 = r10
    2466:	07 03 00 00 60 ff ff ff	r3 += -160
    2467:	18 01 00 00 00 00 00 00 00 00 00 00 00 00 00 00	r1 = 0 ll
    2469:	b7 04 00 00 01 00 00 00	r4 = 1
    2470:	85 00 00 00 02 00 00 00	call 2
    2471:	bf 07 00 00 00 00 00 00	r7 = r0
    2472:	bf 71 00 00 00 00 00 00	r1 = r7
    2473:	67 01 00 00 20 00 00 00	r1 <<= 32
    2474:	77 01 00 00 20 00 00 00	r1 >>= 32
    2475:	15 01 6e 15 00 00 00 00	if r1 == 0 goto +5486 <LBB2_728>
    2476:	bf a2 00 00 00 00 00 00	r2 = r10
    2477:	07 02 00 00 98 ff ff ff	r2 += -104
    2478:	18 01 00 00 00 00 00 00 00 00 00 00 00 00 00 00	r1 = 0 ll
    2480:	85 00 00 00 03 00 00 00	call 3

0000000000004d88 <LBB2_315>:
    2481:	07 08 00 00 01 00 00 00	r8 += 1
    2482:	bf 81 00 00 00 00 00 00	r1 = r8
    2483:	57 01 00 00 ff ff 00 00	r1 &= 65535
    2484:	37 01 00 00 ff 7f 00 00	r1 /= 32767
    2485:	0f 18 00 00 00 00 00 00	r8 += r1
    2486:	47 08 00 00 00 80 ff ff	r8 |= -32768
    2487:	bf 81 00 00 00 00 00 00	r1 = r8
    2488:	dc 01 00 00 10 00 00 00	r1 = be16 r1
    2489:	6b 1a b8 ff 00 00 00 00	*(u16 *)(r10 - 72) = r1
    2490:	6b 1a 90 ff 00 00 00 00	*(u16 *)(r10 - 112) = r1
    2491:	bf a2 00 00 00 00 00 00	r2 = r10
    2492:	07 02 00 00 98 ff ff ff	r2 += -104
    2493:	18 01 00 00 00 00 00 00 00 00 00 00 00 00 00 00	r1 = 0 ll
    2495:	85 00 00 00 01 00 00 00	call 1
    2496:	55 00 23 00 00 00 00 00	if r0 != 0 goto +35 <LBB2_319>
    2497:	85 00 00 00 76 00 00 00	call 118
    2498:	77 00 00 00 08 00 00 00	r0 >>= 8
    2499:	7b 0a 60 ff 00 00 00 00	*(u64 *)(r10 - 160) = r0
    2500:	7b 0a c0 ff 00 00 00 00	*(u64 *)(r10 - 64) = r0
    2501:	bf a2 00 00 00 00 00 00	r2 = r10
    2502:	07 02 00 00 98 ff ff ff	r2 += -104
    2503:	bf a3 00 00 00 00 00 00	r3 = r10
    2504:	07 03 00 00 c0 ff ff ff	r3 += -64
    2505:	18 01 00 00 00 00 00 00 00 00 00 00 00 00 00 00	r1 = 0 ll
    2507:	b7 04 00 00 01 00 00 00	r4 = 1
    2508:	85 00 00 00 02 00 00 00	call 2
    2509:	bf 07 00 00 00 00 00 00	r7 = r0
    2510:	bf 71 00 00 00 00 00 00	r1 = r7
    2511:	67 01 00 00 20 00 00 00	r1 <<= 32
    2512:	77 01 00 00 20 00 00 00	r1 >>= 32
    2513:	55 01 12 00 00 00 00 00	if r1 != 0 goto +18 <LBB2_319>
    2514:	bf a2 00 00 00 00 00 00	r2 = r10
    2515:	07 02 00 00 38 ff ff ff	r2 += -200
    2516:	bf a3 00 00 00 00 00 00	r3 = r10
    2517:	07 03 00 00 60 ff ff ff	r3 += -160
    2518:	18 01 00 00 00 00 00 00 00 00 00 00 00 00 00 00	r1 = 0 ll
    2520:	b7 04 00 00 01 00 00 00	r4 = 1
    2521:	85 00 00 00 02 00 00 00	call 2
    2522:	bf 07 00 00 00 00 00 00	r7 = r0
    2523:	bf 71 00 00 00 00 00 00	r1 = r7
    2524:	67 01 00 00 20 00 00 00	r1 <<= 32
    2525:	77 01 00 00 20 00 00 00	r1 >>= 32
    2526:	15 01 3b 15 00 00 00 00	if r1 == 0 goto +5435 <LBB2_728>
    2527:	bf a2 00 00 00 00 00 00	r2 = r10
    2528:	07 02 00 00 98 ff ff ff	r2 += -104
    2529:	18 01 00 00 00 00 00 00 00 00 00 00 00 00 00 00	r1 = 0 ll
    2531:	85 00 00 00 03 00 00 00	call 3

0000000000004f20 <LBB2_319>:
    2532:	07 08 00 00 01 00 00 00	r8 += 1
    2533:	bf 81 00 00 00 00 00 00	r1 = r8
    2534:	57 01 00 00 ff ff 00 00	r1 &= 65535
    2535:	37 01 00 00 ff 7f 00 00	r1 /= 32767
    2536:	0f 18 00 00 00 00 00 00	r8 += r1
    2537:	47 08 00 00 00 80 ff ff	r8 |= -32768
    2538:	bf 81 00 00 00 00 00 00	r1 = r8
    2539:	dc 01 00 00 10 00 00 00	r1 = be16 r1
    2540:	6b 1a b8 ff 00 00 00 00	*(u16 *)(r10 - 72) = r1
    2541:	6b 1a 90 ff 00 00 00 00	*(u16 *)(r10 - 112) = r1
    2542:	bf a2 00 00 00 00 00 00	r2 = r10
    2543:	07 02 00 00 98 ff ff ff	r2 += -104
    2544:	18 01 00 00 00 00 00 00 00 00 00 00 00 00 00 00	r1 = 0 ll
    2546:	85 00 00 00 01 00 00 00	call 1
    2547:	55 00 23 00 00 00 00 00	if r0 != 0 goto +35 <LBB2_323>
    2548:	85 00 00 00 76 00 00 00	call 118
    2549:	77 00 00 00 08 00 00 00	r0 >>= 8
    2550:	7b 0a 60 ff 00 00 00 00	*(u64 *)(r10 - 160) = r0
    2551:	7b 0a c0 ff 00 00 00 00	*(u64 *)(r10 - 64) = r0
    2552:	bf a2 00 00 00 00 00 00	r2 = r10
    2553:	07 02 00 00 98 ff ff ff	r2 += -104
    2554:	bf a3 00 00 00 00 00 00	r3 = r10
    2555:	07 03 00 00 c0 ff ff ff	r3 += -64
    2556:	18 01 00 00 00 00 00 00 00 00 00 00 00 00 00 00	r1 = 0 ll
    2558:	b7 04 00 00 01 00 00 00	r4 = 1
    2559:	85 00 00 00 02 00 00 00	call 2
    2560:	bf 07 00 00 00 00 00 00	r7 = r0
    2561:	bf 71 00 00 00 00 00 00	r1 = r7
    2562:	67 01 00 00 20 00 00 00	r1 <<= 32
    2563:	77 01 00 00 20 00 00 00	r1 >>= 32
    2564:	55 01 12 00 00 00 00 00	if r1 != 0 goto +18 <LBB2_323>
    2565:	bf a2 00 00 00 00 00 00	r2 = r10
    2566:	07 02 00 00 38 ff ff ff	r2 += -200
    2567:	bf a3 00 00 00 00 00 00	r3 = r10
    2568:	07 03 00 00 60 ff ff ff	r3 += -160
    2569:	18 01 00 00 00 00 00 00 00 00 00 00 00 00 00 00	r1 = 0 ll
    2571:	b7 04 00 00 01 00 00 00	r4 = 1
    2572:	85 00 00 00 02 00 00 00	call 2
    2573:	bf 07 00 00 00 00 00 00	r7 = r0
    2574:	bf 71 00 00 00 00 00 00	r1 = r7
    2575:	67 01 00 00 20 00 00 00	r1 <<= 32
    2576:	77 01 00 00 20 00 00 00	r1 >>= 32
    2577:	15 01 08 15 00 00 00 00	if r1 == 0 goto +5384 <LBB2_728>
    2578:	bf a2 00 00 00 00 00 00	r2 = r10
    2579:	07 02 00 00 98 ff ff ff	r2 += -104
    2580:	18 01 00 00 00 00 00 00 00 00 00 00 00 00 00 00	r1 = 0 ll
    2582:	85 00 00 00 03 00 00 00	call 3

00000000000050b8 <LBB2_323>:
    2583:	07 08 00 00 01 00 00 00	r8 += 1
    2584:	bf 81 00 00 00 00 00 00	r1 = r8
    2585:	57 01 00 00 ff ff 00 00	r1 &= 65535
    2586:	37 01 00 00 ff 7f 00 00	r1 /= 32767
    2587:	0f 18 00 00 00 00 00 00	r8 += r1
    2588:	47 08 00 00 00 80 ff ff	r8 |= -32768
    2589:	bf 81 00 00 00 00 00 00	r1 = r8
    2590:	dc 01 00 00 10 00 00 00	r1 = be16 r1
    2591:	6b 1a b8 ff 00 00 00 00	*(u16 *)(r10 - 72) = r1
    2592:	6b 1a 90 ff 00 00 00 00	*(u16 *)(r10 - 112) = r1
    2593:	bf a2 00 00 00 00 00 00	r2 = r10
    2594:	07 02 00 00 98 ff ff ff	r2 += -104
    2595:	18 01 00 00 00 00 00 00 00 00 00 00 00 00 00 00	r1 = 0 ll
    2597:	85 00 00 00 01 00 00 00	call 1
    2598:	55 00 23 00 00 00 00 00	if r0 != 0 goto +35 <LBB2_327>
    2599:	85 00 00 00 76 00 00 00	call 118
    2600:	77 00 00 00 08 00 00 00	r0 >>= 8
    2601:	7b 0a 60 ff 00 00 00 00	*(u64 *)(r10 - 160) = r0
    2602:	7b 0a c0 ff 00 00 00 00	*(u64 *)(r10 - 64) = r0
    2603:	bf a2 00 00 00 00 00 00	r2 = r10
    2604:	07 02 00 00 98 ff ff ff	r2 += -104
    2605:	bf a3 00 00 00 00 00 00	r3 = r10
    2606:	07 03 00 00 c0 ff ff ff	r3 += -64
    2607:	18 01 00 00 00 00 00 00 00 00 00 00 00 00 00 00	r1 = 0 ll
    2609:	b7 04 00 00 01 00 00 00	r4 = 1
    2610:	85 00 00 00 02 00 00 00	call 2
    2611:	bf 07 00 00 00 00 00 00	r7 = r0
    2612:	bf 71 00 00 00 00 00 00	r1 = r7
    2613:	67 01 00 00 20 00 00 00	r1 <<= 32
    2614:	77 01 00 00 20 00 00 00	r1 >>= 32
    2615:	55 01 12 00 00 00 00 00	if r1 != 0 goto +18 <LBB2_327>
    2616:	bf a2 00 00 00 00 00 00	r2 = r10
    2617:	07 02 00 00 38 ff ff ff	r2 += -200
    2618:	bf a3 00 00 00 00 00 00	r3 = r10
    2619:	07 03 00 00 60 ff ff ff	r3 += -160
    2620:	18 01 00 00 00 00 00 00 00 00 00 00 00 00 00 00	r1 = 0 ll
    2622:	b7 04 00 00 01 00 00 00	r4 = 1
    2623:	85 00 00 00 02 00 00 00	call 2
    2624:	bf 07 00 00 00 00 00 00	r7 = r0
    2625:	bf 71 00 00 00 00 00 00	r1 = r7
    2626:	67 01 00 00 20 00 00 00	r1 <<= 32
    2627:	77 01 00 00 20 00 00 00	r1 >>= 32
    2628:	15 01 d5 14 00 00 00 00	if r1 == 0 goto +5333 <LBB2_728>
    2629:	bf a2 00 00 00 00 00 00	r2 = r10
    2630:	07 02 00 00 98 ff ff ff	r2 += -104
    2631:	18 01 00 00 00 00 00 00 00 00 00 00 00 00 00 00	r1 = 0 ll
    2633:	85 00 00 00 03 00 00 00	call 3

0000000000005250 <LBB2_327>:
    2634:	07 08 00 00 01 00 00 00	r8 += 1
    2635:	bf 81 00 00 00 00 00 00	r1 = r8
    2636:	57 01 00 00 ff ff 00 00	r1 &= 65535
    2637:	37 01 00 00 ff 7f 00 00	r1 /= 32767
    2638:	0f 18 00 00 00 00 00 00	r8 += r1
    2639:	47 08 00 00 00 80 ff ff	r8 |= -32768
    2640:	bf 81 00 00 00 00 00 00	r1 = r8
    2641:	dc 01 00 00 10 00 00 00	r1 = be16 r1
    2642:	6b 1a b8 ff 00 00 00 00	*(u16 *)(r10 - 72) = r1
    2643:	6b 1a 90 ff 00 00 00 00	*(u16 *)(r10 - 112) = r1
    2644:	bf a2 00 00 00 00 00 00	r2 = r10
    2645:	07 02 00 00 98 ff ff ff	r2 += -104
    2646:	18 01 00 00 00 00 00 00 00 00 00 00 00 00 00 00	r1 = 0 ll
    2648:	85 00 00 00 01 00 00 00	call 1
    2649:	55 00 23 00 00 00 00 00	if r0 != 0 goto +35 <LBB2_331>
    2650:	85 00 00 00 76 00 00 00	call 118
    2651:	77 00 00 00 08 00 00 00	r0 >>= 8
    2652:	7b 0a 60 ff 00 00 00 00	*(u64 *)(r10 - 160) = r0
    2653:	7b 0a c0 ff 00 00 00 00	*(u64 *)(r10 - 64) = r0
    2654:	bf a2 00 00 00 00 00 00	r2 = r10
    2655:	07 02 00 00 98 ff ff ff	r2 += -104
    2656:	bf a3 00 00 00 00 00 00	r3 = r10
    2657:	07 03 00 00 c0 ff ff ff	r3 += -64
    2658:	18 01 00 00 00 00 00 00 00 00 00 00 00 00 00 00	r1 = 0 ll
    2660:	b7 04 00 00 01 00 00 00	r4 = 1
    2661:	85 00 00 00 02 00 00 00	call 2
    2662:	bf 07 00 00 00 00 00 00	r7 = r0
    2663:	bf 71 00 00 00 00 00 00	r1 = r7
    2664:	67 01 00 00 20 00 00 00	r1 <<= 32
    2665:	77 01 00 00 20 00 00 00	r1 >>= 32
    2666:	55 01 12 00 00 00 00 00	if r1 != 0 goto +18 <LBB2_331>
    2667:	bf a2 00 00 00 00 00 00	r2 = r10
    2668:	07 02 00 00 38 ff ff ff	r2 += -200
    2669:	bf a3 00 00 00 00 00 00	r3 = r10
    2670:	07 03 00 00 60 ff ff ff	r3 += -160
    2671:	18 01 00 00 00 00 00 00 00 00 00 00 00 00 00 00	r1 = 0 ll
    2673:	b7 04 00 00 01 00 00 00	r4 = 1
    2674:	85 00 00 00 02 00 00 00	call 2
    2675:	bf 07 00 00 00 00 00 00	r7 = r0
    2676:	bf 71 00 00 00 00 00 00	r1 = r7
    2677:	67 01 00 00 20 00 00 00	r1 <<= 32
    2678:	77 01 00 00 20 00 00 00	r1 >>= 32
    2679:	15 01 a2 14 00 00 00 00	if r1 == 0 goto +5282 <LBB2_728>
    2680:	bf a2 00 00 00 00 00 00	r2 = r10
    2681:	07 02 00 00 98 ff ff ff	r2 += -104
    2682:	18 01 00 00 00 00 00 00 00 00 00 00 00 00 00 00	r1 = 0 ll
    2684:	85 00 00 00 03 00 00 00	call 3

00000000000053e8 <LBB2_331>:
    2685:	07 08 00 00 01 00 00 00	r8 += 1
    2686:	bf 81 00 00 00 00 00 00	r1 = r8
    2687:	57 01 00 00 ff ff 00 00	r1 &= 65535
    2688:	37 01 00 00 ff 7f 00 00	r1 /= 32767
    2689:	0f 18 00 00 00 00 00 00	r8 += r1
    2690:	47 08 00 00 00 80 ff ff	r8 |= -32768
    2691:	bf 81 00 00 00 00 00 00	r1 = r8
    2692:	dc 01 00 00 10 00 00 00	r1 = be16 r1
    2693:	6b 1a b8 ff 00 00 00 00	*(u16 *)(r10 - 72) = r1
    2694:	6b 1a 90 ff 00 00 00 00	*(u16 *)(r10 - 112) = r1
    2695:	bf a2 00 00 00 00 00 00	r2 = r10
    2696:	07 02 00 00 98 ff ff ff	r2 += -104
    2697:	18 01 00 00 00 00 00 00 00 00 00 00 00 00 00 00	r1 = 0 ll
    2699:	85 00 00 00 01 00 00 00	call 1
    2700:	55 00 23 00 00 00 00 00	if r0 != 0 goto +35 <LBB2_335>
    2701:	85 00 00 00 76 00 00 00	call 118
    2702:	77 00 00 00 08 00 00 00	r0 >>= 8
    2703:	7b 0a 60 ff 00 00 00 00	*(u64 *)(r10 - 160) = r0
    2704:	7b 0a c0 ff 00 00 00 00	*(u64 *)(r10 - 64) = r0
    2705:	bf a2 00 00 00 00 00 00	r2 = r10
    2706:	07 02 00 00 98 ff ff ff	r2 += -104
    2707:	bf a3 00 00 00 00 00 00	r3 = r10
    2708:	07 03 00 00 c0 ff ff ff	r3 += -64
    2709:	18 01 00 00 00 00 00 00 00 00 00 00 00 00 00 00	r1 = 0 ll
    2711:	b7 04 00 00 01 00 00 00	r4 = 1
    2712:	85 00 00 00 02 00 00 00	call 2
    2713:	bf 07 00 00 00 00 00 00	r7 = r0
    2714:	bf 71 00 00 00 00 00 00	r1 = r7
    2715:	67 01 00 00 20 00 00 00	r1 <<= 32
    2716:	77 01 00 00 20 00 00 00	r1 >>= 32
    2717:	55 01 12 00 00 00 00 00	if r1 != 0 goto +18 <LBB2_335>
    2718:	bf a2 00 00 00 00 00 00	r2 = r10
    2719:	07 02 00 00 38 ff ff ff	r2 += -200
    2720:	bf a3 00 00 00 00 00 00	r3 = r10
    2721:	07 03 00 00 60 ff ff ff	r3 += -160
    2722:	18 01 00 00 00 00 00 00 00 00 00 00 00 00 00 00	r1 = 0 ll
    2724:	b7 04 00 00 01 00 00 00	r4 = 1
    2725:	85 00 00 00 02 00 00 00	call 2
    2726:	bf 07 00 00 00 00 00 00	r7 = r0
    2727:	bf 71 00 00 00 00 00 00	r1 = r7
    2728:	67 01 00 00 20 00 00 00	r1 <<= 32
    2729:	77 01 00 00 20 00 00 00	r1 >>= 32
    2730:	15 01 6f 14 00 00 00 00	if r1 == 0 goto +5231 <LBB2_728>
    2731:	bf a2 00 00 00 00 00 00	r2 = r10
    2732:	07 02 00 00 98 ff ff ff	r2 += -104
    2733:	18 01 00 00 00 00 00 00 00 00 00 00 00 00 00 00	r1 = 0 ll
    2735:	85 00 00 00 03 00 00 00	call 3

0000000000005580 <LBB2_335>:
    2736:	07 08 00 00 01 00 00 00	r8 += 1
    2737:	bf 81 00 00 00 00 00 00	r1 = r8
    2738:	57 01 00 00 ff ff 00 00	r1 &= 65535
    2739:	37 01 00 00 ff 7f 00 00	r1 /= 32767
    2740:	0f 18 00 00 00 00 00 00	r8 += r1
    2741:	47 08 00 00 00 80 ff ff	r8 |= -32768
    2742:	bf 81 00 00 00 00 00 00	r1 = r8
    2743:	dc 01 00 00 10 00 00 00	r1 = be16 r1
    2744:	6b 1a b8 ff 00 00 00 00	*(u16 *)(r10 - 72) = r1
    2745:	6b 1a 90 ff 00 00 00 00	*(u16 *)(r10 - 112) = r1
    2746:	bf a2 00 00 00 00 00 00	r2 = r10
    2747:	07 02 00 00 98 ff ff ff	r2 += -104
    2748:	18 01 00 00 00 00 00 00 00 00 00 00 00 00 00 00	r1 = 0 ll
    2750:	85 00 00 00 01 00 00 00	call 1
    2751:	55 00 23 00 00 00 00 00	if r0 != 0 goto +35 <LBB2_339>
    2752:	85 00 00 00 76 00 00 00	call 118
    2753:	77 00 00 00 08 00 00 00	r0 >>= 8
    2754:	7b 0a 60 ff 00 00 00 00	*(u64 *)(r10 - 160) = r0
    2755:	7b 0a c0 ff 00 00 00 00	*(u64 *)(r10 - 64) = r0
    2756:	bf a2 00 00 00 00 00 00	r2 = r10
    2757:	07 02 00 00 98 ff ff ff	r2 += -104
    2758:	bf a3 00 00 00 00 00 00	r3 = r10
    2759:	07 03 00 00 c0 ff ff ff	r3 += -64
    2760:	18 01 00 00 00 00 00 00 00 00 00 00 00 00 00 00	r1 = 0 ll
    2762:	b7 04 00 00 01 00 00 00	r4 = 1
    2763:	85 00 00 00 02 00 00 00	call 2
    2764:	bf 07 00 00 00 00 00 00	r7 = r0
    2765:	bf 71 00 00 00 00 00 00	r1 = r7
    2766:	67 01 00 00 20 00 00 00	r1 <<= 32
    2767:	77 01 00 00 20 00 00 00	r1 >>= 32
    2768:	55 01 12 00 00 00 00 00	if r1 != 0 goto +18 <LBB2_339>
    2769:	bf a2 00 00 00 00 00 00	r2 = r10
    2770:	07 02 00 00 38 ff ff ff	r2 += -200
    2771:	bf a3 00 00 00 00 00 00	r3 = r10
    2772:	07 03 00 00 60 ff ff ff	r3 += -160
    2773:	18 01 00 00 00 00 00 00 00 00 00 00 00 00 00 00	r1 = 0 ll
    2775:	b7 04 00 00 01 00 00 00	r4 = 1
    2776:	85 00 00 00 02 00 00 00	call 2
    2777:	bf 07 00 00 00 00 00 00	r7 = r0
    2778:	bf 71 00 00 00 00 00 00	r1 = r7
    2779:	67 01 00 00 20 00 00 00	r1 <<= 32
    2780:	77 01 00 00 20 00 00 00	r1 >>= 32
    2781:	15 01 3c 14 00 00 00 00	if r1 == 0 goto +5180 <LBB2_728>
    2782:	bf a2 00 00 00 00 00 00	r2 = r10
    2783:	07 02 00 00 98 ff ff ff	r2 += -104
    2784:	18 01 00 00 00 00 00 00 00 00 00 00 00 00 00 00	r1 = 0 ll
    2786:	85 00 00 00 03 00 00 00	call 3

0000000000005718 <LBB2_339>:
    2787:	07 08 00 00 01 00 00 00	r8 += 1
    2788:	bf 81 00 00 00 00 00 00	r1 = r8
    2789:	57 01 00 00 ff ff 00 00	r1 &= 65535
    2790:	37 01 00 00 ff 7f 00 00	r1 /= 32767
    2791:	0f 18 00 00 00 00 00 00	r8 += r1
    2792:	47 08 00 00 00 80 ff ff	r8 |= -32768
    2793:	bf 81 00 00 00 00 00 00	r1 = r8
    2794:	dc 01 00 00 10 00 00 00	r1 = be16 r1
    2795:	6b 1a b8 ff 00 00 00 00	*(u16 *)(r10 - 72) = r1
    2796:	6b 1a 90 ff 00 00 00 00	*(u16 *)(r10 - 112) = r1
    2797:	bf a2 00 00 00 00 00 00	r2 = r10
    2798:	07 02 00 00 98 ff ff ff	r2 += -104
    2799:	18 01 00 00 00 00 00 00 00 00 00 00 00 00 00 00	r1 = 0 ll
    2801:	85 00 00 00 01 00 00 00	call 1
    2802:	55 00 23 00 00 00 00 00	if r0 != 0 goto +35 <LBB2_343>
    2803:	85 00 00 00 76 00 00 00	call 118
    2804:	77 00 00 00 08 00 00 00	r0 >>= 8
    2805:	7b 0a 60 ff 00 00 00 00	*(u64 *)(r10 - 160) = r0
    2806:	7b 0a c0 ff 00 00 00 00	*(u64 *)(r10 - 64) = r0
    2807:	bf a2 00 00 00 00 00 00	r2 = r10
    2808:	07 02 00 00 98 ff ff ff	r2 += -104
    2809:	bf a3 00 00 00 00 00 00	r3 = r10
    2810:	07 03 00 00 c0 ff ff ff	r3 += -64
    2811:	18 01 00 00 00 00 00 00 00 00 00 00 00 00 00 00	r1 = 0 ll
    2813:	b7 04 00 00 01 00 00 00	r4 = 1
    2814:	85 00 00 00 02 00 00 00	call 2
    2815:	bf 07 00 00 00 00 00 00	r7 = r0
    2816:	bf 71 00 00 00 00 00 00	r1 = r7
    2817:	67 01 00 00 20 00 00 00	r1 <<= 32
    2818:	77 01 00 00 20 00 00 00	r1 >>= 32
    2819:	55 01 12 00 00 00 00 00	if r1 != 0 goto +18 <LBB2_343>
    2820:	bf a2 00 00 00 00 00 00	r2 = r10
    2821:	07 02 00 00 38 ff ff ff	r2 += -200
    2822:	bf a3 00 00 00 00 00 00	r3 = r10
    2823:	07 03 00 00 60 ff ff ff	r3 += -160
    2824:	18 01 00 00 00 00 00 00 00 00 00 00 00 00 00 00	r1 = 0 ll
    2826:	b7 04 00 00 01 00 00 00	r4 = 1
    2827:	85 00 00 00 02 00 00 00	call 2
    2828:	bf 07 00 00 00 00 00 00	r7 = r0
    2829:	bf 71 00 00 00 00 00 00	r1 = r7
    2830:	67 01 00 00 20 00 00 00	r1 <<= 32
    2831:	77 01 00 00 20 00 00 00	r1 >>= 32
    2832:	15 01 09 14 00 00 00 00	if r1 == 0 goto +5129 <LBB2_728>
    2833:	bf a2 00 00 00 00 00 00	r2 = r10
    2834:	07 02 00 00 98 ff ff ff	r2 += -104
    2835:	18 01 00 00 00 00 00 00 00 00 00 00 00 00 00 00	r1 = 0 ll
    2837:	85 00 00 00 03 00 00 00	call 3

00000000000058b0 <LBB2_343>:
    2838:	07 08 00 00 01 00 00 00	r8 += 1
    2839:	bf 81 00 00 00 00 00 00	r1 = r8
    2840:	57 01 00 00 ff ff 00 00	r1 &= 65535
    2841:	37 01 00 00 ff 7f 00 00	r1 /= 32767
    2842:	0f 18 00 00 00 00 00 00	r8 += r1
    2843:	47 08 00 00 00 80 ff ff	r8 |= -32768
    2844:	bf 81 00 00 00 00 00 00	r1 = r8
    2845:	dc 01 00 00 10 00 00 00	r1 = be16 r1
    2846:	6b 1a b8 ff 00 00 00 00	*(u16 *)(r10 - 72) = r1
    2847:	6b 1a 90 ff 00 00 00 00	*(u16 *)(r10 - 112) = r1
    2848:	bf a2 00 00 00 00 00 00	r2 = r10
    2849:	07 02 00 00 98 ff ff ff	r2 += -104
    2850:	18 01 00 00 00 00 00 00 00 00 00 00 00 00 00 00	r1 = 0 ll
    2852:	85 00 00 00 01 00 00 00	call 1
    2853:	55 00 23 00 00 00 00 00	if r0 != 0 goto +35 <LBB2_347>
    2854:	85 00 00 00 76 00 00 00	call 118
    2855:	77 00 00 00 08 00 00 00	r0 >>= 8
    2856:	7b 0a 60 ff 00 00 00 00	*(u64 *)(r10 - 160) = r0
    2857:	7b 0a c0 ff 00 00 00 00	*(u64 *)(r10 - 64) = r0
    2858:	bf a2 00 00 00 00 00 00	r2 = r10
    2859:	07 02 00 00 98 ff ff ff	r2 += -104
    2860:	bf a3 00 00 00 00 00 00	r3 = r10
    2861:	07 03 00 00 c0 ff ff ff	r3 += -64
    2862:	18 01 00 00 00 00 00 00 00 00 00 00 00 00 00 00	r1 = 0 ll
    2864:	b7 04 00 00 01 00 00 00	r4 = 1
    2865:	85 00 00 00 02 00 00 00	call 2
    2866:	bf 07 00 00 00 00 00 00	r7 = r0
    2867:	bf 71 00 00 00 00 00 00	r1 = r7
    2868:	67 01 00 00 20 00 00 00	r1 <<= 32
    2869:	77 01 00 00 20 00 00 00	r1 >>= 32
    2870:	55 01 12 00 00 00 00 00	if r1 != 0 goto +18 <LBB2_347>
    2871:	bf a2 00 00 00 00 00 00	r2 = r10
    2872:	07 02 00 00 38 ff ff ff	r2 += -200
    2873:	bf a3 00 00 00 00 00 00	r3 = r10
    2874:	07 03 00 00 60 ff ff ff	r3 += -160
    2875:	18 01 00 00 00 00 00 00 00 00 00 00 00 00 00 00	r1 = 0 ll
    2877:	b7 04 00 00 01 00 00 00	r4 = 1
    2878:	85 00 00 00 02 00 00 00	call 2
    2879:	bf 07 00 00 00 00 00 00	r7 = r0
    2880:	bf 71 00 00 00 00 00 00	r1 = r7
    2881:	67 01 00 00 20 00 00 00	r1 <<= 32
    2882:	77 01 00 00 20 00 00 00	r1 >>= 32
    2883:	15 01 d6 13 00 00 00 00	if r1 == 0 goto +5078 <LBB2_728>
    2884:	bf a2 00 00 00 00 00 00	r2 = r10
    2885:	07 02 00 00 98 ff ff ff	r2 += -104
    2886:	18 01 00 00 00 00 00 00 00 00 00 00 00 00 00 00	r1 = 0 ll
    2888:	85 00 00 00 03 00 00 00	call 3

0000000000005a48 <LBB2_347>:
    2889:	07 08 00 00 01 00 00 00	r8 += 1
    2890:	bf 81 00 00 00 00 00 00	r1 = r8
    2891:	57 01 00 00 ff ff 00 00	r1 &= 65535
    2892:	37 01 00 00 ff 7f 00 00	r1 /= 32767
    2893:	0f 18 00 00 00 00 00 00	r8 += r1
    2894:	47 08 00 00 00 80 ff ff	r8 |= -32768
    2895:	bf 81 00 00 00 00 00 00	r1 = r8
    2896:	dc 01 00 00 10 00 00 00	r1 = be16 r1
    2897:	6b 1a b8 ff 00 00 00 00	*(u16 *)(r10 - 72) = r1
    2898:	6b 1a 90 ff 00 00 00 00	*(u16 *)(r10 - 112) = r1
    2899:	bf a2 00 00 00 00 00 00	r2 = r10
    2900:	07 02 00 00 98 ff ff ff	r2 += -104
    2901:	18 01 00 00 00 00 00 00 00 00 00 00 00 00 00 00	r1 = 0 ll
    2903:	85 00 00 00 01 00 00 00	call 1
    2904:	55 00 23 00 00 00 00 00	if r0 != 0 goto +35 <LBB2_351>
    2905:	85 00 00 00 76 00 00 00	call 118
    2906:	77 00 00 00 08 00 00 00	r0 >>= 8
    2907:	7b 0a 60 ff 00 00 00 00	*(u64 *)(r10 - 160) = r0
    2908:	7b 0a c0 ff 00 00 00 00	*(u64 *)(r10 - 64) = r0
    2909:	bf a2 00 00 00 00 00 00	r2 = r10
    2910:	07 02 00 00 98 ff ff ff	r2 += -104
    2911:	bf a3 00 00 00 00 00 00	r3 = r10
    2912:	07 03 00 00 c0 ff ff ff	r3 += -64
    2913:	18 01 00 00 00 00 00 00 00 00 00 00 00 00 00 00	r1 = 0 ll
    2915:	b7 04 00 00 01 00 00 00	r4 = 1
    2916:	85 00 00 00 02 00 00 00	call 2
    2917:	bf 07 00 00 00 00 00 00	r7 = r0
    2918:	bf 71 00 00 00 00 00 00	r1 = r7
    2919:	67 01 00 00 20 00 00 00	r1 <<= 32
    2920:	77 01 00 00 20 00 00 00	r1 >>= 32
    2921:	55 01 12 00 00 00 00 00	if r1 != 0 goto +18 <LBB2_351>
    2922:	bf a2 00 00 00 00 00 00	r2 = r10
    2923:	07 02 00 00 38 ff ff ff	r2 += -200
    2924:	bf a3 00 00 00 00 00 00	r3 = r10
    2925:	07 03 00 00 60 ff ff ff	r3 += -160
    2926:	18 01 00 00 00 00 00 00 00 00 00 00 00 00 00 00	r1 = 0 ll
    2928:	b7 04 00 00 01 00 00 00	r4 = 1
    2929:	85 00 00 00 02 00 00 00	call 2
    2930:	bf 07 00 00 00 00 00 00	r7 = r0
    2931:	bf 71 00 00 00 00 00 00	r1 = r7
    2932:	67 01 00 00 20 00 00 00	r1 <<= 32
    2933:	77 01 00 00 20 00 00 00	r1 >>= 32
    2934:	15 01 a3 13 00 00 00 00	if r1 == 0 goto +5027 <LBB2_728>
    2935:	bf a2 00 00 00 00 00 00	r2 = r10
    2936:	07 02 00 00 98 ff ff ff	r2 += -104
    2937:	18 01 00 00 00 00 00 00 00 00 00 00 00 00 00 00	r1 = 0 ll
    2939:	85 00 00 00 03 00 00 00	call 3

0000000000005be0 <LBB2_351>:
    2940:	07 08 00 00 01 00 00 00	r8 += 1
    2941:	bf 81 00 00 00 00 00 00	r1 = r8
    2942:	57 01 00 00 ff ff 00 00	r1 &= 65535
    2943:	37 01 00 00 ff 7f 00 00	r1 /= 32767
    2944:	0f 18 00 00 00 00 00 00	r8 += r1
    2945:	47 08 00 00 00 80 ff ff	r8 |= -32768
    2946:	bf 81 00 00 00 00 00 00	r1 = r8
    2947:	dc 01 00 00 10 00 00 00	r1 = be16 r1
    2948:	6b 1a b8 ff 00 00 00 00	*(u16 *)(r10 - 72) = r1
    2949:	6b 1a 90 ff 00 00 00 00	*(u16 *)(r10 - 112) = r1
    2950:	bf a2 00 00 00 00 00 00	r2 = r10
    2951:	07 02 00 00 98 ff ff ff	r2 += -104
    2952:	18 01 00 00 00 00 00 00 00 00 00 00 00 00 00 00	r1 = 0 ll
    2954:	85 00 00 00 01 00 00 00	call 1
    2955:	55 00 23 00 00 00 00 00	if r0 != 0 goto +35 <LBB2_355>
    2956:	85 00 00 00 76 00 00 00	call 118
    2957:	77 00 00 00 08 00 00 00	r0 >>= 8
    2958:	7b 0a 60 ff 00 00 00 00	*(u64 *)(r10 - 160) = r0
    2959:	7b 0a c0 ff 00 00 00 00	*(u64 *)(r10 - 64) = r0
    2960:	bf a2 00 00 00 00 00 00	r2 = r10
    2961:	07 02 00 00 98 ff ff ff	r2 += -104
    2962:	bf a3 00 00 00 00 00 00	r3 = r10
    2963:	07 03 00 00 c0 ff ff ff	r3 += -64
    2964:	18 01 00 00 00 00 00 00 00 00 00 00 00 00 00 00	r1 = 0 ll
    2966:	b7 04 00 00 01 00 00 00	r4 = 1
    2967:	85 00 00 00 02 00 00 00	call 2
    2968:	bf 07 00 00 00 00 00 00	r7 = r0
    2969:	bf 71 00 00 00 00 00 00	r1 = r7
    2970:	67 01 00 00 20 00 00 00	r1 <<= 32
    2971:	77 01 00 00 20 00 00 00	r1 >>= 32
    2972:	55 01 12 00 00 00 00 00	if r1 != 0 goto +18 <LBB2_355>
    2973:	bf a2 00 00 00 00 00 00	r2 = r10
    2974:	07 02 00 00 38 ff ff ff	r2 += -200
    2975:	bf a3 00 00 00 00 00 00	r3 = r10
    2976:	07 03 00 00 60 ff ff ff	r3 += -160
    2977:	18 01 00 00 00 00 00 00 00 00 00 00 00 00 00 00	r1 = 0 ll
    2979:	b7 04 00 00 01 00 00 00	r4 = 1
    2980:	85 00 00 00 02 00 00 00	call 2
    2981:	bf 07 00 00 00 00 00 00	r7 = r0
    2982:	bf 71 00 00 00 00 00 00	r1 = r7
    2983:	67 01 00 00 20 00 00 00	r1 <<= 32
    2984:	77 01 00 00 20 00 00 00	r1 >>= 32
    2985:	15 01 70 13 00 00 00 00	if r1 == 0 goto +4976 <LBB2_728>
    2986:	bf a2 00 00 00 00 00 00	r2 = r10
    2987:	07 02 00 00 98 ff ff ff	r2 += -104
    2988:	18 01 00 00 00 00 00 00 00 00 00 00 00 00 00 00	r1 = 0 ll
    2990:	85 00 00 00 03 00 00 00	call 3

0000000000005d78 <LBB2_355>:
    2991:	07 08 00 00 01 00 00 00	r8 += 1
    2992:	bf 81 00 00 00 00 00 00	r1 = r8
    2993:	57 01 00 00 ff ff 00 00	r1 &= 65535
    2994:	37 01 00 00 ff 7f 00 00	r1 /= 32767
    2995:	0f 18 00 00 00 00 00 00	r8 += r1
    2996:	47 08 00 00 00 80 ff ff	r8 |= -32768
    2997:	bf 81 00 00 00 00 00 00	r1 = r8
    2998:	dc 01 00 00 10 00 00 00	r1 = be16 r1
    2999:	6b 1a b8 ff 00 00 00 00	*(u16 *)(r10 - 72) = r1
    3000:	6b 1a 90 ff 00 00 00 00	*(u16 *)(r10 - 112) = r1
    3001:	bf a2 00 00 00 00 00 00	r2 = r10
    3002:	07 02 00 00 98 ff ff ff	r2 += -104
    3003:	18 01 00 00 00 00 00 00 00 00 00 00 00 00 00 00	r1 = 0 ll
    3005:	85 00 00 00 01 00 00 00	call 1
    3006:	55 00 23 00 00 00 00 00	if r0 != 0 goto +35 <LBB2_359>
    3007:	85 00 00 00 76 00 00 00	call 118
    3008:	77 00 00 00 08 00 00 00	r0 >>= 8
    3009:	7b 0a 60 ff 00 00 00 00	*(u64 *)(r10 - 160) = r0
    3010:	7b 0a c0 ff 00 00 00 00	*(u64 *)(r10 - 64) = r0
    3011:	bf a2 00 00 00 00 00 00	r2 = r10
    3012:	07 02 00 00 98 ff ff ff	r2 += -104
    3013:	bf a3 00 00 00 00 00 00	r3 = r10
    3014:	07 03 00 00 c0 ff ff ff	r3 += -64
    3015:	18 01 00 00 00 00 00 00 00 00 00 00 00 00 00 00	r1 = 0 ll
    3017:	b7 04 00 00 01 00 00 00	r4 = 1
    3018:	85 00 00 00 02 00 00 00	call 2
    3019:	bf 07 00 00 00 00 00 00	r7 = r0
    3020:	bf 71 00 00 00 00 00 00	r1 = r7
    3021:	67 01 00 00 20 00 00 00	r1 <<= 32
    3022:	77 01 00 00 20 00 00 00	r1 >>= 32
    3023:	55 01 12 00 00 00 00 00	if r1 != 0 goto +18 <LBB2_359>
    3024:	bf a2 00 00 00 00 00 00	r2 = r10
    3025:	07 02 00 00 38 ff ff ff	r2 += -200
    3026:	bf a3 00 00 00 00 00 00	r3 = r10
    3027:	07 03 00 00 60 ff ff ff	r3 += -160
    3028:	18 01 00 00 00 00 00 00 00 00 00 00 00 00 00 00	r1 = 0 ll
    3030:	b7 04 00 00 01 00 00 00	r4 = 1
    3031:	85 00 00 00 02 00 00 00	call 2
    3032:	bf 07 00 00 00 00 00 00	r7 = r0
    3033:	bf 71 00 00 00 00 00 00	r1 = r7
    3034:	67 01 00 00 20 00 00 00	r1 <<= 32
    3035:	77 01 00 00 20 00 00 00	r1 >>= 32
    3036:	15 01 3d 13 00 00 00 00	if r1 == 0 goto +4925 <LBB2_728>
    3037:	bf a2 00 00 00 00 00 00	r2 = r10
    3038:	07 02 00 00 98 ff ff ff	r2 += -104
    3039:	18 01 00 00 00 00 00 00 00 00 00 00 00 00 00 00	r1 = 0 ll
    3041:	85 00 00 00 03 00 00 00	call 3

0000000000005f10 <LBB2_359>:
    3042:	07 08 00 00 01 00 00 00	r8 += 1
    3043:	bf 81 00 00 00 00 00 00	r1 = r8
    3044:	57 01 00 00 ff ff 00 00	r1 &= 65535
    3045:	37 01 00 00 ff 7f 00 00	r1 /= 32767
    3046:	0f 18 00 00 00 00 00 00	r8 += r1
    3047:	47 08 00 00 00 80 ff ff	r8 |= -32768
    3048:	bf 81 00 00 00 00 00 00	r1 = r8
    3049:	dc 01 00 00 10 00 00 00	r1 = be16 r1
    3050:	6b 1a b8 ff 00 00 00 00	*(u16 *)(r10 - 72) = r1
    3051:	6b 1a 90 ff 00 00 00 00	*(u16 *)(r10 - 112) = r1
    3052:	bf a2 00 00 00 00 00 00	r2 = r10
    3053:	07 02 00 00 98 ff ff ff	r2 += -104
    3054:	18 01 00 00 00 00 00 00 00 00 00 00 00 00 00 00	r1 = 0 ll
    3056:	85 00 00 00 01 00 00 00	call 1
    3057:	55 00 23 00 00 00 00 00	if r0 != 0 goto +35 <LBB2_363>
    3058:	85 00 00 00 76 00 00 00	call 118
    3059:	77 00 00 00 08 00 00 00	r0 >>= 8
    3060:	7b 0a 60 ff 00 00 00 00	*(u64 *)(r10 - 160) = r0
    3061:	7b 0a c0 ff 00 00 00 00	*(u64 *)(r10 - 64) = r0
    3062:	bf a2 00 00 00 00 00 00	r2 = r10
    3063:	07 02 00 00 98 ff ff ff	r2 += -104
    3064:	bf a3 00 00 00 00 00 00	r3 = r10
    3065:	07 03 00 00 c0 ff ff ff	r3 += -64
    3066:	18 01 00 00 00 00 00 00 00 00 00 00 00 00 00 00	r1 = 0 ll
    3068:	b7 04 00 00 01 00 00 00	r4 = 1
    3069:	85 00 00 00 02 00 00 00	call 2
    3070:	bf 07 00 00 00 00 00 00	r7 = r0
    3071:	bf 71 00 00 00 00 00 00	r1 = r7
    3072:	67 01 00 00 20 00 00 00	r1 <<= 32
    3073:	77 01 00 00 20 00 00 00	r1 >>= 32
    3074:	55 01 12 00 00 00 00 00	if r1 != 0 goto +18 <LBB2_363>
    3075:	bf a2 00 00 00 00 00 00	r2 = r10
    3076:	07 02 00 00 38 ff ff ff	r2 += -200
    3077:	bf a3 00 00 00 00 00 00	r3 = r10
    3078:	07 03 00 00 60 ff ff ff	r3 += -160
    3079:	18 01 00 00 00 00 00 00 00 00 00 00 00 00 00 00	r1 = 0 ll
    3081:	b7 04 00 00 01 00 00 00	r4 = 1
    3082:	85 00 00 00 02 00 00 00	call 2
    3083:	bf 07 00 00 00 00 00 00	r7 = r0
    3084:	bf 71 00 00 00 00 00 00	r1 = r7
    3085:	67 01 00 00 20 00 00 00	r1 <<= 32
    3086:	77 01 00 00 20 00 00 00	r1 >>= 32
    3087:	15 01 0a 13 00 00 00 00	if r1 == 0 goto +4874 <LBB2_728>
    3088:	bf a2 00 00 00 00 00 00	r2 = r10
    3089:	07 02 00 00 98 ff ff ff	r2 += -104
    3090:	18 01 00 00 00 00 00 00 00 00 00 00 00 00 00 00	r1 = 0 ll
    3092:	85 00 00 00 03 00 00 00	call 3

00000000000060a8 <LBB2_363>:
    3093:	07 08 00 00 01 00 00 00	r8 += 1
    3094:	bf 81 00 00 00 00 00 00	r1 = r8
    3095:	57 01 00 00 ff ff 00 00	r1 &= 65535
    3096:	37 01 00 00 ff 7f 00 00	r1 /= 32767
    3097:	0f 18 00 00 00 00 00 00	r8 += r1
    3098:	47 08 00 00 00 80 ff ff	r8 |= -32768
    3099:	bf 81 00 00 00 00 00 00	r1 = r8
    3100:	dc 01 00 00 10 00 00 00	r1 = be16 r1
    3101:	6b 1a b8 ff 00 00 00 00	*(u16 *)(r10 - 72) = r1
    3102:	6b 1a 90 ff 00 00 00 00	*(u16 *)(r10 - 112) = r1
    3103:	bf a2 00 00 00 00 00 00	r2 = r10
    3104:	07 02 00 00 98 ff ff ff	r2 += -104
    3105:	18 01 00 00 00 00 00 00 00 00 00 00 00 00 00 00	r1 = 0 ll
    3107:	85 00 00 00 01 00 00 00	call 1
    3108:	55 00 23 00 00 00 00 00	if r0 != 0 goto +35 <LBB2_367>
    3109:	85 00 00 00 76 00 00 00	call 118
    3110:	77 00 00 00 08 00 00 00	r0 >>= 8
    3111:	7b 0a 60 ff 00 00 00 00	*(u64 *)(r10 - 160) = r0
    3112:	7b 0a c0 ff 00 00 00 00	*(u64 *)(r10 - 64) = r0
    3113:	bf a2 00 00 00 00 00 00	r2 = r10
    3114:	07 02 00 00 98 ff ff ff	r2 += -104
    3115:	bf a3 00 00 00 00 00 00	r3 = r10
    3116:	07 03 00 00 c0 ff ff ff	r3 += -64
    3117:	18 01 00 00 00 00 00 00 00 00 00 00 00 00 00 00	r1 = 0 ll
    3119:	b7 04 00 00 01 00 00 00	r4 = 1
    3120:	85 00 00 00 02 00 00 00	call 2
    3121:	bf 07 00 00 00 00 00 00	r7 = r0
    3122:	bf 71 00 00 00 00 00 00	r1 = r7
    3123:	67 01 00 00 20 00 00 00	r1 <<= 32
    3124:	77 01 00 00 20 00 00 00	r1 >>= 32
    3125:	55 01 12 00 00 00 00 00	if r1 != 0 goto +18 <LBB2_367>
    3126:	bf a2 00 00 00 00 00 00	r2 = r10
    3127:	07 02 00 00 38 ff ff ff	r2 += -200
    3128:	bf a3 00 00 00 00 00 00	r3 = r10
    3129:	07 03 00 00 60 ff ff ff	r3 += -160
    3130:	18 01 00 00 00 00 00 00 00 00 00 00 00 00 00 00	r1 = 0 ll
    3132:	b7 04 00 00 01 00 00 00	r4 = 1
    3133:	85 00 00 00 02 00 00 00	call 2
    3134:	bf 07 00 00 00 00 00 00	r7 = r0
    3135:	bf 71 00 00 00 00 00 00	r1 = r7
    3136:	67 01 00 00 20 00 00 00	r1 <<= 32
    3137:	77 01 00 00 20 00 00 00	r1 >>= 32
    3138:	15 01 d7 12 00 00 00 00	if r1 == 0 goto +4823 <LBB2_728>
    3139:	bf a2 00 00 00 00 00 00	r2 = r10
    3140:	07 02 00 00 98 ff ff ff	r2 += -104
    3141:	18 01 00 00 00 00 00 00 00 00 00 00 00 00 00 00	r1 = 0 ll
    3143:	85 00 00 00 03 00 00 00	call 3

0000000000006240 <LBB2_367>:
    3144:	07 08 00 00 01 00 00 00	r8 += 1
    3145:	bf 81 00 00 00 00 00 00	r1 = r8
    3146:	57 01 00 00 ff ff 00 00	r1 &= 65535
    3147:	37 01 00 00 ff 7f 00 00	r1 /= 32767
    3148:	0f 18 00 00 00 00 00 00	r8 += r1
    3149:	47 08 00 00 00 80 ff ff	r8 |= -32768
    3150:	bf 81 00 00 00 00 00 00	r1 = r8
    3151:	dc 01 00 00 10 00 00 00	r1 = be16 r1
    3152:	6b 1a b8 ff 00 00 00 00	*(u16 *)(r10 - 72) = r1
    3153:	6b 1a 90 ff 00 00 00 00	*(u16 *)(r10 - 112) = r1
    3154:	bf a2 00 00 00 00 00 00	r2 = r10
    3155:	07 02 00 00 98 ff ff ff	r2 += -104
    3156:	18 01 00 00 00 00 00 00 00 00 00 00 00 00 00 00	r1 = 0 ll
    3158:	85 00 00 00 01 00 00 00	call 1
    3159:	55 00 23 00 00 00 00 00	if r0 != 0 goto +35 <LBB2_371>
    3160:	85 00 00 00 76 00 00 00	call 118
    3161:	77 00 00 00 08 00 00 00	r0 >>= 8
    3162:	7b 0a 60 ff 00 00 00 00	*(u64 *)(r10 - 160) = r0
    3163:	7b 0a c0 ff 00 00 00 00	*(u64 *)(r10 - 64) = r0
    3164:	bf a2 00 00 00 00 00 00	r2 = r10
    3165:	07 02 00 00 98 ff ff ff	r2 += -104
    3166:	bf a3 00 00 00 00 00 00	r3 = r10
    3167:	07 03 00 00 c0 ff ff ff	r3 += -64
    3168:	18 01 00 00 00 00 00 00 00 00 00 00 00 00 00 00	r1 = 0 ll
    3170:	b7 04 00 00 01 00 00 00	r4 = 1
    3171:	85 00 00 00 02 00 00 00	call 2
    3172:	bf 07 00 00 00 00 00 00	r7 = r0
    3173:	bf 71 00 00 00 00 00 00	r1 = r7
    3174:	67 01 00 00 20 00 00 00	r1 <<= 32
    3175:	77 01 00 00 20 00 00 00	r1 >>= 32
    3176:	55 01 12 00 00 00 00 00	if r1 != 0 goto +18 <LBB2_371>
    3177:	bf a2 00 00 00 00 00 00	r2 = r10
    3178:	07 02 00 00 38 ff ff ff	r2 += -200
    3179:	bf a3 00 00 00 00 00 00	r3 = r10
    3180:	07 03 00 00 60 ff ff ff	r3 += -160
    3181:	18 01 00 00 00 00 00 00 00 00 00 00 00 00 00 00	r1 = 0 ll
    3183:	b7 04 00 00 01 00 00 00	r4 = 1
    3184:	85 00 00 00 02 00 00 00	call 2
    3185:	bf 07 00 00 00 00 00 00	r7 = r0
    3186:	bf 71 00 00 00 00 00 00	r1 = r7
    3187:	67 01 00 00 20 00 00 00	r1 <<= 32
    3188:	77 01 00 00 20 00 00 00	r1 >>= 32
    3189:	15 01 a4 12 00 00 00 00	if r1 == 0 goto +4772 <LBB2_728>
    3190:	bf a2 00 00 00 00 00 00	r2 = r10
    3191:	07 02 00 00 98 ff ff ff	r2 += -104
    3192:	18 01 00 00 00 00 00 00 00 00 00 00 00 00 00 00	r1 = 0 ll
    3194:	85 00 00 00 03 00 00 00	call 3

00000000000063d8 <LBB2_371>:
    3195:	07 08 00 00 01 00 00 00	r8 += 1
    3196:	bf 81 00 00 00 00 00 00	r1 = r8
    3197:	57 01 00 00 ff ff 00 00	r1 &= 65535
    3198:	37 01 00 00 ff 7f 00 00	r1 /= 32767
    3199:	0f 18 00 00 00 00 00 00	r8 += r1
    3200:	47 08 00 00 00 80 ff ff	r8 |= -32768
    3201:	bf 81 00 00 00 00 00 00	r1 = r8
    3202:	dc 01 00 00 10 00 00 00	r1 = be16 r1
    3203:	6b 1a b8 ff 00 00 00 00	*(u16 *)(r10 - 72) = r1
    3204:	6b 1a 90 ff 00 00 00 00	*(u16 *)(r10 - 112) = r1
    3205:	bf a2 00 00 00 00 00 00	r2 = r10
    3206:	07 02 00 00 98 ff ff ff	r2 += -104
    3207:	18 01 00 00 00 00 00 00 00 00 00 00 00 00 00 00	r1 = 0 ll
    3209:	85 00 00 00 01 00 00 00	call 1
    3210:	55 00 23 00 00 00 00 00	if r0 != 0 goto +35 <LBB2_375>
    3211:	85 00 00 00 76 00 00 00	call 118
    3212:	77 00 00 00 08 00 00 00	r0 >>= 8
    3213:	7b 0a 60 ff 00 00 00 00	*(u64 *)(r10 - 160) = r0
    3214:	7b 0a c0 ff 00 00 00 00	*(u64 *)(r10 - 64) = r0
    3215:	bf a2 00 00 00 00 00 00	r2 = r10
    3216:	07 02 00 00 98 ff ff ff	r2 += -104
    3217:	bf a3 00 00 00 00 00 00	r3 = r10
    3218:	07 03 00 00 c0 ff ff ff	r3 += -64
    3219:	18 01 00 00 00 00 00 00 00 00 00 00 00 00 00 00	r1 = 0 ll
    3221:	b7 04 00 00 01 00 00 00	r4 = 1
    3222:	85 00 00 00 02 00 00 00	call 2
    3223:	bf 07 00 00 00 00 00 00	r7 = r0
    3224:	bf 71 00 00 00 00 00 00	r1 = r7
    3225:	67 01 00 00 20 00 00 00	r1 <<= 32
    3226:	77 01 00 00 20 00 00 00	r1 >>= 32
    3227:	55 01 12 00 00 00 00 00	if r1 != 0 goto +18 <LBB2_375>
    3228:	bf a2 00 00 00 00 00 00	r2 = r10
    3229:	07 02 00 00 38 ff ff ff	r2 += -200
    3230:	bf a3 00 00 00 00 00 00	r3 = r10
    3231:	07 03 00 00 60 ff ff ff	r3 += -160
    3232:	18 01 00 00 00 00 00 00 00 00 00 00 00 00 00 00	r1 = 0 ll
    3234:	b7 04 00 00 01 00 00 00	r4 = 1
    3235:	85 00 00 00 02 00 00 00	call 2
    3236:	bf 07 00 00 00 00 00 00	r7 = r0
    3237:	bf 71 00 00 00 00 00 00	r1 = r7
    3238:	67 01 00 00 20 00 00 00	r1 <<= 32
    3239:	77 01 00 00 20 00 00 00	r1 >>= 32
    3240:	15 01 71 12 00 00 00 00	if r1 == 0 goto +4721 <LBB2_728>
    3241:	bf a2 00 00 00 00 00 00	r2 = r10
    3242:	07 02 00 00 98 ff ff ff	r2 += -104
    3243:	18 01 00 00 00 00 00 00 00 00 00 00 00 00 00 00	r1 = 0 ll
    3245:	85 00 00 00 03 00 00 00	call 3

0000000000006570 <LBB2_375>:
    3246:	07 08 00 00 01 00 00 00	r8 += 1
    3247:	bf 81 00 00 00 00 00 00	r1 = r8
    3248:	57 01 00 00 ff ff 00 00	r1 &= 65535
    3249:	37 01 00 00 ff 7f 00 00	r1 /= 32767
    3250:	0f 18 00 00 00 00 00 00	r8 += r1
    3251:	47 08 00 00 00 80 ff ff	r8 |= -32768
    3252:	bf 81 00 00 00 00 00 00	r1 = r8
    3253:	dc 01 00 00 10 00 00 00	r1 = be16 r1
    3254:	6b 1a b8 ff 00 00 00 00	*(u16 *)(r10 - 72) = r1
    3255:	6b 1a 90 ff 00 00 00 00	*(u16 *)(r10 - 112) = r1
    3256:	bf a2 00 00 00 00 00 00	r2 = r10
    3257:	07 02 00 00 98 ff ff ff	r2 += -104
    3258:	18 01 00 00 00 00 00 00 00 00 00 00 00 00 00 00	r1 = 0 ll
    3260:	85 00 00 00 01 00 00 00	call 1
    3261:	55 00 23 00 00 00 00 00	if r0 != 0 goto +35 <LBB2_379>
    3262:	85 00 00 00 76 00 00 00	call 118
    3263:	77 00 00 00 08 00 00 00	r0 >>= 8
    3264:	7b 0a 60 ff 00 00 00 00	*(u64 *)(r10 - 160) = r0
    3265:	7b 0a c0 ff 00 00 00 00	*(u64 *)(r10 - 64) = r0
    3266:	bf a2 00 00 00 00 00 00	r2 = r10
    3267:	07 02 00 00 98 ff ff ff	r2 += -104
    3268:	bf a3 00 00 00 00 00 00	r3 = r10
    3269:	07 03 00 00 c0 ff ff ff	r3 += -64
    3270:	18 01 00 00 00 00 00 00 00 00 00 00 00 00 00 00	r1 = 0 ll
    3272:	b7 04 00 00 01 00 00 00	r4 = 1
    3273:	85 00 00 00 02 00 00 00	call 2
    3274:	bf 07 00 00 00 00 00 00	r7 = r0
    3275:	bf 71 00 00 00 00 00 00	r1 = r7
    3276:	67 01 00 00 20 00 00 00	r1 <<= 32
    3277:	77 01 00 00 20 00 00 00	r1 >>= 32
    3278:	55 01 12 00 00 00 00 00	if r1 != 0 goto +18 <LBB2_379>
    3279:	bf a2 00 00 00 00 00 00	r2 = r10
    3280:	07 02 00 00 38 ff ff ff	r2 += -200
    3281:	bf a3 00 00 00 00 00 00	r3 = r10
    3282:	07 03 00 00 60 ff ff ff	r3 += -160
    3283:	18 01 00 00 00 00 00 00 00 00 00 00 00 00 00 00	r1 = 0 ll
    3285:	b7 04 00 00 01 00 00 00	r4 = 1
    3286:	85 00 00 00 02 00 00 00	call 2
    3287:	bf 07 00 00 00 00 00 00	r7 = r0
    3288:	bf 71 00 00 00 00 00 00	r1 = r7
    3289:	67 01 00 00 20 00 00 00	r1 <<= 32
    3290:	77 01 00 00 20 00 00 00	r1 >>= 32
    3291:	15 01 3e 12 00 00 00 00	if r1 == 0 goto +4670 <LBB2_728>
    3292:	bf a2 00 00 00 00 00 00	r2 = r10
    3293:	07 02 00 00 98 ff ff ff	r2 += -104
    3294:	18 01 00 00 00 00 00 00 00 00 00 00 00 00 00 00	r1 = 0 ll
    3296:	85 00 00 00 03 00 00 00	call 3

0000000000006708 <LBB2_379>:
    3297:	07 08 00 00 01 00 00 00	r8 += 1
    3298:	bf 81 00 00 00 00 00 00	r1 = r8
    3299:	57 01 00 00 ff ff 00 00	r1 &= 65535
    3300:	37 01 00 00 ff 7f 00 00	r1 /= 32767
    3301:	0f 18 00 00 00 00 00 00	r8 += r1
    3302:	47 08 00 00 00 80 ff ff	r8 |= -32768
    3303:	bf 81 00 00 00 00 00 00	r1 = r8
    3304:	dc 01 00 00 10 00 00 00	r1 = be16 r1
    3305:	6b 1a b8 ff 00 00 00 00	*(u16 *)(r10 - 72) = r1
    3306:	6b 1a 90 ff 00 00 00 00	*(u16 *)(r10 - 112) = r1
    3307:	bf a2 00 00 00 00 00 00	r2 = r10
    3308:	07 02 00 00 98 ff ff ff	r2 += -104
    3309:	18 01 00 00 00 00 00 00 00 00 00 00 00 00 00 00	r1 = 0 ll
    3311:	85 00 00 00 01 00 00 00	call 1
    3312:	55 00 23 00 00 00 00 00	if r0 != 0 goto +35 <LBB2_383>
    3313:	85 00 00 00 76 00 00 00	call 118
    3314:	77 00 00 00 08 00 00 00	r0 >>= 8
    3315:	7b 0a 60 ff 00 00 00 00	*(u64 *)(r10 - 160) = r0
    3316:	7b 0a c0 ff 00 00 00 00	*(u64 *)(r10 - 64) = r0
    3317:	bf a2 00 00 00 00 00 00	r2 = r10
    3318:	07 02 00 00 98 ff ff ff	r2 += -104
    3319:	bf a3 00 00 00 00 00 00	r3 = r10
    3320:	07 03 00 00 c0 ff ff ff	r3 += -64
    3321:	18 01 00 00 00 00 00 00 00 00 00 00 00 00 00 00	r1 = 0 ll
    3323:	b7 04 00 00 01 00 00 00	r4 = 1
    3324:	85 00 00 00 02 00 00 00	call 2
    3325:	bf 07 00 00 00 00 00 00	r7 = r0
    3326:	bf 71 00 00 00 00 00 00	r1 = r7
    3327:	67 01 00 00 20 00 00 00	r1 <<= 32
    3328:	77 01 00 00 20 00 00 00	r1 >>= 32
    3329:	55 01 12 00 00 00 00 00	if r1 != 0 goto +18 <LBB2_383>
    3330:	bf a2 00 00 00 00 00 00	r2 = r10
    3331:	07 02 00 00 38 ff ff ff	r2 += -200
    3332:	bf a3 00 00 00 00 00 00	r3 = r10
    3333:	07 03 00 00 60 ff ff ff	r3 += -160
    3334:	18 01 00 00 00 00 00 00 00 00 00 00 00 00 00 00	r1 = 0 ll
    3336:	b7 04 00 00 01 00 00 00	r4 = 1
    3337:	85 00 00 00 02 00 00 00	call 2
    3338:	bf 07 00 00 00 00 00 00	r7 = r0
    3339:	bf 71 00 00 00 00 00 00	r1 = r7
    3340:	67 01 00 00 20 00 00 00	r1 <<= 32
    3341:	77 01 00 00 20 00 00 00	r1 >>= 32
    3342:	15 01 0b 12 00 00 00 00	if r1 == 0 goto +4619 <LBB2_728>
    3343:	bf a2 00 00 00 00 00 00	r2 = r10
    3344:	07 02 00 00 98 ff ff ff	r2 += -104
    3345:	18 01 00 00 00 00 00 00 00 00 00 00 00 00 00 00	r1 = 0 ll
    3347:	85 00 00 00 03 00 00 00	call 3

00000000000068a0 <LBB2_383>:
    3348:	07 08 00 00 01 00 00 00	r8 += 1
    3349:	bf 81 00 00 00 00 00 00	r1 = r8
    3350:	57 01 00 00 ff ff 00 00	r1 &= 65535
    3351:	37 01 00 00 ff 7f 00 00	r1 /= 32767
    3352:	0f 18 00 00 00 00 00 00	r8 += r1
    3353:	47 08 00 00 00 80 ff ff	r8 |= -32768
    3354:	bf 81 00 00 00 00 00 00	r1 = r8
    3355:	dc 01 00 00 10 00 00 00	r1 = be16 r1
    3356:	6b 1a b8 ff 00 00 00 00	*(u16 *)(r10 - 72) = r1
    3357:	6b 1a 90 ff 00 00 00 00	*(u16 *)(r10 - 112) = r1
    3358:	bf a2 00 00 00 00 00 00	r2 = r10
    3359:	07 02 00 00 98 ff ff ff	r2 += -104
    3360:	18 01 00 00 00 00 00 00 00 00 00 00 00 00 00 00	r1 = 0 ll
    3362:	85 00 00 00 01 00 00 00	call 1
    3363:	55 00 23 00 00 00 00 00	if r0 != 0 goto +35 <LBB2_387>
    3364:	85 00 00 00 76 00 00 00	call 118
    3365:	77 00 00 00 08 00 00 00	r0 >>= 8
    3366:	7b 0a 60 ff 00 00 00 00	*(u64 *)(r10 - 160) = r0
    3367:	7b 0a c0 ff 00 00 00 00	*(u64 *)(r10 - 64) = r0
    3368:	bf a2 00 00 00 00 00 00	r2 = r10
    3369:	07 02 00 00 98 ff ff ff	r2 += -104
    3370:	bf a3 00 00 00 00 00 00	r3 = r10
    3371:	07 03 00 00 c0 ff ff ff	r3 += -64
    3372:	18 01 00 00 00 00 00 00 00 00 00 00 00 00 00 00	r1 = 0 ll
    3374:	b7 04 00 00 01 00 00 00	r4 = 1
    3375:	85 00 00 00 02 00 00 00	call 2
    3376:	bf 07 00 00 00 00 00 00	r7 = r0
    3377:	bf 71 00 00 00 00 00 00	r1 = r7
    3378:	67 01 00 00 20 00 00 00	r1 <<= 32
    3379:	77 01 00 00 20 00 00 00	r1 >>= 32
    3380:	55 01 12 00 00 00 00 00	if r1 != 0 goto +18 <LBB2_387>
    3381:	bf a2 00 00 00 00 00 00	r2 = r10
    3382:	07 02 00 00 38 ff ff ff	r2 += -200
    3383:	bf a3 00 00 00 00 00 00	r3 = r10
    3384:	07 03 00 00 60 ff ff ff	r3 += -160
    3385:	18 01 00 00 00 00 00 00 00 00 00 00 00 00 00 00	r1 = 0 ll
    3387:	b7 04 00 00 01 00 00 00	r4 = 1
    3388:	85 00 00 00 02 00 00 00	call 2
    3389:	bf 07 00 00 00 00 00 00	r7 = r0
    3390:	bf 71 00 00 00 00 00 00	r1 = r7
    3391:	67 01 00 00 20 00 00 00	r1 <<= 32
    3392:	77 01 00 00 20 00 00 00	r1 >>= 32
    3393:	15 01 d8 11 00 00 00 00	if r1 == 0 goto +4568 <LBB2_728>
    3394:	bf a2 00 00 00 00 00 00	r2 = r10
    3395:	07 02 00 00 98 ff ff ff	r2 += -104
    3396:	18 01 00 00 00 00 00 00 00 00 00 00 00 00 00 00	r1 = 0 ll
    3398:	85 00 00 00 03 00 00 00	call 3

0000000000006a38 <LBB2_387>:
    3399:	07 08 00 00 01 00 00 00	r8 += 1
    3400:	bf 81 00 00 00 00 00 00	r1 = r8
    3401:	57 01 00 00 ff ff 00 00	r1 &= 65535
    3402:	37 01 00 00 ff 7f 00 00	r1 /= 32767
    3403:	0f 18 00 00 00 00 00 00	r8 += r1
    3404:	47 08 00 00 00 80 ff ff	r8 |= -32768
    3405:	bf 81 00 00 00 00 00 00	r1 = r8
    3406:	dc 01 00 00 10 00 00 00	r1 = be16 r1
    3407:	6b 1a b8 ff 00 00 00 00	*(u16 *)(r10 - 72) = r1
    3408:	6b 1a 90 ff 00 00 00 00	*(u16 *)(r10 - 112) = r1
    3409:	bf a2 00 00 00 00 00 00	r2 = r10
    3410:	07 02 00 00 98 ff ff ff	r2 += -104
    3411:	18 01 00 00 00 00 00 00 00 00 00 00 00 00 00 00	r1 = 0 ll
    3413:	85 00 00 00 01 00 00 00	call 1
    3414:	55 00 23 00 00 00 00 00	if r0 != 0 goto +35 <LBB2_391>
    3415:	85 00 00 00 76 00 00 00	call 118
    3416:	77 00 00 00 08 00 00 00	r0 >>= 8
    3417:	7b 0a 60 ff 00 00 00 00	*(u64 *)(r10 - 160) = r0
    3418:	7b 0a c0 ff 00 00 00 00	*(u64 *)(r10 - 64) = r0
    3419:	bf a2 00 00 00 00 00 00	r2 = r10
    3420:	07 02 00 00 98 ff ff ff	r2 += -104
    3421:	bf a3 00 00 00 00 00 00	r3 = r10
    3422:	07 03 00 00 c0 ff ff ff	r3 += -64
    3423:	18 01 00 00 00 00 00 00 00 00 00 00 00 00 00 00	r1 = 0 ll
    3425:	b7 04 00 00 01 00 00 00	r4 = 1
    3426:	85 00 00 00 02 00 00 00	call 2
    3427:	bf 07 00 00 00 00 00 00	r7 = r0
    3428:	bf 71 00 00 00 00 00 00	r1 = r7
    3429:	67 01 00 00 20 00 00 00	r1 <<= 32
    3430:	77 01 00 00 20 00 00 00	r1 >>= 32
    3431:	55 01 12 00 00 00 00 00	if r1 != 0 goto +18 <LBB2_391>
    3432:	bf a2 00 00 00 00 00 00	r2 = r10
    3433:	07 02 00 00 38 ff ff ff	r2 += -200
    3434:	bf a3 00 00 00 00 00 00	r3 = r10
    3435:	07 03 00 00 60 ff ff ff	r3 += -160
    3436:	18 01 00 00 00 00 00 00 00 00 00 00 00 00 00 00	r1 = 0 ll
    3438:	b7 04 00 00 01 00 00 00	r4 = 1
    3439:	85 00 00 00 02 00 00 00	call 2
    3440:	bf 07 00 00 00 00 00 00	r7 = r0
    3441:	bf 71 00 00 00 00 00 00	r1 = r7
    3442:	67 01 00 00 20 00 00 00	r1 <<= 32
    3443:	77 01 00 00 20 00 00 00	r1 >>= 32
    3444:	15 01 a5 11 00 00 00 00	if r1 == 0 goto +4517 <LBB2_728>
    3445:	bf a2 00 00 00 00 00 00	r2 = r10
    3446:	07 02 00 00 98 ff ff ff	r2 += -104
    3447:	18 01 00 00 00 00 00 00 00 00 00 00 00 00 00 00	r1 = 0 ll
    3449:	85 00 00 00 03 00 00 00	call 3

0000000000006bd0 <LBB2_391>:
    3450:	07 08 00 00 01 00 00 00	r8 += 1
    3451:	bf 81 00 00 00 00 00 00	r1 = r8
    3452:	57 01 00 00 ff ff 00 00	r1 &= 65535
    3453:	37 01 00 00 ff 7f 00 00	r1 /= 32767
    3454:	0f 18 00 00 00 00 00 00	r8 += r1
    3455:	47 08 00 00 00 80 ff ff	r8 |= -32768
    3456:	bf 81 00 00 00 00 00 00	r1 = r8
    3457:	dc 01 00 00 10 00 00 00	r1 = be16 r1
    3458:	6b 1a b8 ff 00 00 00 00	*(u16 *)(r10 - 72) = r1
    3459:	6b 1a 90 ff 00 00 00 00	*(u16 *)(r10 - 112) = r1
    3460:	bf a2 00 00 00 00 00 00	r2 = r10
    3461:	07 02 00 00 98 ff ff ff	r2 += -104
    3462:	18 01 00 00 00 00 00 00 00 00 00 00 00 00 00 00	r1 = 0 ll
    3464:	85 00 00 00 01 00 00 00	call 1
    3465:	55 00 23 00 00 00 00 00	if r0 != 0 goto +35 <LBB2_395>
    3466:	85 00 00 00 76 00 00 00	call 118
    3467:	77 00 00 00 08 00 00 00	r0 >>= 8
    3468:	7b 0a 60 ff 00 00 00 00	*(u64 *)(r10 - 160) = r0
    3469:	7b 0a c0 ff 00 00 00 00	*(u64 *)(r10 - 64) = r0
    3470:	bf a2 00 00 00 00 00 00	r2 = r10
    3471:	07 02 00 00 98 ff ff ff	r2 += -104
    3472:	bf a3 00 00 00 00 00 00	r3 = r10
    3473:	07 03 00 00 c0 ff ff ff	r3 += -64
    3474:	18 01 00 00 00 00 00 00 00 00 00 00 00 00 00 00	r1 = 0 ll
    3476:	b7 04 00 00 01 00 00 00	r4 = 1
    3477:	85 00 00 00 02 00 00 00	call 2
    3478:	bf 07 00 00 00 00 00 00	r7 = r0
    3479:	bf 71 00 00 00 00 00 00	r1 = r7
    3480:	67 01 00 00 20 00 00 00	r1 <<= 32
    3481:	77 01 00 00 20 00 00 00	r1 >>= 32
    3482:	55 01 12 00 00 00 00 00	if r1 != 0 goto +18 <LBB2_395>
    3483:	bf a2 00 00 00 00 00 00	r2 = r10
    3484:	07 02 00 00 38 ff ff ff	r2 += -200
    3485:	bf a3 00 00 00 00 00 00	r3 = r10
    3486:	07 03 00 00 60 ff ff ff	r3 += -160
    3487:	18 01 00 00 00 00 00 00 00 00 00 00 00 00 00 00	r1 = 0 ll
    3489:	b7 04 00 00 01 00 00 00	r4 = 1
    3490:	85 00 00 00 02 00 00 00	call 2
    3491:	bf 07 00 00 00 00 00 00	r7 = r0
    3492:	bf 71 00 00 00 00 00 00	r1 = r7
    3493:	67 01 00 00 20 00 00 00	r1 <<= 32
    3494:	77 01 00 00 20 00 00 00	r1 >>= 32
    3495:	15 01 72 11 00 00 00 00	if r1 == 0 goto +4466 <LBB2_728>
    3496:	bf a2 00 00 00 00 00 00	r2 = r10
    3497:	07 02 00 00 98 ff ff ff	r2 += -104
    3498:	18 01 00 00 00 00 00 00 00 00 00 00 00 00 00 00	r1 = 0 ll
    3500:	85 00 00 00 03 00 00 00	call 3

0000000000006d68 <LBB2_395>:
    3501:	07 08 00 00 01 00 00 00	r8 += 1
    3502:	bf 81 00 00 00 00 00 00	r1 = r8
    3503:	57 01 00 00 ff ff 00 00	r1 &= 65535
    3504:	37 01 00 00 ff 7f 00 00	r1 /= 32767
    3505:	0f 18 00 00 00 00 00 00	r8 += r1
    3506:	47 08 00 00 00 80 ff ff	r8 |= -32768
    3507:	bf 81 00 00 00 00 00 00	r1 = r8
    3508:	dc 01 00 00 10 00 00 00	r1 = be16 r1
    3509:	6b 1a b8 ff 00 00 00 00	*(u16 *)(r10 - 72) = r1
    3510:	6b 1a 90 ff 00 00 00 00	*(u16 *)(r10 - 112) = r1
    3511:	bf a2 00 00 00 00 00 00	r2 = r10
    3512:	07 02 00 00 98 ff ff ff	r2 += -104
    3513:	18 01 00 00 00 00 00 00 00 00 00 00 00 00 00 00	r1 = 0 ll
    3515:	85 00 00 00 01 00 00 00	call 1
    3516:	55 00 23 00 00 00 00 00	if r0 != 0 goto +35 <LBB2_399>
    3517:	85 00 00 00 76 00 00 00	call 118
    3518:	77 00 00 00 08 00 00 00	r0 >>= 8
    3519:	7b 0a 60 ff 00 00 00 00	*(u64 *)(r10 - 160) = r0
    3520:	7b 0a c0 ff 00 00 00 00	*(u64 *)(r10 - 64) = r0
    3521:	bf a2 00 00 00 00 00 00	r2 = r10
    3522:	07 02 00 00 98 ff ff ff	r2 += -104
    3523:	bf a3 00 00 00 00 00 00	r3 = r10
    3524:	07 03 00 00 c0 ff ff ff	r3 += -64
    3525:	18 01 00 00 00 00 00 00 00 00 00 00 00 00 00 00	r1 = 0 ll
    3527:	b7 04 00 00 01 00 00 00	r4 = 1
    3528:	85 00 00 00 02 00 00 00	call 2
    3529:	bf 07 00 00 00 00 00 00	r7 = r0
    3530:	bf 71 00 00 00 00 00 00	r1 = r7
    3531:	67 01 00 00 20 00 00 00	r1 <<= 32
    3532:	77 01 00 00 20 00 00 00	r1 >>= 32
    3533:	55 01 12 00 00 00 00 00	if r1 != 0 goto +18 <LBB2_399>
    3534:	bf a2 00 00 00 00 00 00	r2 = r10
    3535:	07 02 00 00 38 ff ff ff	r2 += -200
    3536:	bf a3 00 00 00 00 00 00	r3 = r10
    3537:	07 03 00 00 60 ff ff ff	r3 += -160
    3538:	18 01 00 00 00 00 00 00 00 00 00 00 00 00 00 00	r1 = 0 ll
    3540:	b7 04 00 00 01 00 00 00	r4 = 1
    3541:	85 00 00 00 02 00 00 00	call 2
    3542:	bf 07 00 00 00 00 00 00	r7 = r0
    3543:	bf 71 00 00 00 00 00 00	r1 = r7
    3544:	67 01 00 00 20 00 00 00	r1 <<= 32
    3545:	77 01 00 00 20 00 00 00	r1 >>= 32
    3546:	15 01 3f 11 00 00 00 00	if r1 == 0 goto +4415 <LBB2_728>
    3547:	bf a2 00 00 00 00 00 00	r2 = r10
    3548:	07 02 00 00 98 ff ff ff	r2 += -104
    3549:	18 01 00 00 00 00 00 00 00 00 00 00 00 00 00 00	r1 = 0 ll
    3551:	85 00 00 00 03 00 00 00	call 3

0000000000006f00 <LBB2_399>:
    3552:	07 08 00 00 01 00 00 00	r8 += 1
    3553:	bf 81 00 00 00 00 00 00	r1 = r8
    3554:	57 01 00 00 ff ff 00 00	r1 &= 65535
    3555:	37 01 00 00 ff 7f 00 00	r1 /= 32767
    3556:	0f 18 00 00 00 00 00 00	r8 += r1
    3557:	47 08 00 00 00 80 ff ff	r8 |= -32768
    3558:	bf 81 00 00 00 00 00 00	r1 = r8
    3559:	dc 01 00 00 10 00 00 00	r1 = be16 r1
    3560:	6b 1a b8 ff 00 00 00 00	*(u16 *)(r10 - 72) = r1
    3561:	6b 1a 90 ff 00 00 00 00	*(u16 *)(r10 - 112) = r1
    3562:	bf a2 00 00 00 00 00 00	r2 = r10
    3563:	07 02 00 00 98 ff ff ff	r2 += -104
    3564:	18 01 00 00 00 00 00 00 00 00 00 00 00 00 00 00	r1 = 0 ll
    3566:	85 00 00 00 01 00 00 00	call 1
    3567:	55 00 23 00 00 00 00 00	if r0 != 0 goto +35 <LBB2_403>
    3568:	85 00 00 00 76 00 00 00	call 118
    3569:	77 00 00 00 08 00 00 00	r0 >>= 8
    3570:	7b 0a 60 ff 00 00 00 00	*(u64 *)(r10 - 160) = r0
    3571:	7b 0a c0 ff 00 00 00 00	*(u64 *)(r10 - 64) = r0
    3572:	bf a2 00 00 00 00 00 00	r2 = r10
    3573:	07 02 00 00 98 ff ff ff	r2 += -104
    3574:	bf a3 00 00 00 00 00 00	r3 = r10
    3575:	07 03 00 00 c0 ff ff ff	r3 += -64
    3576:	18 01 00 00 00 00 00 00 00 00 00 00 00 00 00 00	r1 = 0 ll
    3578:	b7 04 00 00 01 00 00 00	r4 = 1
    3579:	85 00 00 00 02 00 00 00	call 2
    3580:	bf 07 00 00 00 00 00 00	r7 = r0
    3581:	bf 71 00 00 00 00 00 00	r1 = r7
    3582:	67 01 00 00 20 00 00 00	r1 <<= 32
    3583:	77 01 00 00 20 00 00 00	r1 >>= 32
    3584:	55 01 12 00 00 00 00 00	if r1 != 0 goto +18 <LBB2_403>
    3585:	bf a2 00 00 00 00 00 00	r2 = r10
    3586:	07 02 00 00 38 ff ff ff	r2 += -200
    3587:	bf a3 00 00 00 00 00 00	r3 = r10
    3588:	07 03 00 00 60 ff ff ff	r3 += -160
    3589:	18 01 00 00 00 00 00 00 00 00 00 00 00 00 00 00	r1 = 0 ll
    3591:	b7 04 00 00 01 00 00 00	r4 = 1
    3592:	85 00 00 00 02 00 00 00	call 2
    3593:	bf 07 00 00 00 00 00 00	r7 = r0
    3594:	bf 71 00 00 00 00 00 00	r1 = r7
    3595:	67 01 00 00 20 00 00 00	r1 <<= 32
    3596:	77 01 00 00 20 00 00 00	r1 >>= 32
    3597:	15 01 0c 11 00 00 00 00	if r1 == 0 goto +4364 <LBB2_728>
    3598:	bf a2 00 00 00 00 00 00	r2 = r10
    3599:	07 02 00 00 98 ff ff ff	r2 += -104
    3600:	18 01 00 00 00 00 00 00 00 00 00 00 00 00 00 00	r1 = 0 ll
    3602:	85 00 00 00 03 00 00 00	call 3

0000000000007098 <LBB2_403>:
    3603:	07 08 00 00 01 00 00 00	r8 += 1
    3604:	bf 81 00 00 00 00 00 00	r1 = r8
    3605:	57 01 00 00 ff ff 00 00	r1 &= 65535
    3606:	37 01 00 00 ff 7f 00 00	r1 /= 32767
    3607:	0f 18 00 00 00 00 00 00	r8 += r1
    3608:	47 08 00 00 00 80 ff ff	r8 |= -32768
    3609:	bf 81 00 00 00 00 00 00	r1 = r8
    3610:	dc 01 00 00 10 00 00 00	r1 = be16 r1
    3611:	6b 1a b8 ff 00 00 00 00	*(u16 *)(r10 - 72) = r1
    3612:	6b 1a 90 ff 00 00 00 00	*(u16 *)(r10 - 112) = r1
    3613:	bf a2 00 00 00 00 00 00	r2 = r10
    3614:	07 02 00 00 98 ff ff ff	r2 += -104
    3615:	18 01 00 00 00 00 00 00 00 00 00 00 00 00 00 00	r1 = 0 ll
    3617:	85 00 00 00 01 00 00 00	call 1
    3618:	55 00 23 00 00 00 00 00	if r0 != 0 goto +35 <LBB2_407>
    3619:	85 00 00 00 76 00 00 00	call 118
    3620:	77 00 00 00 08 00 00 00	r0 >>= 8
    3621:	7b 0a 60 ff 00 00 00 00	*(u64 *)(r10 - 160) = r0
    3622:	7b 0a c0 ff 00 00 00 00	*(u64 *)(r10 - 64) = r0
    3623:	bf a2 00 00 00 00 00 00	r2 = r10
    3624:	07 02 00 00 98 ff ff ff	r2 += -104
    3625:	bf a3 00 00 00 00 00 00	r3 = r10
    3626:	07 03 00 00 c0 ff ff ff	r3 += -64
    3627:	18 01 00 00 00 00 00 00 00 00 00 00 00 00 00 00	r1 = 0 ll
    3629:	b7 04 00 00 01 00 00 00	r4 = 1
    3630:	85 00 00 00 02 00 00 00	call 2
    3631:	bf 07 00 00 00 00 00 00	r7 = r0
    3632:	bf 71 00 00 00 00 00 00	r1 = r7
    3633:	67 01 00 00 20 00 00 00	r1 <<= 32
    3634:	77 01 00 00 20 00 00 00	r1 >>= 32
    3635:	55 01 12 00 00 00 00 00	if r1 != 0 goto +18 <LBB2_407>
    3636:	bf a2 00 00 00 00 00 00	r2 = r10
    3637:	07 02 00 00 38 ff ff ff	r2 += -200
    3638:	bf a3 00 00 00 00 00 00	r3 = r10
    3639:	07 03 00 00 60 ff ff ff	r3 += -160
    3640:	18 01 00 00 00 00 00 00 00 00 00 00 00 00 00 00	r1 = 0 ll
    3642:	b7 04 00 00 01 00 00 00	r4 = 1
    3643:	85 00 00 00 02 00 00 00	call 2
    3644:	bf 07 00 00 00 00 00 00	r7 = r0
    3645:	bf 71 00 00 00 00 00 00	r1 = r7
    3646:	67 01 00 00 20 00 00 00	r1 <<= 32
    3647:	77 01 00 00 20 00 00 00	r1 >>= 32
    3648:	15 01 d9 10 00 00 00 00	if r1 == 0 goto +4313 <LBB2_728>
    3649:	bf a2 00 00 00 00 00 00	r2 = r10
    3650:	07 02 00 00 98 ff ff ff	r2 += -104
    3651:	18 01 00 00 00 00 00 00 00 00 00 00 00 00 00 00	r1 = 0 ll
    3653:	85 00 00 00 03 00 00 00	call 3

0000000000007230 <LBB2_407>:
    3654:	07 08 00 00 01 00 00 00	r8 += 1
    3655:	bf 81 00 00 00 00 00 00	r1 = r8
    3656:	57 01 00 00 ff ff 00 00	r1 &= 65535
    3657:	37 01 00 00 ff 7f 00 00	r1 /= 32767
    3658:	0f 18 00 00 00 00 00 00	r8 += r1
    3659:	47 08 00 00 00 80 ff ff	r8 |= -32768
    3660:	bf 81 00 00 00 00 00 00	r1 = r8
    3661:	dc 01 00 00 10 00 00 00	r1 = be16 r1
    3662:	6b 1a b8 ff 00 00 00 00	*(u16 *)(r10 - 72) = r1
    3663:	6b 1a 90 ff 00 00 00 00	*(u16 *)(r10 - 112) = r1
    3664:	bf a2 00 00 00 00 00 00	r2 = r10
    3665:	07 02 00 00 98 ff ff ff	r2 += -104
    3666:	18 01 00 00 00 00 00 00 00 00 00 00 00 00 00 00	r1 = 0 ll
    3668:	85 00 00 00 01 00 00 00	call 1
    3669:	55 00 23 00 00 00 00 00	if r0 != 0 goto +35 <LBB2_411>
    3670:	85 00 00 00 76 00 00 00	call 118
    3671:	77 00 00 00 08 00 00 00	r0 >>= 8
    3672:	7b 0a 60 ff 00 00 00 00	*(u64 *)(r10 - 160) = r0
    3673:	7b 0a c0 ff 00 00 00 00	*(u64 *)(r10 - 64) = r0
    3674:	bf a2 00 00 00 00 00 00	r2 = r10
    3675:	07 02 00 00 98 ff ff ff	r2 += -104
    3676:	bf a3 00 00 00 00 00 00	r3 = r10
    3677:	07 03 00 00 c0 ff ff ff	r3 += -64
    3678:	18 01 00 00 00 00 00 00 00 00 00 00 00 00 00 00	r1 = 0 ll
    3680:	b7 04 00 00 01 00 00 00	r4 = 1
    3681:	85 00 00 00 02 00 00 00	call 2
    3682:	bf 07 00 00 00 00 00 00	r7 = r0
    3683:	bf 71 00 00 00 00 00 00	r1 = r7
    3684:	67 01 00 00 20 00 00 00	r1 <<= 32
    3685:	77 01 00 00 20 00 00 00	r1 >>= 32
    3686:	55 01 12 00 00 00 00 00	if r1 != 0 goto +18 <LBB2_411>
    3687:	bf a2 00 00 00 00 00 00	r2 = r10
    3688:	07 02 00 00 38 ff ff ff	r2 += -200
    3689:	bf a3 00 00 00 00 00 00	r3 = r10
    3690:	07 03 00 00 60 ff ff ff	r3 += -160
    3691:	18 01 00 00 00 00 00 00 00 00 00 00 00 00 00 00	r1 = 0 ll
    3693:	b7 04 00 00 01 00 00 00	r4 = 1
    3694:	85 00 00 00 02 00 00 00	call 2
    3695:	bf 07 00 00 00 00 00 00	r7 = r0
    3696:	bf 71 00 00 00 00 00 00	r1 = r7
    3697:	67 01 00 00 20 00 00 00	r1 <<= 32
    3698:	77 01 00 00 20 00 00 00	r1 >>= 32
    3699:	15 01 a6 10 00 00 00 00	if r1 == 0 goto +4262 <LBB2_728>
    3700:	bf a2 00 00 00 00 00 00	r2 = r10
    3701:	07 02 00 00 98 ff ff ff	r2 += -104
    3702:	18 01 00 00 00 00 00 00 00 00 00 00 00 00 00 00	r1 = 0 ll
    3704:	85 00 00 00 03 00 00 00	call 3

00000000000073c8 <LBB2_411>:
    3705:	07 08 00 00 01 00 00 00	r8 += 1
    3706:	bf 81 00 00 00 00 00 00	r1 = r8
    3707:	57 01 00 00 ff ff 00 00	r1 &= 65535
    3708:	37 01 00 00 ff 7f 00 00	r1 /= 32767
    3709:	0f 18 00 00 00 00 00 00	r8 += r1
    3710:	47 08 00 00 00 80 ff ff	r8 |= -32768
    3711:	bf 81 00 00 00 00 00 00	r1 = r8
    3712:	dc 01 00 00 10 00 00 00	r1 = be16 r1
    3713:	6b 1a b8 ff 00 00 00 00	*(u16 *)(r10 - 72) = r1
    3714:	6b 1a 90 ff 00 00 00 00	*(u16 *)(r10 - 112) = r1
    3715:	bf a2 00 00 00 00 00 00	r2 = r10
    3716:	07 02 00 00 98 ff ff ff	r2 += -104
    3717:	18 01 00 00 00 00 00 00 00 00 00 00 00 00 00 00	r1 = 0 ll
    3719:	85 00 00 00 01 00 00 00	call 1
    3720:	55 00 23 00 00 00 00 00	if r0 != 0 goto +35 <LBB2_415>
    3721:	85 00 00 00 76 00 00 00	call 118
    3722:	77 00 00 00 08 00 00 00	r0 >>= 8
    3723:	7b 0a 60 ff 00 00 00 00	*(u64 *)(r10 - 160) = r0
    3724:	7b 0a c0 ff 00 00 00 00	*(u64 *)(r10 - 64) = r0
    3725:	bf a2 00 00 00 00 00 00	r2 = r10
    3726:	07 02 00 00 98 ff ff ff	r2 += -104
    3727:	bf a3 00 00 00 00 00 00	r3 = r10
    3728:	07 03 00 00 c0 ff ff ff	r3 += -64
    3729:	18 01 00 00 00 00 00 00 00 00 00 00 00 00 00 00	r1 = 0 ll
    3731:	b7 04 00 00 01 00 00 00	r4 = 1
    3732:	85 00 00 00 02 00 00 00	call 2
    3733:	bf 07 00 00 00 00 00 00	r7 = r0
    3734:	bf 71 00 00 00 00 00 00	r1 = r7
    3735:	67 01 00 00 20 00 00 00	r1 <<= 32
    3736:	77 01 00 00 20 00 00 00	r1 >>= 32
    3737:	55 01 12 00 00 00 00 00	if r1 != 0 goto +18 <LBB2_415>
    3738:	bf a2 00 00 00 00 00 00	r2 = r10
    3739:	07 02 00 00 38 ff ff ff	r2 += -200
    3740:	bf a3 00 00 00 00 00 00	r3 = r10
    3741:	07 03 00 00 60 ff ff ff	r3 += -160
    3742:	18 01 00 00 00 00 00 00 00 00 00 00 00 00 00 00	r1 = 0 ll
    3744:	b7 04 00 00 01 00 00 00	r4 = 1
    3745:	85 00 00 00 02 00 00 00	call 2
    3746:	bf 07 00 00 00 00 00 00	r7 = r0
    3747:	bf 71 00 00 00 00 00 00	r1 = r7
    3748:	67 01 00 00 20 00 00 00	r1 <<= 32
    3749:	77 01 00 00 20 00 00 00	r1 >>= 32
    3750:	15 01 73 10 00 00 00 00	if r1 == 0 goto +4211 <LBB2_728>
    3751:	bf a2 00 00 00 00 00 00	r2 = r10
    3752:	07 02 00 00 98 ff ff ff	r2 += -104
    3753:	18 01 00 00 00 00 00 00 00 00 00 00 00 00 00 00	r1 = 0 ll
    3755:	85 00 00 00 03 00 00 00	call 3

0000000000007560 <LBB2_415>:
    3756:	07 08 00 00 01 00 00 00	r8 += 1
    3757:	bf 81 00 00 00 00 00 00	r1 = r8
    3758:	57 01 00 00 ff ff 00 00	r1 &= 65535
    3759:	37 01 00 00 ff 7f 00 00	r1 /= 32767
    3760:	0f 18 00 00 00 00 00 00	r8 += r1
    3761:	47 08 00 00 00 80 ff ff	r8 |= -32768
    3762:	bf 81 00 00 00 00 00 00	r1 = r8
    3763:	dc 01 00 00 10 00 00 00	r1 = be16 r1
    3764:	6b 1a b8 ff 00 00 00 00	*(u16 *)(r10 - 72) = r1
    3765:	6b 1a 90 ff 00 00 00 00	*(u16 *)(r10 - 112) = r1
    3766:	bf a2 00 00 00 00 00 00	r2 = r10
    3767:	07 02 00 00 98 ff ff ff	r2 += -104
    3768:	18 01 00 00 00 00 00 00 00 00 00 00 00 00 00 00	r1 = 0 ll
    3770:	85 00 00 00 01 00 00 00	call 1
    3771:	55 00 23 00 00 00 00 00	if r0 != 0 goto +35 <LBB2_419>
    3772:	85 00 00 00 76 00 00 00	call 118
    3773:	77 00 00 00 08 00 00 00	r0 >>= 8
    3774:	7b 0a 60 ff 00 00 00 00	*(u64 *)(r10 - 160) = r0
    3775:	7b 0a c0 ff 00 00 00 00	*(u64 *)(r10 - 64) = r0
    3776:	bf a2 00 00 00 00 00 00	r2 = r10
    3777:	07 02 00 00 98 ff ff ff	r2 += -104
    3778:	bf a3 00 00 00 00 00 00	r3 = r10
    3779:	07 03 00 00 c0 ff ff ff	r3 += -64
    3780:	18 01 00 00 00 00 00 00 00 00 00 00 00 00 00 00	r1 = 0 ll
    3782:	b7 04 00 00 01 00 00 00	r4 = 1
    3783:	85 00 00 00 02 00 00 00	call 2
    3784:	bf 07 00 00 00 00 00 00	r7 = r0
    3785:	bf 71 00 00 00 00 00 00	r1 = r7
    3786:	67 01 00 00 20 00 00 00	r1 <<= 32
    3787:	77 01 00 00 20 00 00 00	r1 >>= 32
    3788:	55 01 12 00 00 00 00 00	if r1 != 0 goto +18 <LBB2_419>
    3789:	bf a2 00 00 00 00 00 00	r2 = r10
    3790:	07 02 00 00 38 ff ff ff	r2 += -200
    3791:	bf a3 00 00 00 00 00 00	r3 = r10
    3792:	07 03 00 00 60 ff ff ff	r3 += -160
    3793:	18 01 00 00 00 00 00 00 00 00 00 00 00 00 00 00	r1 = 0 ll
    3795:	b7 04 00 00 01 00 00 00	r4 = 1
    3796:	85 00 00 00 02 00 00 00	call 2
    3797:	bf 07 00 00 00 00 00 00	r7 = r0
    3798:	bf 71 00 00 00 00 00 00	r1 = r7
    3799:	67 01 00 00 20 00 00 00	r1 <<= 32
    3800:	77 01 00 00 20 00 00 00	r1 >>= 32
    3801:	15 01 40 10 00 00 00 00	if r1 == 0 goto +4160 <LBB2_728>
    3802:	bf a2 00 00 00 00 00 00	r2 = r10
    3803:	07 02 00 00 98 ff ff ff	r2 += -104
    3804:	18 01 00 00 00 00 00 00 00 00 00 00 00 00 00 00	r1 = 0 ll
    3806:	85 00 00 00 03 00 00 00	call 3

00000000000076f8 <LBB2_419>:
    3807:	07 08 00 00 01 00 00 00	r8 += 1
    3808:	bf 81 00 00 00 00 00 00	r1 = r8
    3809:	57 01 00 00 ff ff 00 00	r1 &= 65535
    3810:	37 01 00 00 ff 7f 00 00	r1 /= 32767
    3811:	0f 18 00 00 00 00 00 00	r8 += r1
    3812:	47 08 00 00 00 80 ff ff	r8 |= -32768
    3813:	bf 81 00 00 00 00 00 00	r1 = r8
    3814:	dc 01 00 00 10 00 00 00	r1 = be16 r1
    3815:	6b 1a b8 ff 00 00 00 00	*(u16 *)(r10 - 72) = r1
    3816:	6b 1a 90 ff 00 00 00 00	*(u16 *)(r10 - 112) = r1
    3817:	bf a2 00 00 00 00 00 00	r2 = r10
    3818:	07 02 00 00 98 ff ff ff	r2 += -104
    3819:	18 01 00 00 00 00 00 00 00 00 00 00 00 00 00 00	r1 = 0 ll
    3821:	85 00 00 00 01 00 00 00	call 1
    3822:	55 00 23 00 00 00 00 00	if r0 != 0 goto +35 <LBB2_423>
    3823:	85 00 00 00 76 00 00 00	call 118
    3824:	77 00 00 00 08 00 00 00	r0 >>= 8
    3825:	7b 0a 60 ff 00 00 00 00	*(u64 *)(r10 - 160) = r0
    3826:	7b 0a c0 ff 00 00 00 00	*(u64 *)(r10 - 64) = r0
    3827:	bf a2 00 00 00 00 00 00	r2 = r10
    3828:	07 02 00 00 98 ff ff ff	r2 += -104
    3829:	bf a3 00 00 00 00 00 00	r3 = r10
    3830:	07 03 00 00 c0 ff ff ff	r3 += -64
    3831:	18 01 00 00 00 00 00 00 00 00 00 00 00 00 00 00	r1 = 0 ll
    3833:	b7 04 00 00 01 00 00 00	r4 = 1
    3834:	85 00 00 00 02 00 00 00	call 2
    3835:	bf 07 00 00 00 00 00 00	r7 = r0
    3836:	bf 71 00 00 00 00 00 00	r1 = r7
    3837:	67 01 00 00 20 00 00 00	r1 <<= 32
    3838:	77 01 00 00 20 00 00 00	r1 >>= 32
    3839:	55 01 12 00 00 00 00 00	if r1 != 0 goto +18 <LBB2_423>
    3840:	bf a2 00 00 00 00 00 00	r2 = r10
    3841:	07 02 00 00 38 ff ff ff	r2 += -200
    3842:	bf a3 00 00 00 00 00 00	r3 = r10
    3843:	07 03 00 00 60 ff ff ff	r3 += -160
    3844:	18 01 00 00 00 00 00 00 00 00 00 00 00 00 00 00	r1 = 0 ll
    3846:	b7 04 00 00 01 00 00 00	r4 = 1
    3847:	85 00 00 00 02 00 00 00	call 2
    3848:	bf 07 00 00 00 00 00 00	r7 = r0
    3849:	bf 71 00 00 00 00 00 00	r1 = r7
    3850:	67 01 00 00 20 00 00 00	r1 <<= 32
    3851:	77 01 00 00 20 00 00 00	r1 >>= 32
    3852:	15 01 0d 10 00 00 00 00	if r1 == 0 goto +4109 <LBB2_728>
    3853:	bf a2 00 00 00 00 00 00	r2 = r10
    3854:	07 02 00 00 98 ff ff ff	r2 += -104
    3855:	18 01 00 00 00 00 00 00 00 00 00 00 00 00 00 00	r1 = 0 ll
    3857:	85 00 00 00 03 00 00 00	call 3

0000000000007890 <LBB2_423>:
    3858:	07 08 00 00 01 00 00 00	r8 += 1
    3859:	bf 81 00 00 00 00 00 00	r1 = r8
    3860:	57 01 00 00 ff ff 00 00	r1 &= 65535
    3861:	37 01 00 00 ff 7f 00 00	r1 /= 32767
    3862:	0f 18 00 00 00 00 00 00	r8 += r1
    3863:	47 08 00 00 00 80 ff ff	r8 |= -32768
    3864:	bf 81 00 00 00 00 00 00	r1 = r8
    3865:	dc 01 00 00 10 00 00 00	r1 = be16 r1
    3866:	6b 1a b8 ff 00 00 00 00	*(u16 *)(r10 - 72) = r1
    3867:	6b 1a 90 ff 00 00 00 00	*(u16 *)(r10 - 112) = r1
    3868:	bf a2 00 00 00 00 00 00	r2 = r10
    3869:	07 02 00 00 98 ff ff ff	r2 += -104
    3870:	18 01 00 00 00 00 00 00 00 00 00 00 00 00 00 00	r1 = 0 ll
    3872:	85 00 00 00 01 00 00 00	call 1
    3873:	55 00 23 00 00 00 00 00	if r0 != 0 goto +35 <LBB2_427>
    3874:	85 00 00 00 76 00 00 00	call 118
    3875:	77 00 00 00 08 00 00 00	r0 >>= 8
    3876:	7b 0a 60 ff 00 00 00 00	*(u64 *)(r10 - 160) = r0
    3877:	7b 0a c0 ff 00 00 00 00	*(u64 *)(r10 - 64) = r0
    3878:	bf a2 00 00 00 00 00 00	r2 = r10
    3879:	07 02 00 00 98 ff ff ff	r2 += -104
    3880:	bf a3 00 00 00 00 00 00	r3 = r10
    3881:	07 03 00 00 c0 ff ff ff	r3 += -64
    3882:	18 01 00 00 00 00 00 00 00 00 00 00 00 00 00 00	r1 = 0 ll
    3884:	b7 04 00 00 01 00 00 00	r4 = 1
    3885:	85 00 00 00 02 00 00 00	call 2
    3886:	bf 07 00 00 00 00 00 00	r7 = r0
    3887:	bf 71 00 00 00 00 00 00	r1 = r7
    3888:	67 01 00 00 20 00 00 00	r1 <<= 32
    3889:	77 01 00 00 20 00 00 00	r1 >>= 32
    3890:	55 01 12 00 00 00 00 00	if r1 != 0 goto +18 <LBB2_427>
    3891:	bf a2 00 00 00 00 00 00	r2 = r10
    3892:	07 02 00 00 38 ff ff ff	r2 += -200
    3893:	bf a3 00 00 00 00 00 00	r3 = r10
    3894:	07 03 00 00 60 ff ff ff	r3 += -160
    3895:	18 01 00 00 00 00 00 00 00 00 00 00 00 00 00 00	r1 = 0 ll
    3897:	b7 04 00 00 01 00 00 00	r4 = 1
    3898:	85 00 00 00 02 00 00 00	call 2
    3899:	bf 07 00 00 00 00 00 00	r7 = r0
    3900:	bf 71 00 00 00 00 00 00	r1 = r7
    3901:	67 01 00 00 20 00 00 00	r1 <<= 32
    3902:	77 01 00 00 20 00 00 00	r1 >>= 32
    3903:	15 01 da 0f 00 00 00 00	if r1 == 0 goto +4058 <LBB2_728>
    3904:	bf a2 00 00 00 00 00 00	r2 = r10
    3905:	07 02 00 00 98 ff ff ff	r2 += -104
    3906:	18 01 00 00 00 00 00 00 00 00 00 00 00 00 00 00	r1 = 0 ll
    3908:	85 00 00 00 03 00 00 00	call 3

0000000000007a28 <LBB2_427>:
    3909:	07 08 00 00 01 00 00 00	r8 += 1
    3910:	bf 81 00 00 00 00 00 00	r1 = r8
    3911:	57 01 00 00 ff ff 00 00	r1 &= 65535
    3912:	37 01 00 00 ff 7f 00 00	r1 /= 32767
    3913:	0f 18 00 00 00 00 00 00	r8 += r1
    3914:	47 08 00 00 00 80 ff ff	r8 |= -32768
    3915:	bf 81 00 00 00 00 00 00	r1 = r8
    3916:	dc 01 00 00 10 00 00 00	r1 = be16 r1
    3917:	6b 1a b8 ff 00 00 00 00	*(u16 *)(r10 - 72) = r1
    3918:	6b 1a 90 ff 00 00 00 00	*(u16 *)(r10 - 112) = r1
    3919:	bf a2 00 00 00 00 00 00	r2 = r10
    3920:	07 02 00 00 98 ff ff ff	r2 += -104
    3921:	18 01 00 00 00 00 00 00 00 00 00 00 00 00 00 00	r1 = 0 ll
    3923:	85 00 00 00 01 00 00 00	call 1
    3924:	55 00 23 00 00 00 00 00	if r0 != 0 goto +35 <LBB2_431>
    3925:	85 00 00 00 76 00 00 00	call 118
    3926:	77 00 00 00 08 00 00 00	r0 >>= 8
    3927:	7b 0a 60 ff 00 00 00 00	*(u64 *)(r10 - 160) = r0
    3928:	7b 0a c0 ff 00 00 00 00	*(u64 *)(r10 - 64) = r0
    3929:	bf a2 00 00 00 00 00 00	r2 = r10
    3930:	07 02 00 00 98 ff ff ff	r2 += -104
    3931:	bf a3 00 00 00 00 00 00	r3 = r10
    3932:	07 03 00 00 c0 ff ff ff	r3 += -64
    3933:	18 01 00 00 00 00 00 00 00 00 00 00 00 00 00 00	r1 = 0 ll
    3935:	b7 04 00 00 01 00 00 00	r4 = 1
    3936:	85 00 00 00 02 00 00 00	call 2
    3937:	bf 07 00 00 00 00 00 00	r7 = r0
    3938:	bf 71 00 00 00 00 00 00	r1 = r7
    3939:	67 01 00 00 20 00 00 00	r1 <<= 32
    3940:	77 01 00 00 20 00 00 00	r1 >>= 32
    3941:	55 01 12 00 00 00 00 00	if r1 != 0 goto +18 <LBB2_431>
    3942:	bf a2 00 00 00 00 00 00	r2 = r10
    3943:	07 02 00 00 38 ff ff ff	r2 += -200
    3944:	bf a3 00 00 00 00 00 00	r3 = r10
    3945:	07 03 00 00 60 ff ff ff	r3 += -160
    3946:	18 01 00 00 00 00 00 00 00 00 00 00 00 00 00 00	r1 = 0 ll
    3948:	b7 04 00 00 01 00 00 00	r4 = 1
    3949:	85 00 00 00 02 00 00 00	call 2
    3950:	bf 07 00 00 00 00 00 00	r7 = r0
    3951:	bf 71 00 00 00 00 00 00	r1 = r7
    3952:	67 01 00 00 20 00 00 00	r1 <<= 32
    3953:	77 01 00 00 20 00 00 00	r1 >>= 32
    3954:	15 01 a7 0f 00 00 00 00	if r1 == 0 goto +4007 <LBB2_728>
    3955:	bf a2 00 00 00 00 00 00	r2 = r10
    3956:	07 02 00 00 98 ff ff ff	r2 += -104
    3957:	18 01 00 00 00 00 00 00 00 00 00 00 00 00 00 00	r1 = 0 ll
    3959:	85 00 00 00 03 00 00 00	call 3

0000000000007bc0 <LBB2_431>:
    3960:	07 08 00 00 01 00 00 00	r8 += 1
    3961:	bf 81 00 00 00 00 00 00	r1 = r8
    3962:	57 01 00 00 ff ff 00 00	r1 &= 65535
    3963:	37 01 00 00 ff 7f 00 00	r1 /= 32767
    3964:	0f 18 00 00 00 00 00 00	r8 += r1
    3965:	47 08 00 00 00 80 ff ff	r8 |= -32768
    3966:	bf 81 00 00 00 00 00 00	r1 = r8
    3967:	dc 01 00 00 10 00 00 00	r1 = be16 r1
    3968:	6b 1a b8 ff 00 00 00 00	*(u16 *)(r10 - 72) = r1
    3969:	6b 1a 90 ff 00 00 00 00	*(u16 *)(r10 - 112) = r1
    3970:	bf a2 00 00 00 00 00 00	r2 = r10
    3971:	07 02 00 00 98 ff ff ff	r2 += -104
    3972:	18 01 00 00 00 00 00 00 00 00 00 00 00 00 00 00	r1 = 0 ll
    3974:	85 00 00 00 01 00 00 00	call 1
    3975:	55 00 23 00 00 00 00 00	if r0 != 0 goto +35 <LBB2_435>
    3976:	85 00 00 00 76 00 00 00	call 118
    3977:	77 00 00 00 08 00 00 00	r0 >>= 8
    3978:	7b 0a 60 ff 00 00 00 00	*(u64 *)(r10 - 160) = r0
    3979:	7b 0a c0 ff 00 00 00 00	*(u64 *)(r10 - 64) = r0
    3980:	bf a2 00 00 00 00 00 00	r2 = r10
    3981:	07 02 00 00 98 ff ff ff	r2 += -104
    3982:	bf a3 00 00 00 00 00 00	r3 = r10
    3983:	07 03 00 00 c0 ff ff ff	r3 += -64
    3984:	18 01 00 00 00 00 00 00 00 00 00 00 00 00 00 00	r1 = 0 ll
    3986:	b7 04 00 00 01 00 00 00	r4 = 1
    3987:	85 00 00 00 02 00 00 00	call 2
    3988:	bf 07 00 00 00 00 00 00	r7 = r0
    3989:	bf 71 00 00 00 00 00 00	r1 = r7
    3990:	67 01 00 00 20 00 00 00	r1 <<= 32
    3991:	77 01 00 00 20 00 00 00	r1 >>= 32
    3992:	55 01 12 00 00 00 00 00	if r1 != 0 goto +18 <LBB2_435>
    3993:	bf a2 00 00 00 00 00 00	r2 = r10
    3994:	07 02 00 00 38 ff ff ff	r2 += -200
    3995:	bf a3 00 00 00 00 00 00	r3 = r10
    3996:	07 03 00 00 60 ff ff ff	r3 += -160
    3997:	18 01 00 00 00 00 00 00 00 00 00 00 00 00 00 00	r1 = 0 ll
    3999:	b7 04 00 00 01 00 00 00	r4 = 1
    4000:	85 00 00 00 02 00 00 00	call 2
    4001:	bf 07 00 00 00 00 00 00	r7 = r0
    4002:	bf 71 00 00 00 00 00 00	r1 = r7
    4003:	67 01 00 00 20 00 00 00	r1 <<= 32
    4004:	77 01 00 00 20 00 00 00	r1 >>= 32
    4005:	15 01 74 0f 00 00 00 00	if r1 == 0 goto +3956 <LBB2_728>
    4006:	bf a2 00 00 00 00 00 00	r2 = r10
    4007:	07 02 00 00 98 ff ff ff	r2 += -104
    4008:	18 01 00 00 00 00 00 00 00 00 00 00 00 00 00 00	r1 = 0 ll
    4010:	85 00 00 00 03 00 00 00	call 3

0000000000007d58 <LBB2_435>:
    4011:	07 08 00 00 01 00 00 00	r8 += 1
    4012:	bf 81 00 00 00 00 00 00	r1 = r8
    4013:	57 01 00 00 ff ff 00 00	r1 &= 65535
    4014:	37 01 00 00 ff 7f 00 00	r1 /= 32767
    4015:	0f 18 00 00 00 00 00 00	r8 += r1
    4016:	47 08 00 00 00 80 ff ff	r8 |= -32768
    4017:	bf 81 00 00 00 00 00 00	r1 = r8
    4018:	dc 01 00 00 10 00 00 00	r1 = be16 r1
    4019:	6b 1a b8 ff 00 00 00 00	*(u16 *)(r10 - 72) = r1
    4020:	6b 1a 90 ff 00 00 00 00	*(u16 *)(r10 - 112) = r1
    4021:	bf a2 00 00 00 00 00 00	r2 = r10
    4022:	07 02 00 00 98 ff ff ff	r2 += -104
    4023:	18 01 00 00 00 00 00 00 00 00 00 00 00 00 00 00	r1 = 0 ll
    4025:	85 00 00 00 01 00 00 00	call 1
    4026:	55 00 23 00 00 00 00 00	if r0 != 0 goto +35 <LBB2_439>
    4027:	85 00 00 00 76 00 00 00	call 118
    4028:	77 00 00 00 08 00 00 00	r0 >>= 8
    4029:	7b 0a 60 ff 00 00 00 00	*(u64 *)(r10 - 160) = r0
    4030:	7b 0a c0 ff 00 00 00 00	*(u64 *)(r10 - 64) = r0
    4031:	bf a2 00 00 00 00 00 00	r2 = r10
    4032:	07 02 00 00 98 ff ff ff	r2 += -104
    4033:	bf a3 00 00 00 00 00 00	r3 = r10
    4034:	07 03 00 00 c0 ff ff ff	r3 += -64
    4035:	18 01 00 00 00 00 00 00 00 00 00 00 00 00 00 00	r1 = 0 ll
    4037:	b7 04 00 00 01 00 00 00	r4 = 1
    4038:	85 00 00 00 02 00 00 00	call 2
    4039:	bf 07 00 00 00 00 00 00	r7 = r0
    4040:	bf 71 00 00 00 00 00 00	r1 = r7
    4041:	67 01 00 00 20 00 00 00	r1 <<= 32
    4042:	77 01 00 00 20 00 00 00	r1 >>= 32
    4043:	55 01 12 00 00 00 00 00	if r1 != 0 goto +18 <LBB2_439>
    4044:	bf a2 00 00 00 00 00 00	r2 = r10
    4045:	07 02 00 00 38 ff ff ff	r2 += -200
    4046:	bf a3 00 00 00 00 00 00	r3 = r10
    4047:	07 03 00 00 60 ff ff ff	r3 += -160
    4048:	18 01 00 00 00 00 00 00 00 00 00 00 00 00 00 00	r1 = 0 ll
    4050:	b7 04 00 00 01 00 00 00	r4 = 1
    4051:	85 00 00 00 02 00 00 00	call 2
    4052:	bf 07 00 00 00 00 00 00	r7 = r0
    4053:	bf 71 00 00 00 00 00 00	r1 = r7
    4054:	67 01 00 00 20 00 00 00	r1 <<= 32
    4055:	77 01 00 00 20 00 00 00	r1 >>= 32
    4056:	15 01 41 0f 00 00 00 00	if r1 == 0 goto +3905 <LBB2_728>
    4057:	bf a2 00 00 00 00 00 00	r2 = r10
    4058:	07 02 00 00 98 ff ff ff	r2 += -104
    4059:	18 01 00 00 00 00 00 00 00 00 00 00 00 00 00 00	r1 = 0 ll
    4061:	85 00 00 00 03 00 00 00	call 3

0000000000007ef0 <LBB2_439>:
    4062:	07 08 00 00 01 00 00 00	r8 += 1
    4063:	bf 81 00 00 00 00 00 00	r1 = r8
    4064:	57 01 00 00 ff ff 00 00	r1 &= 65535
    4065:	37 01 00 00 ff 7f 00 00	r1 /= 32767
    4066:	0f 18 00 00 00 00 00 00	r8 += r1
    4067:	47 08 00 00 00 80 ff ff	r8 |= -32768
    4068:	bf 81 00 00 00 00 00 00	r1 = r8
    4069:	dc 01 00 00 10 00 00 00	r1 = be16 r1
    4070:	6b 1a b8 ff 00 00 00 00	*(u16 *)(r10 - 72) = r1
    4071:	6b 1a 90 ff 00 00 00 00	*(u16 *)(r10 - 112) = r1
    4072:	bf a2 00 00 00 00 00 00	r2 = r10
    4073:	07 02 00 00 98 ff ff ff	r2 += -104
    4074:	18 01 00 00 00 00 00 00 00 00 00 00 00 00 00 00	r1 = 0 ll
    4076:	85 00 00 00 01 00 00 00	call 1
    4077:	55 00 23 00 00 00 00 00	if r0 != 0 goto +35 <LBB2_443>
    4078:	85 00 00 00 76 00 00 00	call 118
    4079:	77 00 00 00 08 00 00 00	r0 >>= 8
    4080:	7b 0a 60 ff 00 00 00 00	*(u64 *)(r10 - 160) = r0
    4081:	7b 0a c0 ff 00 00 00 00	*(u64 *)(r10 - 64) = r0
    4082:	bf a2 00 00 00 00 00 00	r2 = r10
    4083:	07 02 00 00 98 ff ff ff	r2 += -104
    4084:	bf a3 00 00 00 00 00 00	r3 = r10
    4085:	07 03 00 00 c0 ff ff ff	r3 += -64
    4086:	18 01 00 00 00 00 00 00 00 00 00 00 00 00 00 00	r1 = 0 ll
    4088:	b7 04 00 00 01 00 00 00	r4 = 1
    4089:	85 00 00 00 02 00 00 00	call 2
    4090:	bf 07 00 00 00 00 00 00	r7 = r0
    4091:	bf 71 00 00 00 00 00 00	r1 = r7
    4092:	67 01 00 00 20 00 00 00	r1 <<= 32
    4093:	77 01 00 00 20 00 00 00	r1 >>= 32
    4094:	55 01 12 00 00 00 00 00	if r1 != 0 goto +18 <LBB2_443>
    4095:	bf a2 00 00 00 00 00 00	r2 = r10
    4096:	07 02 00 00 38 ff ff ff	r2 += -200
    4097:	bf a3 00 00 00 00 00 00	r3 = r10
    4098:	07 03 00 00 60 ff ff ff	r3 += -160
    4099:	18 01 00 00 00 00 00 00 00 00 00 00 00 00 00 00	r1 = 0 ll
    4101:	b7 04 00 00 01 00 00 00	r4 = 1
    4102:	85 00 00 00 02 00 00 00	call 2
    4103:	bf 07 00 00 00 00 00 00	r7 = r0
    4104:	bf 71 00 00 00 00 00 00	r1 = r7
    4105:	67 01 00 00 20 00 00 00	r1 <<= 32
    4106:	77 01 00 00 20 00 00 00	r1 >>= 32
    4107:	15 01 0e 0f 00 00 00 00	if r1 == 0 goto +3854 <LBB2_728>
    4108:	bf a2 00 00 00 00 00 00	r2 = r10
    4109:	07 02 00 00 98 ff ff ff	r2 += -104
    4110:	18 01 00 00 00 00 00 00 00 00 00 00 00 00 00 00	r1 = 0 ll
    4112:	85 00 00 00 03 00 00 00	call 3

0000000000008088 <LBB2_443>:
    4113:	07 08 00 00 01 00 00 00	r8 += 1
    4114:	bf 81 00 00 00 00 00 00	r1 = r8
    4115:	57 01 00 00 ff ff 00 00	r1 &= 65535
    4116:	37 01 00 00 ff 7f 00 00	r1 /= 32767
    4117:	0f 18 00 00 00 00 00 00	r8 += r1
    4118:	47 08 00 00 00 80 ff ff	r8 |= -32768
    4119:	bf 81 00 00 00 00 00 00	r1 = r8
    4120:	dc 01 00 00 10 00 00 00	r1 = be16 r1
    4121:	6b 1a b8 ff 00 00 00 00	*(u16 *)(r10 - 72) = r1
    4122:	6b 1a 90 ff 00 00 00 00	*(u16 *)(r10 - 112) = r1
    4123:	bf a2 00 00 00 00 00 00	r2 = r10
    4124:	07 02 00 00 98 ff ff ff	r2 += -104
    4125:	18 01 00 00 00 00 00 00 00 00 00 00 00 00 00 00	r1 = 0 ll
    4127:	85 00 00 00 01 00 00 00	call 1
    4128:	55 00 23 00 00 00 00 00	if r0 != 0 goto +35 <LBB2_447>
    4129:	85 00 00 00 76 00 00 00	call 118
    4130:	77 00 00 00 08 00 00 00	r0 >>= 8
    4131:	7b 0a 60 ff 00 00 00 00	*(u64 *)(r10 - 160) = r0
    4132:	7b 0a c0 ff 00 00 00 00	*(u64 *)(r10 - 64) = r0
    4133:	bf a2 00 00 00 00 00 00	r2 = r10
    4134:	07 02 00 00 98 ff ff ff	r2 += -104
    4135:	bf a3 00 00 00 00 00 00	r3 = r10
    4136:	07 03 00 00 c0 ff ff ff	r3 += -64
    4137:	18 01 00 00 00 00 00 00 00 00 00 00 00 00 00 00	r1 = 0 ll
    4139:	b7 04 00 00 01 00 00 00	r4 = 1
    4140:	85 00 00 00 02 00 00 00	call 2
    4141:	bf 07 00 00 00 00 00 00	r7 = r0
    4142:	bf 71 00 00 00 00 00 00	r1 = r7
    4143:	67 01 00 00 20 00 00 00	r1 <<= 32
    4144:	77 01 00 00 20 00 00 00	r1 >>= 32
    4145:	55 01 12 00 00 00 00 00	if r1 != 0 goto +18 <LBB2_447>
    4146:	bf a2 00 00 00 00 00 00	r2 = r10
    4147:	07 02 00 00 38 ff ff ff	r2 += -200
    4148:	bf a3 00 00 00 00 00 00	r3 = r10
    4149:	07 03 00 00 60 ff ff ff	r3 += -160
    4150:	18 01 00 00 00 00 00 00 00 00 00 00 00 00 00 00	r1 = 0 ll
    4152:	b7 04 00 00 01 00 00 00	r4 = 1
    4153:	85 00 00 00 02 00 00 00	call 2
    4154:	bf 07 00 00 00 00 00 00	r7 = r0
    4155:	bf 71 00 00 00 00 00 00	r1 = r7
    4156:	67 01 00 00 20 00 00 00	r1 <<= 32
    4157:	77 01 00 00 20 00 00 00	r1 >>= 32
    4158:	15 01 db 0e 00 00 00 00	if r1 == 0 goto +3803 <LBB2_728>
    4159:	bf a2 00 00 00 00 00 00	r2 = r10
    4160:	07 02 00 00 98 ff ff ff	r2 += -104
    4161:	18 01 00 00 00 00 00 00 00 00 00 00 00 00 00 00	r1 = 0 ll
    4163:	85 00 00 00 03 00 00 00	call 3

0000000000008220 <LBB2_447>:
    4164:	07 08 00 00 01 00 00 00	r8 += 1
    4165:	bf 81 00 00 00 00 00 00	r1 = r8
    4166:	57 01 00 00 ff ff 00 00	r1 &= 65535
    4167:	37 01 00 00 ff 7f 00 00	r1 /= 32767
    4168:	0f 18 00 00 00 00 00 00	r8 += r1
    4169:	47 08 00 00 00 80 ff ff	r8 |= -32768
    4170:	bf 81 00 00 00 00 00 00	r1 = r8
    4171:	dc 01 00 00 10 00 00 00	r1 = be16 r1
    4172:	6b 1a b8 ff 00 00 00 00	*(u16 *)(r10 - 72) = r1
    4173:	6b 1a 90 ff 00 00 00 00	*(u16 *)(r10 - 112) = r1
    4174:	bf a2 00 00 00 00 00 00	r2 = r10
    4175:	07 02 00 00 98 ff ff ff	r2 += -104
    4176:	18 01 00 00 00 00 00 00 00 00 00 00 00 00 00 00	r1 = 0 ll
    4178:	85 00 00 00 01 00 00 00	call 1
    4179:	55 00 23 00 00 00 00 00	if r0 != 0 goto +35 <LBB2_451>
    4180:	85 00 00 00 76 00 00 00	call 118
    4181:	77 00 00 00 08 00 00 00	r0 >>= 8
    4182:	7b 0a 60 ff 00 00 00 00	*(u64 *)(r10 - 160) = r0
    4183:	7b 0a c0 ff 00 00 00 00	*(u64 *)(r10 - 64) = r0
    4184:	bf a2 00 00 00 00 00 00	r2 = r10
    4185:	07 02 00 00 98 ff ff ff	r2 += -104
    4186:	bf a3 00 00 00 00 00 00	r3 = r10
    4187:	07 03 00 00 c0 ff ff ff	r3 += -64
    4188:	18 01 00 00 00 00 00 00 00 00 00 00 00 00 00 00	r1 = 0 ll
    4190:	b7 04 00 00 01 00 00 00	r4 = 1
    4191:	85 00 00 00 02 00 00 00	call 2
    4192:	bf 07 00 00 00 00 00 00	r7 = r0
    4193:	bf 71 00 00 00 00 00 00	r1 = r7
    4194:	67 01 00 00 20 00 00 00	r1 <<= 32
    4195:	77 01 00 00 20 00 00 00	r1 >>= 32
    4196:	55 01 12 00 00 00 00 00	if r1 != 0 goto +18 <LBB2_451>
    4197:	bf a2 00 00 00 00 00 00	r2 = r10
    4198:	07 02 00 00 38 ff ff ff	r2 += -200
    4199:	bf a3 00 00 00 00 00 00	r3 = r10
    4200:	07 03 00 00 60 ff ff ff	r3 += -160
    4201:	18 01 00 00 00 00 00 00 00 00 00 00 00 00 00 00	r1 = 0 ll
    4203:	b7 04 00 00 01 00 00 00	r4 = 1
    4204:	85 00 00 00 02 00 00 00	call 2
    4205:	bf 07 00 00 00 00 00 00	r7 = r0
    4206:	bf 71 00 00 00 00 00 00	r1 = r7
    4207:	67 01 00 00 20 00 00 00	r1 <<= 32
    4208:	77 01 00 00 20 00 00 00	r1 >>= 32
    4209:	15 01 a8 0e 00 00 00 00	if r1 == 0 goto +3752 <LBB2_728>
    4210:	bf a2 00 00 00 00 00 00	r2 = r10
    4211:	07 02 00 00 98 ff ff ff	r2 += -104
    4212:	18 01 00 00 00 00 00 00 00 00 00 00 00 00 00 00	r1 = 0 ll
    4214:	85 00 00 00 03 00 00 00	call 3

00000000000083b8 <LBB2_451>:
    4215:	07 08 00 00 01 00 00 00	r8 += 1
    4216:	bf 81 00 00 00 00 00 00	r1 = r8
    4217:	57 01 00 00 ff ff 00 00	r1 &= 65535
    4218:	37 01 00 00 ff 7f 00 00	r1 /= 32767
    4219:	0f 18 00 00 00 00 00 00	r8 += r1
    4220:	47 08 00 00 00 80 ff ff	r8 |= -32768
    4221:	bf 81 00 00 00 00 00 00	r1 = r8
    4222:	dc 01 00 00 10 00 00 00	r1 = be16 r1
    4223:	6b 1a b8 ff 00 00 00 00	*(u16 *)(r10 - 72) = r1
    4224:	6b 1a 90 ff 00 00 00 00	*(u16 *)(r10 - 112) = r1
    4225:	bf a2 00 00 00 00 00 00	r2 = r10
    4226:	07 02 00 00 98 ff ff ff	r2 += -104
    4227:	18 01 00 00 00 00 00 00 00 00 00 00 00 00 00 00	r1 = 0 ll
    4229:	85 00 00 00 01 00 00 00	call 1
    4230:	55 00 23 00 00 00 00 00	if r0 != 0 goto +35 <LBB2_455>
    4231:	85 00 00 00 76 00 00 00	call 118
    4232:	77 00 00 00 08 00 00 00	r0 >>= 8
    4233:	7b 0a 60 ff 00 00 00 00	*(u64 *)(r10 - 160) = r0
    4234:	7b 0a c0 ff 00 00 00 00	*(u64 *)(r10 - 64) = r0
    4235:	bf a2 00 00 00 00 00 00	r2 = r10
    4236:	07 02 00 00 98 ff ff ff	r2 += -104
    4237:	bf a3 00 00 00 00 00 00	r3 = r10
