
./ebpf-samples/all/bpf_xdp_snat_linux.o:	file format elf64-bpf

Disassembly of section 2/1:

0000000000000000 <__send_drop_notify>:
       0:	bf 16 00 00 00 00 00 00	r6 = r1
       1:	b4 07 00 00 00 00 00 00	w7 = 0
       2:	63 7a d8 ff 00 00 00 00	*(u32 *)(r10 - 40) = r7
       3:	bf a2 00 00 00 00 00 00	r2 = r10
       4:	07 02 00 00 d8 ff ff ff	r2 += -40
       5:	18 01 00 00 00 00 00 00 00 00 00 00 00 00 00 00	r1 = 0 ll
       7:	85 00 00 00 01 00 00 00	call 1
       8:	b4 08 00 00 00 00 00 00	w8 = 0
       9:	15 00 01 00 00 00 00 00	if r0 == 0 goto +1 <LBB0_2>
      10:	61 08 08 00 00 00 00 00	r8 = *(u32 *)(r0 + 8)

0000000000000058 <LBB0_2>:
      11:	61 61 00 00 00 00 00 00	r1 = *(u32 *)(r6 + 0)
      12:	61 62 04 00 00 00 00 00	r2 = *(u32 *)(r6 + 4)
      13:	1f 12 00 00 00 00 00 00	r2 -= r1
      14:	b4 01 00 00 00 00 00 00	w1 = 0
      15:	63 1a d4 ff 00 00 00 00	*(u32 *)(r10 - 44) = r1
      16:	63 7a d8 ff 00 00 00 00	*(u32 *)(r10 - 40) = r7
      17:	bf 27 00 00 00 00 00 00	r7 = r2
      18:	7b 2a c0 ff 00 00 00 00	*(u64 *)(r10 - 64) = r2
      19:	a5 02 01 00 80 00 00 00	if r2 < 128 goto +1 <LBB0_4>
      20:	b7 07 00 00 80 00 00 00	r7 = 128

00000000000000a8 <LBB0_4>:
      21:	7b 6a c8 ff 00 00 00 00	*(u64 *)(r10 - 56) = r6
      22:	bc 89 00 00 00 00 00 00	w9 = w8
      23:	c4 09 00 00 1f 00 00 00	w9 s>>= 31
      24:	bf a2 00 00 00 00 00 00	r2 = r10
      25:	07 02 00 00 d8 ff ff ff	r2 += -40
      26:	18 01 00 00 00 00 00 00 00 00 00 00 00 00 00 00	r1 = 0 ll
      28:	85 00 00 00 01 00 00 00	call 1
      29:	15 00 02 00 00 00 00 00	if r0 == 0 goto +2 <LBB0_6>
      30:	61 01 00 00 00 00 00 00	r1 = *(u32 *)(r0 + 0)
      31:	63 1a d4 ff 00 00 00 00	*(u32 *)(r10 - 44) = r1

0000000000000100 <LBB0_6>:
      32:	0c 98 00 00 00 00 00 00	w8 += w9
      33:	b4 06 00 00 00 00 00 00	w6 = 0
      34:	63 6a d8 ff 00 00 00 00	*(u32 *)(r10 - 40) = r6
      35:	bf a2 00 00 00 00 00 00	r2 = r10
      36:	07 02 00 00 d8 ff ff ff	r2 += -40
      37:	18 01 00 00 00 00 00 00 00 00 00 00 00 00 00 00	r1 = 0 ll
      39:	85 00 00 00 01 00 00 00	call 1
      40:	b4 01 00 00 00 00 00 00	w1 = 0
      41:	15 00 01 00 00 00 00 00	if r0 == 0 goto +1 <LBB0_8>
      42:	61 01 04 00 00 00 00 00	r1 = *(u32 *)(r0 + 4)

0000000000000158 <LBB0_8>:
      43:	63 1a bc ff 00 00 00 00	*(u32 *)(r10 - 68) = r1
      44:	ac 98 00 00 00 00 00 00	w8 ^= w9
      45:	63 6a fc ff 00 00 00 00	*(u32 *)(r10 - 4) = r6
      46:	bf a2 00 00 00 00 00 00	r2 = r10
      47:	07 02 00 00 fc ff ff ff	r2 += -4
      48:	18 01 00 00 00 00 00 00 00 00 00 00 00 00 00 00	r1 = 0 ll
      50:	85 00 00 00 01 00 00 00	call 1
      51:	15 00 01 00 00 00 00 00	if r0 == 0 goto +1 <LBB0_10>
      52:	61 06 0c 00 00 00 00 00	r6 = *(u32 *)(r0 + 12)

00000000000001a8 <LBB0_10>:
      53:	63 6a f0 ff 00 00 00 00	*(u32 *)(r10 - 16) = r6
      54:	61 a1 bc ff 00 00 00 00	r1 = *(u32 *)(r10 - 68)
      55:	63 1a ec ff 00 00 00 00	*(u32 *)(r10 - 20) = r1
      56:	61 a1 d4 ff 00 00 00 00	r1 = *(u32 *)(r10 - 44)
      57:	63 1a e8 ff 00 00 00 00	*(u32 *)(r10 - 24) = r1
      58:	6b 7a e4 ff 00 00 00 00	*(u16 *)(r10 - 28) = r7
      59:	79 a1 c0 ff 00 00 00 00	r1 = *(u64 *)(r10 - 64)
      60:	63 1a e0 ff 00 00 00 00	*(u32 *)(r10 - 32) = r1
      61:	73 8a d9 ff 00 00 00 00	*(u8 *)(r10 - 39) = r8
      62:	b4 01 00 00 01 00 00 00	w1 = 1
      63:	6b 1a e6 ff 00 00 00 00	*(u16 *)(r10 - 26) = r1
      64:	73 1a d8 ff 00 00 00 00	*(u8 *)(r10 - 40) = r1
      65:	67 07 00 00 20 00 00 00	r7 <<= 32
      66:	18 01 00 00 ff ff ff ff 00 00 00 00 00 00 00 00	r1 = 4294967295 ll
      68:	4f 17 00 00 00 00 00 00	r7 |= r1
      69:	b4 08 00 00 00 00 00 00	w8 = 0
      70:	63 8a f4 ff 00 00 00 00	*(u32 *)(r10 - 12) = r8
      71:	63 8a dc ff 00 00 00 00	*(u32 *)(r10 - 36) = r8
      72:	6b 8a da ff 00 00 00 00	*(u16 *)(r10 - 38) = r8
      73:	bf a4 00 00 00 00 00 00	r4 = r10
      74:	07 04 00 00 d8 ff ff ff	r4 += -40
      75:	79 a1 c8 ff 00 00 00 00	r1 = *(u64 *)(r10 - 56)
      76:	18 02 00 00 00 00 00 00 00 00 00 00 00 00 00 00	r2 = 0 ll
      78:	bf 73 00 00 00 00 00 00	r3 = r7
      79:	b4 05 00 00 20 00 00 00	w5 = 32
      80:	85 00 00 00 19 00 00 00	call 25
      81:	63 8a fc ff 00 00 00 00	*(u32 *)(r10 - 4) = r8
      82:	bf a2 00 00 00 00 00 00	r2 = r10
      83:	07 02 00 00 fc ff ff ff	r2 += -4
      84:	18 01 00 00 00 00 00 00 00 00 00 00 00 00 00 00	r1 = 0 ll
      86:	85 00 00 00 01 00 00 00	call 1
      87:	15 00 01 00 00 00 00 00	if r0 == 0 goto +1 <LBB0_12>
      88:	61 08 10 00 00 00 00 00	r8 = *(u32 *)(r0 + 16)

00000000000002c8 <LBB0_12>:
      89:	bc 80 00 00 00 00 00 00	w0 = w8
      90:	95 00 00 00 00 00 00 00	exit

Disassembly of section 2/16:

0000000000000000 <tail_nodeport_nat_ipv6>:
       0:	bf 16 00 00 00 00 00 00	r6 = r1
       1:	b4 07 00 00 00 00 00 00	w7 = 0
       2:	63 7a f0 fe 00 00 00 00	*(u32 *)(r10 - 272) = r7
       3:	bf a2 00 00 00 00 00 00	r2 = r10
       4:	07 02 00 00 f0 fe ff ff	r2 += -272
       5:	18 01 00 00 00 00 00 00 00 00 00 00 00 00 00 00	r1 = 0 ll
       7:	85 00 00 00 01 00 00 00	call 1
       8:	b4 01 00 00 00 00 00 00	w1 = 0
       9:	15 00 01 00 00 00 00 00	if r0 == 0 goto +1 <LBB1_2>
      10:	61 01 0c 00 00 00 00 00	r1 = *(u32 *)(r0 + 12)

0000000000000058 <LBB1_2>:
      11:	63 1a ec fe 00 00 00 00	*(u32 *)(r10 - 276) = r1
      12:	b7 01 00 00 00 00 00 00	r1 = 0
      13:	7b 1a f8 fe 00 00 00 00	*(u64 *)(r10 - 264) = r1
      14:	b4 02 00 00 02 00 00 00	w2 = 2
      15:	63 2a f8 fe 00 00 00 00	*(u32 *)(r10 - 264) = r2
      16:	7b 1a f0 fe 00 00 00 00	*(u64 *)(r10 - 272) = r1
      17:	b4 02 00 00 0a 00 00 00	w2 = 10
      18:	73 2a f0 fe 00 00 00 00	*(u8 *)(r10 - 272) = r2
      19:	63 7a 30 ff 00 00 00 00	*(u32 *)(r10 - 208) = r7
      20:	7b 1a 28 ff 00 00 00 00	*(u64 *)(r10 - 216) = r1
      21:	7b 1a 20 ff 00 00 00 00	*(u64 *)(r10 - 224) = r1
      22:	7b 1a 18 ff 00 00 00 00	*(u64 *)(r10 - 232) = r1
      23:	7b 1a 10 ff 00 00 00 00	*(u64 *)(r10 - 240) = r1
      24:	7b 1a 08 ff 00 00 00 00	*(u64 *)(r10 - 248) = r1
      25:	7b 1a 00 ff 00 00 00 00	*(u64 *)(r10 - 256) = r1
      26:	6b 7a 5c ff 00 00 00 00	*(u16 *)(r10 - 164) = r7
      27:	63 7a 58 ff 00 00 00 00	*(u32 *)(r10 - 168) = r7
      28:	7b 1a 50 ff 00 00 00 00	*(u64 *)(r10 - 176) = r1
      29:	7b 1a 48 ff 00 00 00 00	*(u64 *)(r10 - 184) = r1
      30:	7b 1a 40 ff 00 00 00 00	*(u64 *)(r10 - 192) = r1
      31:	7b 1a 38 ff 00 00 00 00	*(u64 *)(r10 - 200) = r1
      32:	61 64 00 00 00 00 00 00	r4 = *(u32 *)(r6 + 0)
      33:	61 61 04 00 00 00 00 00	r1 = *(u32 *)(r6 + 4)
      34:	bf 42 00 00 00 00 00 00	r2 = r4
      35:	07 02 00 00 36 00 00 00	r2 += 54
      36:	b4 09 00 00 7a ff ff ff	w9 = -134
      37:	2d 12 7f 1e 00 00 00 00	if r2 > r1 goto +7807 <LBB1_848>
      38:	b4 01 00 00 28 00 00 00	w1 = 40
      39:	7b 1a e0 fe 00 00 00 00	*(u64 *)(r10 - 288) = r1
      40:	71 43 14 00 00 00 00 00	r3 = *(u8 *)(r4 + 20)
      41:	26 03 1a 00 3c 00 00 00	if w3 > 60 goto +26 <LBB1_37>
      42:	b7 01 00 00 01 00 00 00	r1 = 1
      43:	6f 31 00 00 00 00 00 00	r1 <<= r3
      44:	18 02 00 00 01 00 00 00 00 00 00 00 00 08 08 10	r2 = 1155182100513554433 ll
      46:	5f 21 00 00 00 00 00 00	r1 &= r2
      47:	55 01 04 00 00 00 00 00	if r1 != 0 goto +4 <LBB1_7>
      48:	15 03 75 01 2c 00 00 00	if r3 == 44 goto +373 <LBB1_15>
      49:	b4 09 00 00 64 ff ff ff	w9 = -156
      50:	15 03 72 1e 3b 00 00 00	if r3 == 59 goto +7794 <LBB1_848>
      51:	05 00 10 00 00 00 00 00	goto +16 <LBB1_37>

00000000000001a0 <LBB1_7>:
      52:	b7 03 00 00 36 00 00 00	r3 = 54
      53:	61 61 00 00 00 00 00 00	r1 = *(u32 *)(r6 + 0)
      54:	61 62 04 00 00 00 00 00	r2 = *(u32 *)(r6 + 4)
      55:	57 03 00 00 ff 00 00 00	r3 &= 255
      56:	0f 31 00 00 00 00 00 00	r1 += r3
      57:	bf 13 00 00 00 00 00 00	r3 = r1
      58:	07 01 00 00 02 00 00 00	r1 += 2
      59:	2d 21 02 00 00 00 00 00	if r1 > r2 goto +2 <LBB1_7+0x50>
      60:	b7 05 00 00 00 00 00 00	r5 = 0
      61:	05 00 01 00 00 00 00 00	goto +1 <LBB1_7+0x58>
      62:	b7 05 00 00 ea ff ff ff	r5 = -22
      63:	16 05 7f 00 00 00 00 00	if w5 == 0 goto +127 <LBB1_9>
      64:	b4 01 00 00 30 00 00 00	w1 = 48
      65:	7b 1a e0 fe 00 00 00 00	*(u64 *)(r10 - 288) = r1
      66:	b4 09 00 00 7a ff ff ff	w9 = -134
      67:	c6 05 61 1e 00 00 00 00	if w5 s< 0 goto +7777 <LBB1_848>

0000000000000220 <LBB1_37>:
      68:	bf 41 00 00 00 00 00 00	r1 = r4
      69:	07 01 00 00 0e 00 00 00	r1 += 14
      70:	73 3a 5c ff 00 00 00 00	*(u8 *)(r10 - 164) = r3
      71:	71 42 26 00 00 00 00 00	r2 = *(u8 *)(r4 + 38)
      72:	71 45 27 00 00 00 00 00	r5 = *(u8 *)(r4 + 39)
      73:	67 05 00 00 08 00 00 00	r5 <<= 8
      74:	4f 25 00 00 00 00 00 00	r5 |= r2
      75:	71 40 28 00 00 00 00 00	r0 = *(u8 *)(r4 + 40)
      76:	71 42 29 00 00 00 00 00	r2 = *(u8 *)(r4 + 41)
      77:	67 02 00 00 08 00 00 00	r2 <<= 8
      78:	4f 02 00 00 00 00 00 00	r2 |= r0
      79:	67 02 00 00 10 00 00 00	r2 <<= 16
      80:	4f 52 00 00 00 00 00 00	r2 |= r5
      81:	71 45 2a 00 00 00 00 00	r5 = *(u8 *)(r4 + 42)
      82:	71 40 2b 00 00 00 00 00	r0 = *(u8 *)(r4 + 43)
      83:	67 00 00 00 08 00 00 00	r0 <<= 8
      84:	4f 50 00 00 00 00 00 00	r0 |= r5
      85:	71 45 2c 00 00 00 00 00	r5 = *(u8 *)(r4 + 44)
      86:	71 47 2d 00 00 00 00 00	r7 = *(u8 *)(r4 + 45)
      87:	67 07 00 00 08 00 00 00	r7 <<= 8
      88:	4f 57 00 00 00 00 00 00	r7 |= r5
      89:	67 07 00 00 10 00 00 00	r7 <<= 16
      90:	4f 07 00 00 00 00 00 00	r7 |= r0
      91:	1c 41 00 00 00 00 00 00	w1 -= w4
      92:	67 07 00 00 20 00 00 00	r7 <<= 32
      93:	4f 27 00 00 00 00 00 00	r7 |= r2
      94:	79 a2 e0 fe 00 00 00 00	r2 = *(u64 *)(r10 - 288)
      95:	0c 12 00 00 00 00 00 00	w2 += w1
      96:	7b 2a e0 fe 00 00 00 00	*(u64 *)(r10 - 288) = r2
      97:	7b 7a 38 ff 00 00 00 00	*(u64 *)(r10 - 200) = r7
      98:	71 41 2e 00 00 00 00 00	r1 = *(u8 *)(r4 + 46)
      99:	71 42 2f 00 00 00 00 00	r2 = *(u8 *)(r4 + 47)
     100:	67 02 00 00 08 00 00 00	r2 <<= 8
     101:	4f 12 00 00 00 00 00 00	r2 |= r1
     102:	71 45 30 00 00 00 00 00	r5 = *(u8 *)(r4 + 48)
     103:	71 41 31 00 00 00 00 00	r1 = *(u8 *)(r4 + 49)
     104:	67 01 00 00 08 00 00 00	r1 <<= 8
     105:	4f 51 00 00 00 00 00 00	r1 |= r5
     106:	67 01 00 00 10 00 00 00	r1 <<= 16
     107:	4f 21 00 00 00 00 00 00	r1 |= r2
     108:	71 42 32 00 00 00 00 00	r2 = *(u8 *)(r4 + 50)
     109:	71 45 33 00 00 00 00 00	r5 = *(u8 *)(r4 + 51)
     110:	67 05 00 00 08 00 00 00	r5 <<= 8
     111:	4f 25 00 00 00 00 00 00	r5 |= r2
     112:	71 42 34 00 00 00 00 00	r2 = *(u8 *)(r4 + 52)
     113:	71 40 35 00 00 00 00 00	r0 = *(u8 *)(r4 + 53)
     114:	67 00 00 00 08 00 00 00	r0 <<= 8
     115:	4f 20 00 00 00 00 00 00	r0 |= r2
     116:	67 00 00 00 10 00 00 00	r0 <<= 16
     117:	4f 50 00 00 00 00 00 00	r0 |= r5
     118:	67 00 00 00 20 00 00 00	r0 <<= 32
     119:	4f 10 00 00 00 00 00 00	r0 |= r1
     120:	7b 0a 40 ff 00 00 00 00	*(u64 *)(r10 - 192) = r0
     121:	71 41 16 00 00 00 00 00	r1 = *(u8 *)(r4 + 22)
     122:	71 42 17 00 00 00 00 00	r2 = *(u8 *)(r4 + 23)
     123:	67 02 00 00 08 00 00 00	r2 <<= 8
     124:	4f 12 00 00 00 00 00 00	r2 |= r1
     125:	71 45 18 00 00 00 00 00	r5 = *(u8 *)(r4 + 24)
     126:	71 41 19 00 00 00 00 00	r1 = *(u8 *)(r4 + 25)
     127:	67 01 00 00 08 00 00 00	r1 <<= 8
     128:	4f 51 00 00 00 00 00 00	r1 |= r5
     129:	67 01 00 00 10 00 00 00	r1 <<= 16
     130:	4f 21 00 00 00 00 00 00	r1 |= r2
     131:	71 42 1a 00 00 00 00 00	r2 = *(u8 *)(r4 + 26)
     132:	71 45 1b 00 00 00 00 00	r5 = *(u8 *)(r4 + 27)
     133:	67 05 00 00 08 00 00 00	r5 <<= 8
     134:	4f 25 00 00 00 00 00 00	r5 |= r2
     135:	71 42 1c 00 00 00 00 00	r2 = *(u8 *)(r4 + 28)
     136:	71 40 1d 00 00 00 00 00	r0 = *(u8 *)(r4 + 29)
     137:	67 00 00 00 08 00 00 00	r0 <<= 8
     138:	4f 20 00 00 00 00 00 00	r0 |= r2
     139:	67 00 00 00 10 00 00 00	r0 <<= 16
     140:	4f 50 00 00 00 00 00 00	r0 |= r5
     141:	67 00 00 00 20 00 00 00	r0 <<= 32
     142:	4f 10 00 00 00 00 00 00	r0 |= r1
     143:	7b 0a 48 ff 00 00 00 00	*(u64 *)(r10 - 184) = r0
     144:	71 41 1e 00 00 00 00 00	r1 = *(u8 *)(r4 + 30)
     145:	71 42 1f 00 00 00 00 00	r2 = *(u8 *)(r4 + 31)
     146:	67 02 00 00 08 00 00 00	r2 <<= 8
     147:	4f 12 00 00 00 00 00 00	r2 |= r1
     148:	71 45 20 00 00 00 00 00	r5 = *(u8 *)(r4 + 32)
     149:	71 41 21 00 00 00 00 00	r1 = *(u8 *)(r4 + 33)
     150:	67 01 00 00 08 00 00 00	r1 <<= 8
     151:	4f 51 00 00 00 00 00 00	r1 |= r5
     152:	67 01 00 00 10 00 00 00	r1 <<= 16
     153:	4f 21 00 00 00 00 00 00	r1 |= r2
     154:	71 42 22 00 00 00 00 00	r2 = *(u8 *)(r4 + 34)
     155:	71 45 23 00 00 00 00 00	r5 = *(u8 *)(r4 + 35)
     156:	67 05 00 00 08 00 00 00	r5 <<= 8
     157:	4f 25 00 00 00 00 00 00	r5 |= r2
     158:	71 42 24 00 00 00 00 00	r2 = *(u8 *)(r4 + 36)
     159:	71 44 25 00 00 00 00 00	r4 = *(u8 *)(r4 + 37)
     160:	67 04 00 00 08 00 00 00	r4 <<= 8
     161:	4f 24 00 00 00 00 00 00	r4 |= r2
     162:	67 04 00 00 10 00 00 00	r4 <<= 16
     163:	4f 54 00 00 00 00 00 00	r4 |= r5
     164:	67 04 00 00 20 00 00 00	r4 <<= 32
     165:	4f 14 00 00 00 00 00 00	r4 |= r1
     166:	61 a1 ec fe 00 00 00 00	r1 = *(u32 *)(r10 - 276)
     167:	73 1a 5d ff 00 00 00 00	*(u8 *)(r10 - 163) = r1
     168:	7b 4a 50 ff 00 00 00 00	*(u64 *)(r10 - 176) = r4
     169:	54 03 00 00 ff 00 00 00	w3 &= 255
     170:	16 03 03 00 06 00 00 00	if w3 == 6 goto +3 <LBB1_40>
     171:	16 03 48 00 3a 00 00 00	if w3 == 58 goto +72 <LBB1_43>
     172:	b4 09 00 00 53 ff ff ff	w9 = -173
     173:	56 03 f7 1d 11 00 00 00	if w3 != 17 goto +7671 <LBB1_848>

0000000000000570 <LBB1_40>:
     174:	79 a3 e0 fe 00 00 00 00	r3 = *(u64 *)(r10 - 288)
     175:	61 61 00 00 00 00 00 00	r1 = *(u32 *)(r6 + 0)
     176:	61 62 04 00 00 00 00 00	r2 = *(u32 *)(r6 + 4)
     177:	57 03 00 00 ff 00 00 00	r3 &= 255
     178:	0f 31 00 00 00 00 00 00	r1 += r3
     179:	bf 15 00 00 00 00 00 00	r5 = r1
     180:	07 01 00 00 04 00 00 00	r1 += 4
     181:	2d 21 02 00 00 00 00 00	if r1 > r2 goto +2 <LBB1_40+0x50>
     182:	b7 04 00 00 00 00 00 00	r4 = 0
     183:	05 00 01 00 00 00 00 00	goto +1 <LBB1_40+0x58>
     184:	b7 04 00 00 ea ff ff ff	r4 = -22
     185:	56 04 1f 00 00 00 00 00	if w4 != 0 goto +31 <LBB1_42>
     186:	b4 03 00 00 00 00 00 00	w3 = 0
     187:	61 51 00 00 00 00 00 00	r1 = *(u32 *)(r5 + 0)
     188:	bc 12 00 00 00 00 00 00	w2 = w1
     189:	74 02 00 00 10 00 00 00	w2 >>= 16
     190:	05 00 1d 00 00 00 00 00	goto +29 <LBB1_50>

00000000000005f8 <LBB1_9>:
     191:	69 33 00 00 00 00 00 00	r3 = *(u16 *)(r3 + 0)
     192:	bc 31 00 00 00 00 00 00	w1 = w3
     193:	54 01 00 00 ff 00 00 00	w1 &= 255
     194:	b4 02 00 00 02 00 00 00	w2 = 2
     195:	16 01 01 00 33 00 00 00	if w1 == 51 goto +1 <LBB1_11>
     196:	b4 02 00 00 03 00 00 00	w2 = 3

0000000000000628 <LBB1_11>:
     197:	bc 30 00 00 00 00 00 00	w0 = w3
     198:	74 00 00 00 08 00 00 00	w0 >>= 8
     199:	bc 05 00 00 00 00 00 00	w5 = w0
     200:	6c 25 00 00 00 00 00 00	w5 <<= w2
     201:	bc 52 00 00 00 00 00 00	w2 = w5
     202:	04 02 00 00 30 00 00 00	w2 += 48
     203:	7b 2a e0 fe 00 00 00 00	*(u64 *)(r10 - 288) = r2
     204:	26 01 77 ff 3c 00 00 00	if w1 > 60 goto -137 <LBB1_37>
     205:	bf 31 00 00 00 00 00 00	r1 = r3
     206:	57 01 00 00 ff 00 00 00	r1 &= 255
     207:	b7 02 00 00 01 00 00 00	r2 = 1
     208:	6f 12 00 00 00 00 00 00	r2 <<= r1
     209:	18 07 00 00 01 00 00 00 00 00 00 00 00 08 08 10	r7 = 1155182100513554433 ll
     211:	5f 72 00 00 00 00 00 00	r2 &= r7
     212:	55 02 0f 00 00 00 00 00	if r2 != 0 goto +15 <LBB1_16>
     213:	15 01 d0 00 2c 00 00 00	if r1 == 44 goto +208 <LBB1_15>
     214:	b4 09 00 00 64 ff ff ff	w9 = -156
     215:	15 01 cd 1d 3b 00 00 00	if r1 == 59 goto +7629 <LBB1_848>
     216:	05 00 6b ff 00 00 00 00	goto -149 <LBB1_37>

00000000000006c8 <LBB1_42>:
     217:	b4 03 00 00 00 00 00 00	w3 = 0
     218:	b4 09 00 00 7a ff ff ff	w9 = -134
     219:	c6 04 c9 1d 00 00 00 00	if w4 s< 0 goto +7625 <LBB1_848>

00000000000006e0 <LBB1_50>:
     220:	6b 1a 5a ff 00 00 00 00	*(u16 *)(r10 - 166) = r1
     221:	6b 2a 58 ff 00 00 00 00	*(u16 *)(r10 - 168) = r2
     222:	61 a1 ec fe 00 00 00 00	r1 = *(u32 *)(r10 - 276)
     223:	16 01 23 00 01 00 00 00	if w1 == 1 goto +35 <LBB1_53>
     224:	56 01 25 00 00 00 00 00	if w1 != 0 goto +37 <LBB1_54>
     225:	b4 09 00 00 53 ff ff ff	w9 = -173
     226:	56 03 c2 1d 00 00 00 00	if w3 != 0 goto +7618 <LBB1_848>
     227:	05 00 22 00 00 00 00 00	goto +34 <LBB1_54>

0000000000000720 <LBB1_16>:
     228:	bc 57 00 00 00 00 00 00	w7 = w5
     229:	04 07 00 00 3e 00 00 00	w7 += 62
     230:	61 61 00 00 00 00 00 00	r1 = *(u32 *)(r6 + 0)
     231:	61 62 04 00 00 00 00 00	r2 = *(u32 *)(r6 + 4)
     232:	57 07 00 00 ff 00 00 00	r7 &= 255
     233:	0f 71 00 00 00 00 00 00	r1 += r7
     234:	bf 18 00 00 00 00 00 00	r8 = r1
     235:	07 01 00 00 02 00 00 00	r1 += 2
     236:	2d 21 02 00 00 00 00 00	if r1 > r2 goto +2 <LBB1_16+0x58>
     237:	b7 07 00 00 00 00 00 00	r7 = 0
     238:	05 00 01 00 00 00 00 00	goto +1 <LBB1_16+0x60>
     239:	b7 07 00 00 ea ff ff ff	r7 = -22
     240:	16 07 21 00 00 00 00 00	if w7 == 0 goto +33 <LBB1_18>
     241:	b4 09 00 00 7a ff ff ff	w9 = -134
     242:	c6 07 b2 1d 00 00 00 00	if w7 s< 0 goto +7602 <LBB1_848>
     243:	05 00 21 00 00 00 00 00	goto +33 <LBB1_19>

00000000000007a0 <LBB1_43>:
     244:	79 a3 e0 fe 00 00 00 00	r3 = *(u64 *)(r10 - 288)
     245:	61 61 00 00 00 00 00 00	r1 = *(u32 *)(r6 + 0)
     246:	61 62 04 00 00 00 00 00	r2 = *(u32 *)(r6 + 4)
     247:	57 03 00 00 ff 00 00 00	r3 &= 255
     248:	0f 31 00 00 00 00 00 00	r1 += r3
     249:	bf 14 00 00 00 00 00 00	r4 = r1
     250:	07 01 00 00 08 00 00 00	r1 += 8
     251:	2d 21 02 00 00 00 00 00	if r1 > r2 goto +2 <LBB1_43+0x50>
     252:	b7 03 00 00 00 00 00 00	r3 = 0
     253:	05 00 01 00 00 00 00 00	goto +1 <LBB1_43+0x58>
     254:	b7 03 00 00 ea ff ff ff	r3 = -22
     255:	16 03 7e 00 00 00 00 00	if w3 == 0 goto +126 <LBB1_45>
     256:	b4 09 00 00 7a ff ff ff	w9 = -134
     257:	c6 03 a3 1d 00 00 00 00	if w3 s< 0 goto +7587 <LBB1_848>
     258:	05 00 86 00 00 00 00 00	goto +134 <LBB1_48>

0000000000000818 <LBB1_53>:
     259:	54 02 00 00 80 00 00 00	w2 &= 128
     260:	b4 09 00 00 53 ff ff ff	w9 = -173
     261:	16 02 9f 1d 00 00 00 00	if w2 == 0 goto +7583 <LBB1_848>

0000000000000830 <LBB1_54>:
     262:	bf a7 00 00 00 00 00 00	r7 = r10
     263:	07 07 00 00 48 ff ff ff	r7 += -184
     264:	bf a2 00 00 00 00 00 00	r2 = r10
     265:	07 02 00 00 38 ff ff ff	r2 += -200
     266:	18 01 00 00 00 00 00 00 00 00 00 00 00 00 00 00	r1 = 0 ll
     268:	85 00 00 00 01 00 00 00	call 1
     269:	bf 08 00 00 00 00 00 00	r8 = r0
     270:	15 08 32 00 00 00 00 00	if r8 == 0 goto +50 <LBB1_58>
     271:	79 81 08 00 00 00 00 00	r1 = *(u64 *)(r8 + 8)
     272:	55 01 2d 00 00 00 00 00	if r1 != 0 goto +45 <LBB1_57>
     273:	05 00 6e 1b 00 00 00 00	goto +7022 <LBB1_732>

0000000000000890 <LBB1_18>:
     274:	69 83 00 00 00 00 00 00	r3 = *(u16 *)(r8 + 0)
     275:	bc 30 00 00 00 00 00 00	w0 = w3
     276:	74 00 00 00 08 00 00 00	w0 >>= 8

00000000000008a8 <LBB1_19>:
     277:	bc 31 00 00 00 00 00 00	w1 = w3
     278:	54 01 00 00 ff 00 00 00	w1 &= 255
     279:	b4 02 00 00 02 00 00 00	w2 = 2
     280:	16 01 01 00 33 00 00 00	if w1 == 51 goto +1 <LBB1_21>
     281:	b4 02 00 00 03 00 00 00	w2 = 3

00000000000008d0 <LBB1_21>:
     282:	bc 07 00 00 00 00 00 00	w7 = w0
     283:	6c 27 00 00 00 00 00 00	w7 <<= w2
     284:	0c 75 00 00 00 00 00 00	w5 += w7
     285:	04 05 00 00 38 00 00 00	w5 += 56
     286:	bc 52 00 00 00 00 00 00	w2 = w5
     287:	7b 2a e0 fe 00 00 00 00	*(u64 *)(r10 - 288) = r2
     288:	26 01 23 ff 3c 00 00 00	if w1 > 60 goto -221 <LBB1_37>
     289:	bf 31 00 00 00 00 00 00	r1 = r3
     290:	57 01 00 00 ff 00 00 00	r1 &= 255
     291:	b7 02 00 00 01 00 00 00	r2 = 1
     292:	6f 12 00 00 00 00 00 00	r2 <<= r1
     293:	18 07 00 00 01 00 00 00 00 00 00 00 00 08 08 10	r7 = 1155182100513554433 ll
     295:	5f 72 00 00 00 00 00 00	r2 &= r7
     296:	55 02 05 00 00 00 00 00	if r2 != 0 goto +5 <LBB1_25>
     297:	15 01 7c 00 2c 00 00 00	if r1 == 44 goto +124 <LBB1_15>
     298:	7b 5a e0 fe 00 00 00 00	*(u64 *)(r10 - 288) = r5
     299:	b4 09 00 00 64 ff ff ff	w9 = -156
     300:	15 01 78 1d 3b 00 00 00	if r1 == 59 goto +7544 <LBB1_848>
     301:	05 00 16 ff 00 00 00 00	goto -234 <LBB1_37>

0000000000000970 <LBB1_25>:
     302:	bc 57 00 00 00 00 00 00	w7 = w5
     303:	04 07 00 00 0e 00 00 00	w7 += 14
     304:	61 61 00 00 00 00 00 00	r1 = *(u32 *)(r6 + 0)
     305:	61 62 04 00 00 00 00 00	r2 = *(u32 *)(r6 + 4)
     306:	57 07 00 00 ff 00 00 00	r7 &= 255
     307:	0f 71 00 00 00 00 00 00	r1 += r7
     308:	bf 18 00 00 00 00 00 00	r8 = r1
     309:	07 01 00 00 02 00 00 00	r1 += 2
     310:	2d 21 02 00 00 00 00 00	if r1 > r2 goto +2 <LBB1_25+0x58>
     311:	b7 07 00 00 00 00 00 00	r7 = 0
     312:	05 00 01 00 00 00 00 00	goto +1 <LBB1_25+0x60>
     313:	b7 07 00 00 ea ff ff ff	r7 = -22
     314:	16 07 50 00 00 00 00 00	if w7 == 0 goto +80 <LBB1_27>
     315:	b4 09 00 00 7a ff ff ff	w9 = -134
     316:	c6 07 68 1d 00 00 00 00	if w7 s< 0 goto +7528 <LBB1_848>
     317:	05 00 50 00 00 00 00 00	goto +80 <LBB1_28>

00000000000009f0 <LBB1_57>:
     318:	79 a1 48 ff 00 00 00 00	r1 = *(u64 *)(r10 - 184)
     319:	79 a2 50 ff 00 00 00 00	r2 = *(u64 *)(r10 - 176)
     320:	05 00 0c 00 00 00 00 00	goto +12 <LBB1_61>

0000000000000a08 <LBB1_58>:
     321:	61 a1 ec fe 00 00 00 00	r1 = *(u32 *)(r10 - 276)
     322:	56 01 da 02 00 00 00 00	if w1 != 0 goto +730 <LBB1_204>
     323:	18 01 00 00 20 01 48 98 00 00 00 00 00 30 00 21	r1 = 2377953382364610848 ll
     325:	79 a2 48 ff 00 00 00 00	r2 = *(u64 *)(r10 - 184)
     326:	5d 12 d6 02 00 00 00 00	if r2 != r1 goto +726 <LBB1_204>
     327:	79 a3 50 ff 00 00 00 00	r3 = *(u64 *)(r10 - 176)
     328:	18 02 00 00 03 32 9f 55 00 00 00 00 67 47 a8 f8	r2 = -529094447072333309 ll
     330:	18 04 00 00 03 32 9f 55 00 00 00 00 67 47 a8 f8	r4 = -529094447072333309 ll
     332:	5d 43 d0 02 00 00 00 00	if r3 != r4 goto +720 <LBB1_204>

0000000000000a68 <LBB1_61>:
     333:	b4 03 00 00 01 00 00 00	w3 = 1
     334:	61 a4 ec fe 00 00 00 00	r4 = *(u32 *)(r10 - 276)
     335:	56 04 01 00 01 00 00 00	if w4 != 1 goto +1 <LBB1_63>
     336:	b4 03 00 00 00 00 00 00	w3 = 0

0000000000000a88 <LBB1_63>:
     337:	61 a4 58 ff 00 00 00 00	r4 = *(u32 *)(r10 - 168)
     338:	63 4a b8 ff 00 00 00 00	*(u32 *)(r10 - 72) = r4
     339:	7b 2a b0 ff 00 00 00 00	*(u64 *)(r10 - 80) = r2
     340:	7b 1a a8 ff 00 00 00 00	*(u64 *)(r10 - 88) = r1
     341:	79 a1 40 ff 00 00 00 00	r1 = *(u64 *)(r10 - 192)
     342:	7b 1a a0 ff 00 00 00 00	*(u64 *)(r10 - 96) = r1
     343:	79 a1 38 ff 00 00 00 00	r1 = *(u64 *)(r10 - 200)
     344:	7b 1a 98 ff 00 00 00 00	*(u64 *)(r10 - 104) = r1
     345:	69 a2 5c ff 00 00 00 00	r2 = *(u16 *)(r10 - 164)
     346:	bc 21 00 00 00 00 00 00	w1 = w2
     347:	54 01 00 00 ff 00 00 00	w1 &= 255
     348:	18 04 00 00 00 00 00 00 00 00 00 00 00 00 00 00	r4 = 0 ll
     350:	16 01 02 00 06 00 00 00	if w1 == 6 goto +2 <LBB1_65>
     351:	18 04 00 00 00 00 00 00 00 00 00 00 00 00 00 00	r4 = 0 ll

0000000000000b08 <LBB1_65>:
     353:	6b 2a bc ff 00 00 00 00	*(u16 *)(r10 - 68) = r2
     354:	73 3a bd ff 00 00 00 00	*(u8 *)(r10 - 67) = r3
     355:	63 2a c8 fe 00 00 00 00	*(u32 *)(r10 - 312) = r2
     356:	7b 4a d8 fe 00 00 00 00	*(u64 *)(r10 - 296) = r4
     357:	16 01 53 00 06 00 00 00	if w1 == 6 goto +83 <LBB1_82>
     358:	16 01 64 00 11 00 00 00	if w1 == 17 goto +100 <LBB1_90>
     359:	b4 09 00 00 77 ff ff ff	w9 = -137
     360:	56 01 37 02 3a 00 00 00	if w1 != 58 goto +567 <LBB1_200>
     361:	79 a1 e0 fe 00 00 00 00	r1 = *(u64 *)(r10 - 288)
     362:	bc 15 00 00 00 00 00 00	w5 = w1
     363:	67 05 00 00 20 00 00 00	r5 <<= 32
     364:	c7 05 00 00 20 00 00 00	r5 s>>= 32
     365:	61 61 00 00 00 00 00 00	r1 = *(u32 *)(r6 + 0)
     366:	61 62 04 00 00 00 00 00	r2 = *(u32 *)(r6 + 4)
     367:	57 05 00 00 ff 00 00 00	r5 &= 255
     368:	0f 51 00 00 00 00 00 00	r1 += r5
     369:	bf 10 00 00 00 00 00 00	r0 = r1
     370:	07 01 00 00 01 00 00 00	r1 += 1
     371:	2d 21 02 00 00 00 00 00	if r1 > r2 goto +2 <LBB1_65+0xa8>
     372:	b7 04 00 00 00 00 00 00	r4 = 0
     373:	05 00 01 00 00 00 00 00	goto +1 <LBB1_65+0xb0>
     374:	b7 04 00 00 ea ff ff ff	r4 = -22
     375:	16 04 8e 00 00 00 00 00	if w4 == 0 goto +142 <LBB1_72>
     376:	b4 09 00 00 79 ff ff ff	w9 = -135
     377:	c6 04 26 02 00 00 00 00	if w4 s< 0 goto +550 <LBB1_200>
     378:	b4 01 00 00 00 00 00 00	w1 = 0
     379:	63 1a b8 ff 00 00 00 00	*(u32 *)(r10 - 72) = r1

0000000000000be0 <LBB1_71>:
     380:	6b 1a ba ff 00 00 00 00	*(u16 *)(r10 - 70) = r1
     381:	05 00 ad 00 00 00 00 00	goto +173 <LBB1_80>

0000000000000bf0 <LBB1_45>:
     382:	79 41 00 00 00 00 00 00	r1 = *(u64 *)(r4 + 0)
     383:	bc 14 00 00 00 00 00 00	w4 = w1
     384:	54 04 00 00 ff 00 00 00	w4 &= 255
     385:	bc 42 00 00 00 00 00 00	w2 = w4
     386:	04 02 00 00 79 ff ff ff	w2 += -135
     387:	a6 02 a3 1c 02 00 00 00	if w2 < 2 goto +7331 <LBB1_846>
     388:	b4 02 00 00 00 00 00 00	w2 = 0
     389:	77 01 00 00 20 00 00 00	r1 >>= 32
     390:	b4 03 00 00 00 00 00 00	w3 = 0
     391:	16 04 54 ff 80 00 00 00	if w4 == 128 goto -172 <LBB1_50>
     392:	16 04 74 00 81 00 00 00	if w4 == 129 goto +116 <LBB1_49>

0000000000000c48 <LBB1_48>:
     393:	b4 09 00 00 58 ff ff ff	w9 = -168
     394:	05 00 1a 1d 00 00 00 00	goto +7450 <LBB1_848>

0000000000000c58 <LBB1_27>:
     395:	69 83 00 00 00 00 00 00	r3 = *(u16 *)(r8 + 0)
     396:	bc 30 00 00 00 00 00 00	w0 = w3
     397:	74 00 00 00 08 00 00 00	w0 >>= 8

0000000000000c70 <LBB1_28>:
     398:	bc 31 00 00 00 00 00 00	w1 = w3
     399:	54 01 00 00 ff 00 00 00	w1 &= 255
     400:	b4 02 00 00 02 00 00 00	w2 = 2
     401:	16 01 01 00 33 00 00 00	if w1 == 51 goto +1 <LBB1_30>
     402:	b4 02 00 00 03 00 00 00	w2 = 3

0000000000000c98 <LBB1_30>:
     403:	6c 20 00 00 00 00 00 00	w0 <<= w2
     404:	0c 05 00 00 00 00 00 00	w5 += w0
     405:	04 05 00 00 08 00 00 00	w5 += 8
     406:	bc 52 00 00 00 00 00 00	w2 = w5
     407:	7b 2a e0 fe 00 00 00 00	*(u64 *)(r10 - 288) = r2
     408:	26 01 ab fe 3c 00 00 00	if w1 > 60 goto -341 <LBB1_37>
     409:	bf 31 00 00 00 00 00 00	r1 = r3
     410:	57 01 00 00 ff 00 00 00	r1 &= 255
     411:	b7 02 00 00 01 00 00 00	r2 = 1
     412:	6f 12 00 00 00 00 00 00	r2 <<= r1
     413:	18 00 00 00 01 00 00 00 00 00 00 00 00 08 08 10	r0 = 1155182100513554433 ll
     415:	5f 02 00 00 00 00 00 00	r2 &= r0
     416:	55 02 07 00 00 00 00 00	if r2 != 0 goto +7 <LBB1_34>
     417:	15 01 04 00 2c 00 00 00	if r1 == 44 goto +4 <LBB1_15>
     418:	7b 5a e0 fe 00 00 00 00	*(u64 *)(r10 - 288) = r5
     419:	b4 09 00 00 64 ff ff ff	w9 = -156
     420:	15 01 00 1d 3b 00 00 00	if r1 == 59 goto +7424 <LBB1_848>
     421:	05 00 9e fe 00 00 00 00	goto -354 <LBB1_37>

0000000000000d30 <LBB1_15>:
     422:	b4 09 00 00 63 ff ff ff	w9 = -157
     423:	05 00 fd 1c 00 00 00 00	goto +7421 <LBB1_848>

0000000000000d40 <LBB1_34>:
     424:	04 05 00 00 0e 00 00 00	w5 += 14
     425:	61 61 00 00 00 00 00 00	r1 = *(u32 *)(r6 + 0)
     426:	61 62 04 00 00 00 00 00	r2 = *(u32 *)(r6 + 4)
     427:	57 05 00 00 ff 00 00 00	r5 &= 255
     428:	0f 51 00 00 00 00 00 00	r1 += r5
     429:	bf 14 00 00 00 00 00 00	r4 = r1
     430:	07 01 00 00 02 00 00 00	r1 += 2
     431:	2d 21 02 00 00 00 00 00	if r1 > r2 goto +2 <LBB1_34+0x50>
     432:	b7 03 00 00 00 00 00 00	r3 = 0
     433:	05 00 01 00 00 00 00 00	goto +1 <LBB1_34+0x58>
     434:	b7 03 00 00 ea ff ff ff	r3 = -22
     435:	b4 09 00 00 7a ff ff ff	w9 = -134
     436:	c6 03 01 00 00 00 00 00	if w3 s< 0 goto +1 <LBB1_36>
     437:	b4 09 00 00 64 ff ff ff	w9 = -156

0000000000000db0 <LBB1_36>:
     438:	61 a4 ec fe 00 00 00 00	r4 = *(u32 *)(r10 - 276)
     439:	56 04 72 02 01 00 00 00	if w4 != 1 goto +626 <LBB1_852>
     440:	05 00 ee 1c 00 00 00 00	goto +7406 <LBB1_849>

0000000000000dc8 <LBB1_82>:
     441:	79 a1 e0 fe 00 00 00 00	r1 = *(u64 *)(r10 - 288)
     442:	04 01 00 00 0c 00 00 00	w1 += 12
     443:	bc 13 00 00 00 00 00 00	w3 = w1
     444:	67 03 00 00 20 00 00 00	r3 <<= 32
     445:	c7 03 00 00 20 00 00 00	r3 s>>= 32
     446:	61 61 00 00 00 00 00 00	r1 = *(u32 *)(r6 + 0)
     447:	61 62 04 00 00 00 00 00	r2 = *(u32 *)(r6 + 4)
     448:	57 03 00 00 ff 00 00 00	r3 &= 255
     449:	0f 31 00 00 00 00 00 00	r1 += r3
     450:	bf 14 00 00 00 00 00 00	r4 = r1
     451:	07 01 00 00 02 00 00 00	r1 += 2
     452:	2d 21 02 00 00 00 00 00	if r1 > r2 goto +2 <LBB1_82+0x70>
     453:	b7 03 00 00 00 00 00 00	r3 = 0
     454:	05 00 01 00 00 00 00 00	goto +1 <LBB1_82+0x78>
     455:	b7 03 00 00 ea ff ff ff	r3 = -22
     456:	56 03 17 00 00 00 00 00	if w3 != 0 goto +23 <LBB1_84>
     457:	69 40 00 00 00 00 00 00	r0 = *(u16 *)(r4 + 0)
     458:	05 00 18 00 00 00 00 00	goto +24 <LBB1_85>

0000000000000e58 <LBB1_90>:
     459:	79 a1 e0 fe 00 00 00 00	r1 = *(u64 *)(r10 - 288)
     460:	bc 13 00 00 00 00 00 00	w3 = w1
     461:	67 03 00 00 20 00 00 00	r3 <<= 32
     462:	c7 03 00 00 20 00 00 00	r3 s>>= 32
     463:	61 61 00 00 00 00 00 00	r1 = *(u32 *)(r6 + 0)
     464:	61 62 04 00 00 00 00 00	r2 = *(u32 *)(r6 + 4)
     465:	57 03 00 00 ff 00 00 00	r3 &= 255
     466:	0f 31 00 00 00 00 00 00	r1 += r3
     467:	bf 14 00 00 00 00 00 00	r4 = r1
     468:	07 01 00 00 04 00 00 00	r1 += 4
     469:	2d 21 02 00 00 00 00 00	if r1 > r2 goto +2 <LBB1_90+0x68>
     470:	b7 03 00 00 00 00 00 00	r3 = 0
     471:	05 00 01 00 00 00 00 00	goto +1 <LBB1_90+0x70>
     472:	b7 03 00 00 ea ff ff ff	r3 = -22
     473:	56 03 57 00 00 00 00 00	if w3 != 0 goto +87 <LBB1_92>
     474:	61 41 00 00 00 00 00 00	r1 = *(u32 *)(r4 + 0)
     475:	63 1a b8 ff 00 00 00 00	*(u32 *)(r10 - 72) = r1
     476:	b4 01 00 00 01 00 00 00	w1 = 1
     477:	63 1a c4 fe 00 00 00 00	*(u32 *)(r10 - 316) = r1
     478:	b4 00 00 00 00 00 00 00	w0 = 0
     479:	05 00 56 00 00 00 00 00	goto +86 <LBB1_93>

0000000000000f00 <LBB1_84>:
     480:	b4 00 00 00 00 00 00 00	w0 = 0
     481:	b4 09 00 00 79 ff ff ff	w9 = -135
     482:	c6 03 bd 01 00 00 00 00	if w3 s< 0 goto +445 <LBB1_200>

0000000000000f18 <LBB1_85>:
     483:	bc 01 00 00 00 00 00 00	w1 = w0
     484:	54 01 00 00 00 05 00 00	w1 &= 1280
     485:	b4 02 00 00 01 00 00 00	w2 = 1
     486:	16 01 01 00 00 00 00 00	if w1 == 0 goto +1 <LBB1_87>
     487:	b4 02 00 00 02 00 00 00	w2 = 2

0000000000000f40 <LBB1_87>:
     488:	63 2a c4 fe 00 00 00 00	*(u32 *)(r10 - 316) = r2
     489:	79 a1 e0 fe 00 00 00 00	r1 = *(u64 *)(r10 - 288)
     490:	bc 13 00 00 00 00 00 00	w3 = w1
     491:	67 03 00 00 20 00 00 00	r3 <<= 32
     492:	c7 03 00 00 20 00 00 00	r3 s>>= 32
     493:	61 61 00 00 00 00 00 00	r1 = *(u32 *)(r6 + 0)
     494:	61 62 04 00 00 00 00 00	r2 = *(u32 *)(r6 + 4)
     495:	57 03 00 00 ff 00 00 00	r3 &= 255
     496:	0f 31 00 00 00 00 00 00	r1 += r3
     497:	bf 14 00 00 00 00 00 00	r4 = r1
     498:	07 01 00 00 04 00 00 00	r1 += 4
     499:	2d 21 02 00 00 00 00 00	if r1 > r2 goto +2 <LBB1_87+0x70>
     500:	b7 03 00 00 00 00 00 00	r3 = 0
     501:	05 00 01 00 00 00 00 00	goto +1 <LBB1_87+0x78>
     502:	b7 03 00 00 ea ff ff ff	r3 = -22
     503:	56 03 09 00 00 00 00 00	if w3 != 0 goto +9 <LBB1_89>
     504:	61 41 00 00 00 00 00 00	r1 = *(u32 *)(r4 + 0)
     505:	63 1a b8 ff 00 00 00 00	*(u32 *)(r10 - 72) = r1
     506:	54 00 00 00 00 ff 00 00	w0 &= 65280
     507:	74 00 00 00 08 00 00 00	w0 >>= 8
     508:	05 00 39 00 00 00 00 00	goto +57 <LBB1_93>

0000000000000fe8 <LBB1_49>:
     509:	b4 03 00 00 01 00 00 00	w3 = 1
     510:	bc 12 00 00 00 00 00 00	w2 = w1
     511:	b4 01 00 00 00 00 00 00	w1 = 0
     512:	05 00 db fe 00 00 00 00	goto -293 <LBB1_50>

0000000000001008 <LBB1_89>:
     513:	b4 09 00 00 79 ff ff ff	w9 = -135
     514:	54 00 00 00 00 ff 00 00	w0 &= 65280
     515:	74 00 00 00 08 00 00 00	w0 >>= 8
     516:	c6 03 9b 01 00 00 00 00	if w3 s< 0 goto +411 <LBB1_200>
     517:	05 00 30 00 00 00 00 00	goto +48 <LBB1_93>

0000000000001030 <LBB1_72>:
     518:	71 04 00 00 00 00 00 00	r4 = *(u8 *)(r0 + 0)
     519:	b4 00 00 00 00 00 00 00	w0 = 0
     520:	bc 42 00 00 00 00 00 00	w2 = w4
     521:	64 02 00 00 18 00 00 00	w2 <<= 24
     522:	c4 02 00 00 18 00 00 00	w2 s>>= 24
     523:	b4 01 00 00 00 00 00 00	w1 = 0
     524:	66 02 13 00 81 ff ff ff	if w2 s> -127 goto +19 <LBB1_76>
     525:	07 05 00 00 04 00 00 00	r5 += 4
     526:	61 61 00 00 00 00 00 00	r1 = *(u32 *)(r6 + 0)
     527:	61 62 04 00 00 00 00 00	r2 = *(u32 *)(r6 + 4)
     528:	57 05 00 00 ff 00 00 00	r5 &= 255
     529:	0f 51 00 00 00 00 00 00	r1 += r5
     530:	bf 10 00 00 00 00 00 00	r0 = r1
     531:	07 01 00 00 02 00 00 00	r1 += 2
     532:	2d 21 02 00 00 00 00 00	if r1 > r2 goto +2 <LBB1_72+0x88>
     533:	b7 05 00 00 00 00 00 00	r5 = 0
     534:	05 00 01 00 00 00 00 00	goto +1 <LBB1_72+0x90>
     535:	b7 05 00 00 ea ff ff ff	r5 = -22
     536:	56 05 03 00 00 00 00 00	if w5 != 0 goto +3 <LBB1_75>
     537:	69 01 00 00 00 00 00 00	r1 = *(u16 *)(r0 + 0)
     538:	b4 00 00 00 00 00 00 00	w0 = 0
     539:	05 00 04 00 00 00 00 00	goto +4 <LBB1_76>

00000000000010e0 <LBB1_75>:
     540:	b4 09 00 00 79 ff ff ff	w9 = -135
     541:	b4 01 00 00 00 00 00 00	w1 = 0
     542:	b4 00 00 00 00 00 00 00	w0 = 0
     543:	c6 05 80 01 00 00 00 00	if w5 s< 0 goto +384 <LBB1_200>

0000000000001100 <LBB1_76>:
     544:	63 0a b8 ff 00 00 00 00	*(u32 *)(r10 - 72) = r0
     545:	bc 42 00 00 00 00 00 00	w2 = w4
     546:	04 02 00 00 ff ff ff ff	w2 += -1
     547:	a6 02 05 00 04 00 00 00	if w2 < 4 goto +5 <LBB1_79>
     548:	b4 02 00 00 01 00 00 00	w2 = 1
     549:	63 2a c4 fe 00 00 00 00	*(u32 *)(r10 - 316) = r2
     550:	16 04 08 00 80 00 00 00	if w4 == 128 goto +8 <LBB1_81>
     551:	16 04 54 ff 81 00 00 00	if w4 == 129 goto -172 <LBB1_71>
     552:	05 00 0d 00 00 00 00 00	goto +13 <LBB1_93>

0000000000001148 <LBB1_79>:
     553:	44 03 00 00 02 00 00 00	w3 |= 2
     554:	73 3a bd ff 00 00 00 00	*(u8 *)(r10 - 67) = r3

0000000000001158 <LBB1_80>:
     555:	b4 00 00 00 00 00 00 00	w0 = 0
     556:	b4 01 00 00 00 00 00 00	w1 = 0
     557:	63 1a c4 fe 00 00 00 00	*(u32 *)(r10 - 316) = r1
     558:	05 00 07 00 00 00 00 00	goto +7 <LBB1_93>

0000000000001178 <LBB1_81>:
     559:	6b 1a b8 ff 00 00 00 00	*(u16 *)(r10 - 72) = r1
     560:	05 00 05 00 00 00 00 00	goto +5 <LBB1_93>

0000000000001188 <LBB1_92>:
     561:	b4 01 00 00 01 00 00 00	w1 = 1
     562:	63 1a c4 fe 00 00 00 00	*(u32 *)(r10 - 316) = r1
     563:	b4 00 00 00 00 00 00 00	w0 = 0
     564:	b4 09 00 00 79 ff ff ff	w9 = -135
     565:	c6 03 6a 01 00 00 00 00	if w3 s< 0 goto +362 <LBB1_200>

00000000000011b0 <LBB1_93>:
     566:	63 0a d0 fe 00 00 00 00	*(u32 *)(r10 - 304) = r0
     567:	7b 7a b8 fe 00 00 00 00	*(u64 *)(r10 - 328) = r7
     568:	bf a2 00 00 00 00 00 00	r2 = r10
     569:	07 02 00 00 98 ff ff ff	r2 += -104
     570:	79 a9 d8 fe 00 00 00 00	r9 = *(u64 *)(r10 - 296)
     571:	bf 91 00 00 00 00 00 00	r1 = r9
     572:	85 00 00 00 01 00 00 00	call 1
     573:	bf 07 00 00 00 00 00 00	r7 = r0
     574:	15 07 23 00 00 00 00 00	if r7 == 0 goto +35 <LBB1_134>
     575:	bf 75 00 00 00 00 00 00	r5 = r7
     576:	69 51 24 00 00 00 00 00	r1 = *(u16 *)(r5 + 36)
     577:	bc 12 00 00 00 00 00 00	w2 = w1
     578:	54 02 00 00 03 00 00 00	w2 &= 3
     579:	16 02 99 00 03 00 00 00	if w2 == 3 goto +153 <LBB1_106>
     580:	b4 09 00 00 3a 00 00 00	w9 = 58
     581:	61 a2 c8 fe 00 00 00 00	r2 = *(u32 *)(r10 - 312)
     582:	54 02 00 00 ff 00 00 00	w2 &= 255
     583:	56 02 0d 00 06 00 00 00	if w2 != 6 goto +13 <LBB1_98>
     584:	61 a2 d0 fe 00 00 00 00	r2 = *(u32 *)(r10 - 304)
     585:	64 02 00 00 03 00 00 00	w2 <<= 3
     586:	a4 02 00 00 ff ff ff ff	w2 ^= -1
     587:	bc 13 00 00 00 00 00 00	w3 = w1
     588:	4c 23 00 00 00 00 00 00	w3 |= w2
     589:	54 03 00 00 10 00 00 00	w3 &= 16
     590:	54 01 00 00 ef ff 00 00	w1 &= 65519
     591:	bc 32 00 00 00 00 00 00	w2 = w3
     592:	4c 12 00 00 00 00 00 00	w2 |= w1
     593:	6b 25 24 00 00 00 00 00	*(u16 *)(r5 + 36) = r2
     594:	b4 09 00 00 3a 00 00 00	w9 = 58
     595:	16 03 01 00 00 00 00 00	if w3 == 0 goto +1 <LBB1_98>
     596:	b4 09 00 00 65 52 00 00	w9 = 21093

00000000000012a8 <LBB1_98>:
     597:	7b 5a d8 fe 00 00 00 00	*(u64 *)(r10 - 296) = r5
     598:	85 00 00 00 76 00 00 00	call 118
     599:	79 a5 d8 fe 00 00 00 00	r5 = *(u64 *)(r10 - 296)
     600:	77 00 00 00 08 00 00 00	r0 >>= 8
     601:	0c 09 00 00 00 00 00 00	w9 += w0
     602:	63 95 20 00 00 00 00 00	*(u32 *)(r5 + 32) = r9
     603:	61 a2 d0 fe 00 00 00 00	r2 = *(u32 *)(r10 - 304)
     604:	54 02 00 00 07 00 00 00	w2 &= 7
     605:	61 a1 ec fe 00 00 00 00	r1 = *(u32 *)(r10 - 276)
     606:	56 01 41 00 01 00 00 00	if w1 != 1 goto +65 <LBB1_100>
     607:	71 51 2b 00 00 00 00 00	r1 = *(u8 *)(r5 + 43)
     608:	61 54 34 00 00 00 00 00	r4 = *(u32 *)(r5 + 52)
     609:	05 00 40 00 00 00 00 00	goto +64 <LBB1_101>

0000000000001310 <LBB1_134>:
     610:	71 a2 bd ff 00 00 00 00	r2 = *(u8 *)(r10 - 67)
     611:	bc 21 00 00 00 00 00 00	w1 = w2
     612:	44 01 00 00 01 00 00 00	w1 |= 1
     613:	bc 23 00 00 00 00 00 00	w3 = w2
     614:	54 03 00 00 01 00 00 00	w3 &= 1
     615:	16 03 02 00 00 00 00 00	if w3 == 0 goto +2 <LBB1_136>
     616:	54 02 00 00 fe 00 00 00	w2 &= 254
     617:	bc 21 00 00 00 00 00 00	w1 = w2

0000000000001350 <LBB1_136>:
     618:	79 a2 a8 ff 00 00 00 00	r2 = *(u64 *)(r10 - 88)
     619:	79 a3 98 ff 00 00 00 00	r3 = *(u64 *)(r10 - 104)
     620:	7b 3a a8 ff 00 00 00 00	*(u64 *)(r10 - 88) = r3
     621:	79 a3 a0 ff 00 00 00 00	r3 = *(u64 *)(r10 - 96)
     622:	79 a4 b0 ff 00 00 00 00	r4 = *(u64 *)(r10 - 80)
     623:	7b 4a a0 ff 00 00 00 00	*(u64 *)(r10 - 96) = r4
     624:	7b 3a b0 ff 00 00 00 00	*(u64 *)(r10 - 80) = r3
     625:	7b 2a 98 ff 00 00 00 00	*(u64 *)(r10 - 104) = r2
     626:	69 a2 ba ff 00 00 00 00	r2 = *(u16 *)(r10 - 70)
     627:	69 a3 b8 ff 00 00 00 00	r3 = *(u16 *)(r10 - 72)
     628:	6b 3a ba ff 00 00 00 00	*(u16 *)(r10 - 70) = r3
     629:	6b 2a b8 ff 00 00 00 00	*(u16 *)(r10 - 72) = r2
     630:	73 1a bd ff 00 00 00 00	*(u8 *)(r10 - 67) = r1
     631:	bf a2 00 00 00 00 00 00	r2 = r10
     632:	07 02 00 00 98 ff ff ff	r2 += -104
     633:	bf 91 00 00 00 00 00 00	r1 = r9
     634:	85 00 00 00 01 00 00 00	call 1
     635:	bf 07 00 00 00 00 00 00	r7 = r0
     636:	15 07 37 00 00 00 00 00	if r7 == 0 goto +55 <LBB1_178>
     637:	bf 75 00 00 00 00 00 00	r5 = r7
     638:	69 51 24 00 00 00 00 00	r1 = *(u16 *)(r5 + 36)
     639:	bc 12 00 00 00 00 00 00	w2 = w1
     640:	54 02 00 00 03 00 00 00	w2 &= 3
     641:	16 02 24 01 03 00 00 00	if w2 == 3 goto +292 <LBB1_149>
     642:	b4 09 00 00 3a 00 00 00	w9 = 58
     643:	61 a2 c8 fe 00 00 00 00	r2 = *(u32 *)(r10 - 312)
     644:	54 02 00 00 ff 00 00 00	w2 &= 255
     645:	56 02 0d 00 06 00 00 00	if w2 != 6 goto +13 <LBB1_141>
     646:	61 a2 d0 fe 00 00 00 00	r2 = *(u32 *)(r10 - 304)
     647:	64 02 00 00 03 00 00 00	w2 <<= 3
     648:	a4 02 00 00 ff ff ff ff	w2 ^= -1
     649:	bc 13 00 00 00 00 00 00	w3 = w1
     650:	4c 23 00 00 00 00 00 00	w3 |= w2
     651:	54 03 00 00 10 00 00 00	w3 &= 16
     652:	54 01 00 00 ef ff 00 00	w1 &= 65519
     653:	bc 32 00 00 00 00 00 00	w2 = w3
     654:	4c 12 00 00 00 00 00 00	w2 |= w1
     655:	6b 25 24 00 00 00 00 00	*(u16 *)(r5 + 36) = r2
     656:	b4 09 00 00 3a 00 00 00	w9 = 58
     657:	16 03 01 00 00 00 00 00	if w3 == 0 goto +1 <LBB1_141>
     658:	b4 09 00 00 65 52 00 00	w9 = 21093

0000000000001498 <LBB1_141>:
     659:	7b 5a d8 fe 00 00 00 00	*(u64 *)(r10 - 296) = r5
     660:	85 00 00 00 76 00 00 00	call 118
     661:	79 a5 d8 fe 00 00 00 00	r5 = *(u64 *)(r10 - 296)
     662:	77 00 00 00 08 00 00 00	r0 >>= 8
     663:	0c 09 00 00 00 00 00 00	w9 += w0
     664:	63 95 20 00 00 00 00 00	*(u32 *)(r5 + 32) = r9
     665:	61 a2 d0 fe 00 00 00 00	r2 = *(u32 *)(r10 - 304)
     666:	54 02 00 00 07 00 00 00	w2 &= 7
     667:	61 a1 ec fe 00 00 00 00	r1 = *(u32 *)(r10 - 276)
     668:	56 01 bd 00 01 00 00 00	if w1 != 1 goto +189 <LBB1_143>
     669:	71 51 2b 00 00 00 00 00	r1 = *(u8 *)(r5 + 43)
     670:	61 54 34 00 00 00 00 00	r4 = *(u32 *)(r5 + 52)
     671:	05 00 bc 00 00 00 00 00	goto +188 <LBB1_144>

0000000000001500 <LBB1_100>:
     672:	71 51 2a 00 00 00 00 00	r1 = *(u8 *)(r5 + 42)
     673:	61 54 30 00 00 00 00 00	r4 = *(u32 *)(r5 + 48)

0000000000001510 <LBB1_101>:
     674:	bc 13 00 00 00 00 00 00	w3 = w1
     675:	4c 23 00 00 00 00 00 00	w3 |= w2
     676:	bf 02 00 00 00 00 00 00	r2 = r0
     677:	67 02 00 00 20 00 00 00	r2 <<= 32
     678:	77 02 00 00 20 00 00 00	r2 >>= 32
     679:	07 04 00 00 04 00 00 00	r4 += 4
     680:	ad 24 03 00 00 00 00 00	if r4 < r2 goto +3 <LBB1_103>
     681:	bc 32 00 00 00 00 00 00	w2 = w3
     682:	54 02 00 00 ff 00 00 00	w2 &= 255
     683:	1e 21 31 00 00 00 00 00	if w1 == w2 goto +49 <LBB1_106>

0000000000001560 <LBB1_103>:
     684:	61 a1 ec fe 00 00 00 00	r1 = *(u32 *)(r10 - 276)
     685:	56 01 2c 00 01 00 00 00	if w1 != 1 goto +44 <LBB1_105>
     686:	73 35 2b 00 00 00 00 00	*(u8 *)(r5 + 43) = r3
     687:	63 05 34 00 00 00 00 00	*(u32 *)(r5 + 52) = r0
     688:	b4 09 00 00 01 00 00 00	w9 = 1
     689:	b7 01 00 00 08 00 00 00	r1 = 8
     690:	bf 52 00 00 00 00 00 00	r2 = r5
     691:	05 00 32 00 00 00 00 00	goto +50 <LBB1_108>

00000000000015a0 <LBB1_178>:
     692:	71 a1 bc ff 00 00 00 00	r1 = *(u8 *)(r10 - 68)
     693:	b7 02 00 00 00 00 00 00	r2 = 0
     694:	7b 2a f0 ff 00 00 00 00	*(u64 *)(r10 - 16) = r2
     695:	7b 2a e8 ff 00 00 00 00	*(u64 *)(r10 - 24) = r2
     696:	7b 2a e0 ff 00 00 00 00	*(u64 *)(r10 - 32) = r2
     697:	7b 2a d8 ff 00 00 00 00	*(u64 *)(r10 - 40) = r2
     698:	7b 2a d0 ff 00 00 00 00	*(u64 *)(r10 - 48) = r2
     699:	7b 2a c8 ff 00 00 00 00	*(u64 *)(r10 - 56) = r2
     700:	7b 2a c0 ff 00 00 00 00	*(u64 *)(r10 - 64) = r2
     701:	18 02 00 00 00 00 00 00 00 00 00 00 00 00 00 00	r2 = 0 ll
     703:	16 01 02 00 06 00 00 00	if w1 == 6 goto +2 <LBB1_180>
     704:	18 02 00 00 00 00 00 00 00 00 00 00 00 00 00 00	r2 = 0 ll

0000000000001610 <LBB1_180>:
     706:	b4 09 00 00 01 00 00 00	w9 = 1
     707:	16 01 01 00 06 00 00 00	if w1 == 6 goto +1 <LBB1_182>
     708:	b4 09 00 00 00 00 00 00	w9 = 0

0000000000001628 <LBB1_182>:
     709:	b4 07 00 00 3a 00 00 00	w7 = 58
     710:	64 09 00 00 01 00 00 00	w9 <<= 1
     711:	56 01 08 00 06 00 00 00	if w1 != 6 goto +8 <LBB1_186>
     712:	bc 91 00 00 00 00 00 00	w1 = w9
     713:	64 01 00 00 03 00 00 00	w1 <<= 3
     714:	a4 01 00 00 10 00 00 00	w1 ^= 16
     715:	54 01 00 00 f8 00 00 00	w1 &= 248
     716:	b4 07 00 00 3a 00 00 00	w7 = 58
     717:	16 01 01 00 00 00 00 00	if w1 == 0 goto +1 <LBB1_185>
     718:	b4 07 00 00 65 52 00 00	w7 = 21093

0000000000001678 <LBB1_185>:
     719:	6b 1a e4 ff 00 00 00 00	*(u16 *)(r10 - 28) = r1

0000000000001680 <LBB1_186>:
     720:	7b 2a d8 fe 00 00 00 00	*(u64 *)(r10 - 296) = r2
     721:	85 00 00 00 76 00 00 00	call 118
     722:	77 00 00 00 08 00 00 00	r0 >>= 8
     723:	0c 07 00 00 00 00 00 00	w7 += w0
     724:	63 7a e0 ff 00 00 00 00	*(u32 *)(r10 - 32) = r7
     725:	61 a1 ec fe 00 00 00 00	r1 = *(u32 *)(r10 - 276)
     726:	56 01 66 00 01 00 00 00	if w1 != 1 goto +102 <LBB1_188>
     727:	71 a1 eb ff 00 00 00 00	r1 = *(u8 *)(r10 - 21)
     728:	61 a3 f4 ff 00 00 00 00	r3 = *(u32 *)(r10 - 12)
     729:	05 00 65 00 00 00 00 00	goto +101 <LBB1_189>

00000000000016d0 <LBB1_105>:
     730:	73 35 2a 00 00 00 00 00	*(u8 *)(r5 + 42) = r3
     731:	63 05 30 00 00 00 00 00	*(u32 *)(r5 + 48) = r0
     732:	05 00 05 00 00 00 00 00	goto +5 <LBB1_107>

00000000000016e8 <LBB1_106>:
     733:	b4 09 00 00 01 00 00 00	w9 = 1
     734:	b7 01 00 00 08 00 00 00	r1 = 8
     735:	bf 52 00 00 00 00 00 00	r2 = r5
     736:	61 a3 ec fe 00 00 00 00	r3 = *(u32 *)(r10 - 276)
     737:	16 03 04 00 01 00 00 00	if w3 == 1 goto +4 <LBB1_108>

0000000000001710 <LBB1_107>:
     738:	b4 09 00 00 00 00 00 00	w9 = 0
     739:	b7 01 00 00 18 00 00 00	r1 = 24
     740:	bf 72 00 00 00 00 00 00	r2 = r7
     741:	07 02 00 00 10 00 00 00	r2 += 16

0000000000001730 <LBB1_108>:
     742:	b7 03 00 00 01 00 00 00	r3 = 1
     743:	db 32 00 00 00 00 00 00	lock *(u64 *)(r2 + 0) += r3
     744:	0f 17 00 00 00 00 00 00	r7 += r1
     745:	61 61 00 00 00 00 00 00	r1 = *(u32 *)(r6 + 0)
     746:	61 62 04 00 00 00 00 00	r2 = *(u32 *)(r6 + 4)
     747:	1f 12 00 00 00 00 00 00	r2 -= r1
     748:	db 27 00 00 00 00 00 00	lock *(u64 *)(r7 + 0) += r2
     749:	61 a3 d0 fe 00 00 00 00	r3 = *(u32 *)(r10 - 304)
     750:	61 a1 c4 fe 00 00 00 00	r1 = *(u32 *)(r10 - 316)
     751:	16 01 2e 00 02 00 00 00	if w1 == 2 goto +46 <LBB1_121>
     752:	79 a7 b8 fe 00 00 00 00	r7 = *(u64 *)(r10 - 328)
     753:	56 01 2a 01 01 00 00 00	if w1 != 1 goto +298 <LBB1_203>
     754:	69 51 24 00 00 00 00 00	r1 = *(u16 *)(r5 + 36)
     755:	bc 12 00 00 00 00 00 00	w2 = w1
     756:	74 02 00 00 01 00 00 00	w2 >>= 1
     757:	4c 12 00 00 00 00 00 00	w2 |= w1
     758:	54 02 00 00 01 00 00 00	w2 &= 1
     759:	64 03 00 00 08 00 00 00	w3 <<= 8
     760:	54 03 00 00 00 02 00 00	w3 &= 512
     761:	4c 32 00 00 00 00 00 00	w2 |= w3
     762:	56 02 21 01 01 02 00 00	if w2 != 513 goto +289 <LBB1_203>
     763:	bc 12 00 00 00 00 00 00	w2 = w1
     764:	54 02 00 00 fc ff 00 00	w2 &= 65532
     765:	7b 5a d8 fe 00 00 00 00	*(u64 *)(r10 - 296) = r5
     766:	6b 25 24 00 00 00 00 00	*(u16 *)(r5 + 36) = r2
     767:	b4 07 00 00 3a 00 00 00	w7 = 58
     768:	61 a2 c8 fe 00 00 00 00	r2 = *(u32 *)(r10 - 312)
     769:	54 02 00 00 ff 00 00 00	w2 &= 255
     770:	56 02 0e 00 06 00 00 00	if w2 != 6 goto +14 <LBB1_114>
     771:	61 a2 d0 fe 00 00 00 00	r2 = *(u32 *)(r10 - 304)
     772:	64 02 00 00 03 00 00 00	w2 <<= 3
     773:	a4 02 00 00 ff ff ff ff	w2 ^= -1
     774:	bc 13 00 00 00 00 00 00	w3 = w1
     775:	4c 23 00 00 00 00 00 00	w3 |= w2
     776:	54 03 00 00 10 00 00 00	w3 &= 16
     777:	54 01 00 00 ec ff 00 00	w1 &= 65516
     778:	bc 32 00 00 00 00 00 00	w2 = w3
     779:	4c 12 00 00 00 00 00 00	w2 |= w1
     780:	79 a1 d8 fe 00 00 00 00	r1 = *(u64 *)(r10 - 296)
     781:	6b 21 24 00 00 00 00 00	*(u16 *)(r1 + 36) = r2
     782:	b4 07 00 00 3a 00 00 00	w7 = 58
     783:	16 03 01 00 00 00 00 00	if w3 == 0 goto +1 <LBB1_114>
     784:	b4 07 00 00 65 52 00 00	w7 = 21093

0000000000001888 <LBB1_114>:
     785:	85 00 00 00 76 00 00 00	call 118
     786:	77 00 00 00 08 00 00 00	r0 >>= 8
     787:	0c 07 00 00 00 00 00 00	w7 += w0
     788:	79 a1 d8 fe 00 00 00 00	r1 = *(u64 *)(r10 - 296)
     789:	63 71 20 00 00 00 00 00	*(u32 *)(r1 + 32) = r7
     790:	61 a1 d0 fe 00 00 00 00	r1 = *(u32 *)(r10 - 304)
     791:	54 01 00 00 07 00 00 00	w1 &= 7
     792:	63 1a d0 fe 00 00 00 00	*(u32 *)(r10 - 304) = r1
     793:	16 09 fa 1b 00 00 00 00	if w9 == 0 goto +7162 <LBB1_116>
     794:	79 a2 d8 fe 00 00 00 00	r2 = *(u64 *)(r10 - 296)
     795:	71 21 2b 00 00 00 00 00	r1 = *(u8 *)(r2 + 43)
     796:	61 23 34 00 00 00 00 00	r3 = *(u32 *)(r2 + 52)
     797:	05 00 f9 1b 00 00 00 00	goto +7161 <LBB1_117>

00000000000018f0 <LBB1_121>:
     798:	b4 01 00 00 01 00 00 00	w1 = 1
     799:	79 a7 b8 fe 00 00 00 00	r7 = *(u64 *)(r10 - 328)
     800:	56 09 01 00 00 00 00 00	if w9 != 0 goto +1 <LBB1_123>
     801:	b4 01 00 00 02 00 00 00	w1 = 2

0000000000001910 <LBB1_123>:
     802:	63 9a c8 fe 00 00 00 00	*(u32 *)(r10 - 312) = r9
     803:	bc 32 00 00 00 00 00 00	w2 = w3
     804:	54 02 00 00 04 00 00 00	w2 &= 4
     805:	16 02 01 00 00 00 00 00	if w2 == 0 goto +1 <LBB1_125>
     806:	b4 01 00 00 03 00 00 00	w1 = 3

0000000000001938 <LBB1_125>:
     807:	69 52 24 00 00 00 00 00	r2 = *(u16 *)(r5 + 36)
     808:	4c 12 00 00 00 00 00 00	w2 |= w1
     809:	6b 25 24 00 00 00 00 00	*(u16 *)(r5 + 36) = r2
     810:	54 02 00 00 03 00 00 00	w2 &= 3
     811:	56 02 f0 00 03 00 00 00	if w2 != 3 goto +240 <LBB1_203>
     812:	bc 39 00 00 00 00 00 00	w9 = w3
     813:	7b 5a d8 fe 00 00 00 00	*(u64 *)(r10 - 296) = r5
     814:	85 00 00 00 76 00 00 00	call 118
     815:	79 a3 d8 fe 00 00 00 00	r3 = *(u64 *)(r10 - 296)
     816:	77 00 00 00 08 00 00 00	r0 >>= 8
     817:	bc 01 00 00 00 00 00 00	w1 = w0
     818:	bc 12 00 00 00 00 00 00	w2 = w1
     819:	04 02 00 00 09 00 00 00	w2 += 9
     820:	63 23 20 00 00 00 00 00	*(u32 *)(r3 + 32) = r2
     821:	54 09 00 00 07 00 00 00	w9 &= 7
     822:	bc 95 00 00 00 00 00 00	w5 = w9
     823:	61 a2 c8 fe 00 00 00 00	r2 = *(u32 *)(r10 - 312)
     824:	16 02 35 00 00 00 00 00	if w2 == 0 goto +53 <LBB1_128>
     825:	71 32 2b 00 00 00 00 00	r2 = *(u8 *)(r3 + 43)
     826:	bf 39 00 00 00 00 00 00	r9 = r3
     827:	61 34 34 00 00 00 00 00	r4 = *(u32 *)(r3 + 52)
     828:	05 00 34 00 00 00 00 00	goto +52 <LBB1_129>

00000000000019e8 <LBB1_188>:
     829:	71 a1 ea ff 00 00 00 00	r1 = *(u8 *)(r10 - 22)
     830:	61 a3 f0 ff 00 00 00 00	r3 = *(u32 *)(r10 - 16)

00000000000019f8 <LBB1_189>:
     831:	79 a7 b8 fe 00 00 00 00	r7 = *(u64 *)(r10 - 328)
     832:	bc 12 00 00 00 00 00 00	w2 = w1
     833:	4c 92 00 00 00 00 00 00	w2 |= w9
     834:	bf 04 00 00 00 00 00 00	r4 = r0
     835:	67 04 00 00 20 00 00 00	r4 <<= 32
     836:	77 04 00 00 20 00 00 00	r4 >>= 32
     837:	07 03 00 00 04 00 00 00	r3 += 4
     838:	ad 43 03 00 00 00 00 00	if r3 < r4 goto +3 <LBB1_191>
     839:	bc 23 00 00 00 00 00 00	w3 = w2
     840:	54 03 00 00 ff 00 00 00	w3 &= 255
     841:	1e 31 06 00 00 00 00 00	if w1 == w3 goto +6 <LBB1_193>

0000000000001a50 <LBB1_191>:
     842:	61 a1 ec fe 00 00 00 00	r1 = *(u32 *)(r10 - 276)
     843:	56 01 33 00 01 00 00 00	if w1 != 1 goto +51 <LBB1_195>
     844:	73 2a eb ff 00 00 00 00	*(u8 *)(r10 - 21) = r2
     845:	63 0a f4 ff 00 00 00 00	*(u32 *)(r10 - 12) = r0
     846:	79 a4 d8 fe 00 00 00 00	r4 = *(u64 *)(r10 - 296)
     847:	05 00 03 00 00 00 00 00	goto +3 <LBB1_194>

0000000000001a80 <LBB1_193>:
     848:	61 a1 ec fe 00 00 00 00	r1 = *(u32 *)(r10 - 276)
     849:	79 a4 d8 fe 00 00 00 00	r4 = *(u64 *)(r10 - 296)
     850:	56 01 2f 00 01 00 00 00	if w1 != 1 goto +47 <LBB1_196>

0000000000001a98 <LBB1_194>:
     851:	b7 01 00 00 01 00 00 00	r1 = 1
     852:	7b 1a c0 ff 00 00 00 00	*(u64 *)(r10 - 64) = r1
     853:	61 61 00 00 00 00 00 00	r1 = *(u32 *)(r6 + 0)
     854:	61 62 04 00 00 00 00 00	r2 = *(u32 *)(r6 + 4)
     855:	1f 12 00 00 00 00 00 00	r2 -= r1
     856:	7b 2a c8 ff 00 00 00 00	*(u64 *)(r10 - 56) = r2
     857:	05 00 2e 00 00 00 00 00	goto +46 <LBB1_197>

0000000000001ad0 <LBB1_143>:
     858:	71 51 2a 00 00 00 00 00	r1 = *(u8 *)(r5 + 42)
     859:	61 54 30 00 00 00 00 00	r4 = *(u32 *)(r5 + 48)

0000000000001ae0 <LBB1_144>:
     860:	bc 13 00 00 00 00 00 00	w3 = w1
     861:	4c 23 00 00 00 00 00 00	w3 |= w2
     862:	bf 02 00 00 00 00 00 00	r2 = r0
     863:	67 02 00 00 20 00 00 00	r2 <<= 32
     864:	77 02 00 00 20 00 00 00	r2 >>= 32
     865:	07 04 00 00 04 00 00 00	r4 += 4
     866:	ad 24 03 00 00 00 00 00	if r4 < r2 goto +3 <LBB1_146>
     867:	bc 32 00 00 00 00 00 00	w2 = w3
     868:	54 02 00 00 ff 00 00 00	w2 &= 255
     869:	1e 21 40 00 00 00 00 00	if w1 == w2 goto +64 <LBB1_149>

0000000000001b30 <LBB1_146>:
     870:	61 a1 ec fe 00 00 00 00	r1 = *(u32 *)(r10 - 276)
     871:	56 01 3b 00 01 00 00 00	if w1 != 1 goto +59 <LBB1_148>
     872:	73 35 2b 00 00 00 00 00	*(u8 *)(r5 + 43) = r3
     873:	63 05 34 00 00 00 00 00	*(u32 *)(r5 + 52) = r0
     874:	b4 09 00 00 01 00 00 00	w9 = 1
     875:	b7 01 00 00 08 00 00 00	r1 = 8
     876:	bf 52 00 00 00 00 00 00	r2 = r5
     877:	05 00 41 00 00 00 00 00	goto +65 <LBB1_151>

0000000000001b70 <LBB1_128>:
     878:	71 32 2a 00 00 00 00 00	r2 = *(u8 *)(r3 + 42)
     879:	bf 39 00 00 00 00 00 00	r9 = r3
     880:	61 34 30 00 00 00 00 00	r4 = *(u32 *)(r3 + 48)

0000000000001b88 <LBB1_129>:
     881:	bc 23 00 00 00 00 00 00	w3 = w2
     882:	4c 53 00 00 00 00 00 00	w3 |= w5
     883:	67 00 00 00 20 00 00 00	r0 <<= 32
     884:	77 00 00 00 20 00 00 00	r0 >>= 32
     885:	07 04 00 00 04 00 00 00	r4 += 4
     886:	ad 04 03 00 00 00 00 00	if r4 < r0 goto +3 <LBB1_131>
     887:	bc 34 00 00 00 00 00 00	w4 = w3
     888:	54 04 00 00 ff 00 00 00	w4 &= 255
     889:	1e 42 a2 00 00 00 00 00	if w2 == w4 goto +162 <LBB1_203>

0000000000001bd0 <LBB1_131>:
     890:	61 a2 c8 fe 00 00 00 00	r2 = *(u32 *)(r10 - 312)
     891:	16 02 8a 00 00 00 00 00	if w2 == 0 goto +138 <LBB1_133>
     892:	73 39 2b 00 00 00 00 00	*(u8 *)(r9 + 43) = r3
     893:	63 19 34 00 00 00 00 00	*(u32 *)(r9 + 52) = r1
     894:	05 00 9d 00 00 00 00 00	goto +157 <LBB1_203>

0000000000001bf8 <LBB1_195>:
     895:	73 2a ea ff 00 00 00 00	*(u8 *)(r10 - 22) = r2
     896:	63 0a f0 ff 00 00 00 00	*(u32 *)(r10 - 16) = r0
     897:	79 a4 d8 fe 00 00 00 00	r4 = *(u64 *)(r10 - 296)

0000000000001c10 <LBB1_196>:
     898:	b7 01 00 00 01 00 00 00	r1 = 1
     899:	7b 1a d0 ff 00 00 00 00	*(u64 *)(r10 - 48) = r1
     900:	61 61 00 00 00 00 00 00	r1 = *(u32 *)(r6 + 0)
     901:	61 62 04 00 00 00 00 00	r2 = *(u32 *)(r6 + 4)
     902:	1f 12 00 00 00 00 00 00	r2 -= r1
     903:	7b 2a d8 ff 00 00 00 00	*(u64 *)(r10 - 40) = r2

0000000000001c40 <LBB1_197>:
     904:	b4 01 00 00 00 00 00 00	w1 = 0
     905:	63 1a ec ff 00 00 00 00	*(u32 *)(r10 - 20) = r1
     906:	bf a2 00 00 00 00 00 00	r2 = r10
     907:	07 02 00 00 98 ff ff ff	r2 += -104
     908:	bf a3 00 00 00 00 00 00	r3 = r10
     909:	07 03 00 00 c0 ff ff ff	r3 += -64
     910:	bf 41 00 00 00 00 00 00	r1 = r4
     911:	b4 04 00 00 00 00 00 00	w4 = 0
     912:	85 00 00 00 02 00 00 00	call 2
     913:	c6 00 01 00 00 00 00 00	if w0 s< 0 goto +1 <LBB1_199>
     914:	05 00 89 00 00 00 00 00	goto +137 <LBB1_203>

0000000000001c98 <LBB1_199>:
     915:	18 01 00 00 01 00 00 00 00 00 00 00 01 00 00 00	r1 = 4294967297 ll
     917:	7b 1a f8 ff 00 00 00 00	*(u64 *)(r10 - 8) = r1
     918:	bf a4 00 00 00 00 00 00	r4 = r10
     919:	07 04 00 00 f8 ff ff ff	r4 += -8
     920:	bf 61 00 00 00 00 00 00	r1 = r6
     921:	18 02 00 00 00 00 00 00 00 00 00 00 00 00 00 00	r2 = 0 ll
     923:	18 03 00 00 ff ff ff ff 00 00 00 00 00 00 00 00	r3 = 4294967295 ll
     925:	b4 05 00 00 08 00 00 00	w5 = 8
     926:	85 00 00 00 19 00 00 00	call 25
     927:	b4 09 00 00 65 ff ff ff	w9 = -155

0000000000001d00 <LBB1_200>:
     928:	61 a4 ec fe 00 00 00 00	r4 = *(u32 *)(r10 - 276)
     929:	56 04 88 00 01 00 00 00	if w4 != 1 goto +136 <LBB1_852>
     930:	05 00 04 1b 00 00 00 00	goto +6916 <LBB1_849>

0000000000001d18 <LBB1_148>:
     931:	73 35 2a 00 00 00 00 00	*(u8 *)(r5 + 42) = r3
     932:	63 05 30 00 00 00 00 00	*(u32 *)(r5 + 48) = r0
     933:	05 00 05 00 00 00 00 00	goto +5 <LBB1_150>

0000000000001d30 <LBB1_149>:
     934:	b4 09 00 00 01 00 00 00	w9 = 1
     935:	b7 01 00 00 08 00 00 00	r1 = 8
     936:	bf 52 00 00 00 00 00 00	r2 = r5
     937:	61 a3 ec fe 00 00 00 00	r3 = *(u32 *)(r10 - 276)
     938:	16 03 04 00 01 00 00 00	if w3 == 1 goto +4 <LBB1_151>

0000000000001d58 <LBB1_150>:
     939:	b4 09 00 00 00 00 00 00	w9 = 0
     940:	b7 01 00 00 18 00 00 00	r1 = 24
     941:	bf 72 00 00 00 00 00 00	r2 = r7
     942:	07 02 00 00 10 00 00 00	r2 += 16

0000000000001d78 <LBB1_151>:
     943:	b7 03 00 00 01 00 00 00	r3 = 1
     944:	db 32 00 00 00 00 00 00	lock *(u64 *)(r2 + 0) += r3
     945:	0f 17 00 00 00 00 00 00	r7 += r1
     946:	61 61 00 00 00 00 00 00	r1 = *(u32 *)(r6 + 0)
     947:	61 62 04 00 00 00 00 00	r2 = *(u32 *)(r6 + 4)
     948:	1f 12 00 00 00 00 00 00	r2 -= r1
     949:	db 27 00 00 00 00 00 00	lock *(u64 *)(r7 + 0) += r2
     950:	61 a3 d0 fe 00 00 00 00	r3 = *(u32 *)(r10 - 304)
     951:	61 a1 c4 fe 00 00 00 00	r1 = *(u32 *)(r10 - 316)
     952:	16 01 2e 00 02 00 00 00	if w1 == 2 goto +46 <LBB1_165>
     953:	79 a7 b8 fe 00 00 00 00	r7 = *(u64 *)(r10 - 328)
     954:	56 01 61 00 01 00 00 00	if w1 != 1 goto +97 <LBB1_203>
     955:	69 51 24 00 00 00 00 00	r1 = *(u16 *)(r5 + 36)
     956:	bc 12 00 00 00 00 00 00	w2 = w1
     957:	74 02 00 00 01 00 00 00	w2 >>= 1
     958:	4c 12 00 00 00 00 00 00	w2 |= w1
     959:	54 02 00 00 01 00 00 00	w2 &= 1
     960:	64 03 00 00 08 00 00 00	w3 <<= 8
     961:	54 03 00 00 00 02 00 00	w3 &= 512
     962:	4c 32 00 00 00 00 00 00	w2 |= w3
     963:	56 02 58 00 01 02 00 00	if w2 != 513 goto +88 <LBB1_203>
     964:	bc 12 00 00 00 00 00 00	w2 = w1
     965:	54 02 00 00 fc ff 00 00	w2 &= 65532
     966:	7b 5a d8 fe 00 00 00 00	*(u64 *)(r10 - 296) = r5
     967:	6b 25 24 00 00 00 00 00	*(u16 *)(r5 + 36) = r2
     968:	b4 07 00 00 3a 00 00 00	w7 = 58
     969:	61 a2 c8 fe 00 00 00 00	r2 = *(u32 *)(r10 - 312)
     970:	54 02 00 00 ff 00 00 00	w2 &= 255
     971:	56 02 0e 00 06 00 00 00	if w2 != 6 goto +14 <LBB1_157>
     972:	61 a2 d0 fe 00 00 00 00	r2 = *(u32 *)(r10 - 304)
     973:	64 02 00 00 03 00 00 00	w2 <<= 3
     974:	a4 02 00 00 ff ff ff ff	w2 ^= -1
     975:	bc 13 00 00 00 00 00 00	w3 = w1
     976:	4c 23 00 00 00 00 00 00	w3 |= w2
     977:	54 03 00 00 10 00 00 00	w3 &= 16
     978:	54 01 00 00 ec ff 00 00	w1 &= 65516
     979:	bc 32 00 00 00 00 00 00	w2 = w3
     980:	4c 12 00 00 00 00 00 00	w2 |= w1
     981:	79 a1 d8 fe 00 00 00 00	r1 = *(u64 *)(r10 - 296)
     982:	6b 21 24 00 00 00 00 00	*(u16 *)(r1 + 36) = r2
     983:	b4 07 00 00 3a 00 00 00	w7 = 58
     984:	16 03 01 00 00 00 00 00	if w3 == 0 goto +1 <LBB1_157>
     985:	b4 07 00 00 65 52 00 00	w7 = 21093

0000000000001ed0 <LBB1_157>:
     986:	85 00 00 00 76 00 00 00	call 118
     987:	77 00 00 00 08 00 00 00	r0 >>= 8
     988:	0c 07 00 00 00 00 00 00	w7 += w0
     989:	79 a1 d8 fe 00 00 00 00	r1 = *(u64 *)(r10 - 296)
     990:	63 71 20 00 00 00 00 00	*(u32 *)(r1 + 32) = r7
     991:	61 a1 d0 fe 00 00 00 00	r1 = *(u32 *)(r10 - 304)
     992:	54 01 00 00 07 00 00 00	w1 &= 7
     993:	63 1a d0 fe 00 00 00 00	*(u32 *)(r10 - 304) = r1
     994:	16 09 49 1b 00 00 00 00	if w9 == 0 goto +6985 <LBB1_159>
     995:	79 a2 d8 fe 00 00 00 00	r2 = *(u64 *)(r10 - 296)
     996:	71 21 2b 00 00 00 00 00	r1 = *(u8 *)(r2 + 43)
     997:	61 23 34 00 00 00 00 00	r3 = *(u32 *)(r2 + 52)
     998:	05 00 48 1b 00 00 00 00	goto +6984 <LBB1_160>

0000000000001f38 <LBB1_165>:
     999:	b4 01 00 00 01 00 00 00	w1 = 1
    1000:	56 09 01 00 00 00 00 00	if w9 != 0 goto +1 <LBB1_167>
    1001:	b4 01 00 00 02 00 00 00	w1 = 2

0000000000001f50 <LBB1_167>:
    1002:	63 9a c8 fe 00 00 00 00	*(u32 *)(r10 - 312) = r9
    1003:	bc 32 00 00 00 00 00 00	w2 = w3
    1004:	54 02 00 00 04 00 00 00	w2 &= 4
    1005:	79 a7 b8 fe 00 00 00 00	r7 = *(u64 *)(r10 - 328)
    1006:	16 02 01 00 00 00 00 00	if w2 == 0 goto +1 <LBB1_169>
    1007:	b4 01 00 00 03 00 00 00	w1 = 3

0000000000001f80 <LBB1_169>:
    1008:	69 52 24 00 00 00 00 00	r2 = *(u16 *)(r5 + 36)
    1009:	4c 12 00 00 00 00 00 00	w2 |= w1
    1010:	6b 25 24 00 00 00 00 00	*(u16 *)(r5 + 36) = r2
    1011:	54 02 00 00 03 00 00 00	w2 &= 3
    1012:	56 02 27 00 03 00 00 00	if w2 != 3 goto +39 <LBB1_203>
    1013:	bc 39 00 00 00 00 00 00	w9 = w3
    1014:	7b 5a d8 fe 00 00 00 00	*(u64 *)(r10 - 296) = r5
    1015:	85 00 00 00 76 00 00 00	call 118
    1016:	79 a3 d8 fe 00 00 00 00	r3 = *(u64 *)(r10 - 296)
    1017:	77 00 00 00 08 00 00 00	r0 >>= 8
    1018:	bc 01 00 00 00 00 00 00	w1 = w0
    1019:	bc 12 00 00 00 00 00 00	w2 = w1
    1020:	04 02 00 00 09 00 00 00	w2 += 9
    1021:	63 23 20 00 00 00 00 00	*(u32 *)(r3 + 32) = r2
    1022:	54 09 00 00 07 00 00 00	w9 &= 7
    1023:	bc 95 00 00 00 00 00 00	w5 = w9
    1024:	61 a2 c8 fe 00 00 00 00	r2 = *(u32 *)(r10 - 312)
    1025:	16 02 07 00 00 00 00 00	if w2 == 0 goto +7 <LBB1_172>
    1026:	71 32 2b 00 00 00 00 00	r2 = *(u8 *)(r3 + 43)
    1027:	bf 39 00 00 00 00 00 00	r9 = r3
    1028:	61 34 34 00 00 00 00 00	r4 = *(u32 *)(r3 + 52)
    1029:	05 00 06 00 00 00 00 00	goto +6 <LBB1_173>

0000000000002030 <LBB1_133>:
    1030:	73 39 2a 00 00 00 00 00	*(u8 *)(r9 + 42) = r3
    1031:	63 19 30 00 00 00 00 00	*(u32 *)(r9 + 48) = r1
    1032:	05 00 13 00 00 00 00 00	goto +19 <LBB1_203>

0000000000002048 <LBB1_172>:
    1033:	71 32 2a 00 00 00 00 00	r2 = *(u8 *)(r3 + 42)
    1034:	bf 39 00 00 00 00 00 00	r9 = r3
    1035:	61 34 30 00 00 00 00 00	r4 = *(u32 *)(r3 + 48)

0000000000002060 <LBB1_173>:
    1036:	bc 23 00 00 00 00 00 00	w3 = w2
    1037:	4c 53 00 00 00 00 00 00	w3 |= w5
    1038:	67 00 00 00 20 00 00 00	r0 <<= 32
    1039:	77 00 00 00 20 00 00 00	r0 >>= 32
    1040:	07 04 00 00 04 00 00 00	r4 += 4
    1041:	ad 04 03 00 00 00 00 00	if r4 < r0 goto +3 <LBB1_175>
    1042:	bc 34 00 00 00 00 00 00	w4 = w3
    1043:	54 04 00 00 ff 00 00 00	w4 &= 255
    1044:	1e 42 07 00 00 00 00 00	if w2 == w4 goto +7 <LBB1_203>

00000000000020a8 <LBB1_175>:
    1045:	61 a2 c8 fe 00 00 00 00	r2 = *(u32 *)(r10 - 312)
    1046:	16 02 03 00 00 00 00 00	if w2 == 0 goto +3 <LBB1_177>
    1047:	73 39 2b 00 00 00 00 00	*(u8 *)(r9 + 43) = r3
    1048:	63 19 34 00 00 00 00 00	*(u32 *)(r9 + 52) = r1
    1049:	05 00 02 00 00 00 00 00	goto +2 <LBB1_203>

00000000000020d0 <LBB1_177>:
    1050:	73 39 2a 00 00 00 00 00	*(u8 *)(r9 + 42) = r3
    1051:	63 19 30 00 00 00 00 00	*(u32 *)(r9 + 48) = r1

00000000000020e0 <LBB1_203>:
    1052:	55 08 63 18 00 00 00 00	if r8 != 0 goto +6243 <LBB1_732>

00000000000020e8 <LBB1_204>:
    1053:	61 a1 ec fe 00 00 00 00	r1 = *(u32 *)(r10 - 276)
    1054:	56 01 e1 00 01 00 00 00	if w1 != 1 goto +225 <LBB1_209>
    1055:	b4 09 00 00 59 ff ff ff	w9 = -167
    1056:	71 a1 5c ff 00 00 00 00	r1 = *(u8 *)(r10 - 164)
    1057:	16 01 83 1a 3a 00 00 00	if w1 == 58 goto +6787 <LBB1_848>
    1058:	69 a1 58 ff 00 00 00 00	r1 = *(u16 *)(r10 - 168)
    1059:	54 01 00 00 80 00 00 00	w1 &= 128
    1060:	b4 09 00 00 53 ff ff ff	w9 = -173
    1061:	16 01 01 00 00 00 00 00	if w1 == 0 goto +1 <LBB1_208>
    1062:	b4 09 00 00 59 ff ff ff	w9 = -167

0000000000002138 <LBB1_208>:
    1063:	61 a4 ec fe 00 00 00 00	r4 = *(u32 *)(r10 - 276)
    1064:	56 04 01 00 01 00 00 00	if w4 != 1 goto +1 <LBB1_852>
    1065:	05 00 7d 1a 00 00 00 00	goto +6781 <LBB1_849>

0000000000002150 <LBB1_852>:
    1066:	16 09 01 00 53 ff ff ff	if w9 == -173 goto +1 <LBB1_789>
    1067:	05 00 8d 1a 00 00 00 00	goto +6797 <LBB1_869>

0000000000002160 <LBB1_789>:
    1068:	b4 09 00 00 7a ff ff ff	w9 = -134
    1069:	61 61 04 00 00 00 00 00	r1 = *(u32 *)(r6 + 4)
    1070:	61 68 00 00 00 00 00 00	r8 = *(u32 *)(r6 + 0)
    1071:	bf 82 00 00 00 00 00 00	r2 = r8
    1072:	07 02 00 00 36 00 00 00	r2 += 54
    1073:	2d 12 87 1a 00 00 00 00	if r2 > r1 goto +6791 <LBB1_869>
    1074:	bf 87 00 00 00 00 00 00	r7 = r8
    1075:	07 07 00 00 26 00 00 00	r7 += 38
    1076:	18 01 00 00 00 00 00 00 00 00 00 00 00 00 00 00	r1 = 0 ll
    1078:	bf 72 00 00 00 00 00 00	r2 = r7
    1079:	85 00 00 00 01 00 00 00	call 1
    1080:	15 00 2a 00 00 00 00 00	if r0 == 0 goto +42 <LBB1_862>
    1081:	b7 04 00 00 00 00 00 00	r4 = 0
    1082:	18 03 00 00 00 15 5d 6e 00 00 00 00 85 04 00 00	r3 = 4971128755456 ll
    1084:	61 a1 f8 fe 00 00 00 00	r1 = *(u32 *)(r10 - 264)
    1085:	16 01 01 00 02 00 00 00	if w1 == 2 goto +1 <LBB1_856>
    1086:	b7 03 00 00 00 00 00 00	r3 = 0

00000000000021f8 <LBB1_856>:
    1087:	61 61 00 00 00 00 00 00	r1 = *(u32 *)(r6 + 0)
    1088:	61 62 04 00 00 00 00 00	r2 = *(u32 *)(r6 + 4)
    1089:	57 04 00 00 ff 00 00 00	r4 &= 255
    1090:	0f 41 00 00 00 00 00 00	r1 += r4
    1091:	bf 14 00 00 00 00 00 00	r4 = r1
    1092:	07 01 00 00 06 00 00 00	r1 += 6
    1093:	2d 21 02 00 00 00 00 00	if r1 > r2 goto +2 <LBB1_856+0x48>
    1094:	b7 05 00 00 00 00 00 00	r5 = 0
    1095:	05 00 01 00 00 00 00 00	goto +1 <LBB1_856+0x50>
    1096:	b7 05 00 00 ea ff ff ff	r5 = -22
    1097:	56 05 05 00 00 00 00 00	if w5 != 0 goto +5 <LBB1_858>
    1098:	69 01 04 00 00 00 00 00	r1 = *(u16 *)(r0 + 4)
    1099:	6b 14 04 00 00 00 00 00	*(u16 *)(r4 + 4) = r1
    1100:	61 01 00 00 00 00 00 00	r1 = *(u32 *)(r0 + 0)
    1101:	63 14 00 00 00 00 00 00	*(u32 *)(r4 + 0) = r1
    1102:	05 00 03 00 00 00 00 00	goto +3 <LBB1_859>

0000000000002278 <LBB1_858>:
    1103:	b4 09 00 00 73 ff ff ff	w9 = -141
    1104:	61 a4 ec fe 00 00 00 00	r4 = *(u32 *)(r10 - 276)
    1105:	c6 05 67 1a 00 00 00 00	if w5 s< 0 goto +6759 <LBB1_869>

0000000000002290 <LBB1_859>:
    1106:	b7 04 00 00 06 00 00 00	r4 = 6
    1107:	61 61 00 00 00 00 00 00	r1 = *(u32 *)(r6 + 0)
    1108:	61 62 04 00 00 00 00 00	r2 = *(u32 *)(r6 + 4)
    1109:	57 04 00 00 ff 00 00 00	r4 &= 255
    1110:	0f 41 00 00 00 00 00 00	r1 += r4
    1111:	bf 14 00 00 00 00 00 00	r4 = r1
    1112:	07 01 00 00 06 00 00 00	r1 += 6
    1113:	2d 21 02 00 00 00 00 00	if r1 > r2 goto +2 <LBB1_859+0x50>
    1114:	b7 05 00 00 00 00 00 00	r5 = 0
    1115:	05 00 01 00 00 00 00 00	goto +1 <LBB1_859+0x58>
    1116:	b7 05 00 00 ea ff ff ff	r5 = -22
    1117:	56 05 99 00 00 00 00 00	if w5 != 0 goto +153 <LBB1_861>
    1118:	bf 31 00 00 00 00 00 00	r1 = r3
    1119:	77 01 00 00 20 00 00 00	r1 >>= 32
    1120:	63 34 00 00 00 00 00 00	*(u32 *)(r4 + 0) = r3
    1121:	6b 14 04 00 00 00 00 00	*(u16 *)(r4 + 4) = r1
    1122:	05 00 97 00 00 00 00 00	goto +151 <LBB1_866>

0000000000002318 <LBB1_862>:
    1123:	71 81 16 00 00 00 00 00	r1 = *(u8 *)(r8 + 22)
    1124:	71 82 17 00 00 00 00 00	r2 = *(u8 *)(r8 + 23)
    1125:	67 02 00 00 08 00 00 00	r2 <<= 8
    1126:	4f 12 00 00 00 00 00 00	r2 |= r1
    1127:	71 83 18 00 00 00 00 00	r3 = *(u8 *)(r8 + 24)
    1128:	71 81 19 00 00 00 00 00	r1 = *(u8 *)(r8 + 25)
    1129:	67 01 00 00 08 00 00 00	r1 <<= 8
    1130:	4f 31 00 00 00 00 00 00	r1 |= r3
    1131:	67 01 00 00 10 00 00 00	r1 <<= 16
    1132:	4f 21 00 00 00 00 00 00	r1 |= r2
    1133:	71 82 1a 00 00 00 00 00	r2 = *(u8 *)(r8 + 26)
    1134:	71 83 1b 00 00 00 00 00	r3 = *(u8 *)(r8 + 27)
    1135:	67 03 00 00 08 00 00 00	r3 <<= 8
    1136:	4f 23 00 00 00 00 00 00	r3 |= r2
    1137:	71 82 1c 00 00 00 00 00	r2 = *(u8 *)(r8 + 28)
    1138:	71 84 1d 00 00 00 00 00	r4 = *(u8 *)(r8 + 29)
    1139:	67 04 00 00 08 00 00 00	r4 <<= 8
    1140:	4f 24 00 00 00 00 00 00	r4 |= r2
    1141:	67 04 00 00 10 00 00 00	r4 <<= 16
    1142:	4f 34 00 00 00 00 00 00	r4 |= r3
    1143:	67 04 00 00 20 00 00 00	r4 <<= 32
    1144:	4f 14 00 00 00 00 00 00	r4 |= r1
    1145:	7b 4a 00 ff 00 00 00 00	*(u64 *)(r10 - 256) = r4
    1146:	71 81 1e 00 00 00 00 00	r1 = *(u8 *)(r8 + 30)
    1147:	71 82 1f 00 00 00 00 00	r2 = *(u8 *)(r8 + 31)
    1148:	67 02 00 00 08 00 00 00	r2 <<= 8
    1149:	4f 12 00 00 00 00 00 00	r2 |= r1
    1150:	71 83 20 00 00 00 00 00	r3 = *(u8 *)(r8 + 32)
    1151:	71 81 21 00 00 00 00 00	r1 = *(u8 *)(r8 + 33)
    1152:	67 01 00 00 08 00 00 00	r1 <<= 8
    1153:	4f 31 00 00 00 00 00 00	r1 |= r3
    1154:	67 01 00 00 10 00 00 00	r1 <<= 16
    1155:	4f 21 00 00 00 00 00 00	r1 |= r2
    1156:	71 82 22 00 00 00 00 00	r2 = *(u8 *)(r8 + 34)
    1157:	71 83 23 00 00 00 00 00	r3 = *(u8 *)(r8 + 35)
    1158:	67 03 00 00 08 00 00 00	r3 <<= 8
    1159:	4f 23 00 00 00 00 00 00	r3 |= r2
    1160:	71 82 24 00 00 00 00 00	r2 = *(u8 *)(r8 + 36)
    1161:	71 84 25 00 00 00 00 00	r4 = *(u8 *)(r8 + 37)
    1162:	67 04 00 00 08 00 00 00	r4 <<= 8
    1163:	4f 24 00 00 00 00 00 00	r4 |= r2
    1164:	67 04 00 00 10 00 00 00	r4 <<= 16
    1165:	4f 34 00 00 00 00 00 00	r4 |= r3
    1166:	67 04 00 00 20 00 00 00	r4 <<= 32
    1167:	4f 14 00 00 00 00 00 00	r4 |= r1
    1168:	7b 4a 08 ff 00 00 00 00	*(u64 *)(r10 - 248) = r4
    1169:	71 81 26 00 00 00 00 00	r1 = *(u8 *)(r8 + 38)
    1170:	71 82 27 00 00 00 00 00	r2 = *(u8 *)(r8 + 39)
    1171:	67 02 00 00 08 00 00 00	r2 <<= 8
    1172:	4f 12 00 00 00 00 00 00	r2 |= r1
    1173:	71 83 28 00 00 00 00 00	r3 = *(u8 *)(r8 + 40)
    1174:	71 81 29 00 00 00 00 00	r1 = *(u8 *)(r8 + 41)
    1175:	67 01 00 00 08 00 00 00	r1 <<= 8
    1176:	4f 31 00 00 00 00 00 00	r1 |= r3
    1177:	67 01 00 00 10 00 00 00	r1 <<= 16
    1178:	4f 21 00 00 00 00 00 00	r1 |= r2
    1179:	71 82 2a 00 00 00 00 00	r2 = *(u8 *)(r8 + 42)
    1180:	71 83 2b 00 00 00 00 00	r3 = *(u8 *)(r8 + 43)
    1181:	67 03 00 00 08 00 00 00	r3 <<= 8
    1182:	4f 23 00 00 00 00 00 00	r3 |= r2
    1183:	71 82 2c 00 00 00 00 00	r2 = *(u8 *)(r8 + 44)
    1184:	71 84 2d 00 00 00 00 00	r4 = *(u8 *)(r8 + 45)
    1185:	67 04 00 00 08 00 00 00	r4 <<= 8
    1186:	4f 24 00 00 00 00 00 00	r4 |= r2
    1187:	67 04 00 00 10 00 00 00	r4 <<= 16
    1188:	4f 34 00 00 00 00 00 00	r4 |= r3
    1189:	67 04 00 00 20 00 00 00	r4 <<= 32
    1190:	4f 14 00 00 00 00 00 00	r4 |= r1
    1191:	7b 4a 10 ff 00 00 00 00	*(u64 *)(r10 - 240) = r4
    1192:	71 81 2e 00 00 00 00 00	r1 = *(u8 *)(r8 + 46)
    1193:	71 82 2f 00 00 00 00 00	r2 = *(u8 *)(r8 + 47)
    1194:	67 02 00 00 08 00 00 00	r2 <<= 8
    1195:	4f 12 00 00 00 00 00 00	r2 |= r1
    1196:	71 83 30 00 00 00 00 00	r3 = *(u8 *)(r8 + 48)
    1197:	71 81 31 00 00 00 00 00	r1 = *(u8 *)(r8 + 49)
    1198:	67 01 00 00 08 00 00 00	r1 <<= 8
    1199:	4f 31 00 00 00 00 00 00	r1 |= r3
    1200:	67 01 00 00 10 00 00 00	r1 <<= 16
    1201:	4f 21 00 00 00 00 00 00	r1 |= r2
    1202:	71 82 32 00 00 00 00 00	r2 = *(u8 *)(r8 + 50)
    1203:	71 83 33 00 00 00 00 00	r3 = *(u8 *)(r8 + 51)
    1204:	67 03 00 00 08 00 00 00	r3 <<= 8
    1205:	4f 23 00 00 00 00 00 00	r3 |= r2
    1206:	71 82 34 00 00 00 00 00	r2 = *(u8 *)(r8 + 52)
    1207:	71 84 35 00 00 00 00 00	r4 = *(u8 *)(r8 + 53)
    1208:	67 04 00 00 08 00 00 00	r4 <<= 8
    1209:	4f 24 00 00 00 00 00 00	r4 |= r2
    1210:	67 04 00 00 10 00 00 00	r4 <<= 16
    1211:	4f 34 00 00 00 00 00 00	r4 |= r3
    1212:	67 04 00 00 20 00 00 00	r4 <<= 32
    1213:	4f 14 00 00 00 00 00 00	r4 |= r1
    1214:	7b 4a 18 ff 00 00 00 00	*(u64 *)(r10 - 232) = r4
    1215:	bf a2 00 00 00 00 00 00	r2 = r10
    1216:	07 02 00 00 f0 fe ff ff	r2 += -272
    1217:	bf 61 00 00 00 00 00 00	r1 = r6
    1218:	b4 03 00 00 44 00 00 00	w3 = 68
    1219:	b4 04 00 00 03 00 00 00	w4 = 3
    1220:	85 00 00 00 45 00 00 00	call 69
    1221:	b4 09 00 00 57 ff ff ff	w9 = -169
    1222:	61 a4 ec fe 00 00 00 00	r4 = *(u32 *)(r10 - 276)
    1223:	56 00 f1 19 00 00 00 00	if w0 != 0 goto +6641 <LBB1_869>
    1224:	bf a8 00 00 00 00 00 00	r8 = r10
    1225:	07 08 00 00 2a ff ff ff	r8 += -214
    1226:	18 01 00 00 00 00 00 00 00 00 00 00 00 00 00 00	r1 = 0 ll
    1228:	bf 72 00 00 00 00 00 00	r2 = r7
    1229:	bf 83 00 00 00 00 00 00	r3 = r8
    1230:	b4 04 00 00 00 00 00 00	w4 = 0
    1231:	85 00 00 00 02 00 00 00	call 2
    1232:	61 a4 ec fe 00 00 00 00	r4 = *(u32 *)(r10 - 276)
    1233:	b4 09 00 00 73 ff ff ff	w9 = -141
    1234:	61 62 04 00 00 00 00 00	r2 = *(u32 *)(r6 + 4)
    1235:	61 61 00 00 00 00 00 00	r1 = *(u32 *)(r6 + 0)
    1236:	bf 13 00 00 00 00 00 00	r3 = r1
    1237:	07 03 00 00 06 00 00 00	r3 += 6
    1238:	2d 23 e2 19 00 00 00 00	if r3 > r2 goto +6626 <LBB1_869>
    1239:	71 82 05 00 00 00 00 00	r2 = *(u8 *)(r8 + 5)
    1240:	73 21 05 00 00 00 00 00	*(u8 *)(r1 + 5) = r2
    1241:	71 82 04 00 00 00 00 00	r2 = *(u8 *)(r8 + 4)
    1242:	73 21 04 00 00 00 00 00	*(u8 *)(r1 + 4) = r2
    1243:	71 82 03 00 00 00 00 00	r2 = *(u8 *)(r8 + 3)
    1244:	73 21 03 00 00 00 00 00	*(u8 *)(r1 + 3) = r2
    1245:	71 82 02 00 00 00 00 00	r2 = *(u8 *)(r8 + 2)
    1246:	73 21 02 00 00 00 00 00	*(u8 *)(r1 + 2) = r2
    1247:	71 82 01 00 00 00 00 00	r2 = *(u8 *)(r8 + 1)
    1248:	73 21 01 00 00 00 00 00	*(u8 *)(r1 + 1) = r2
    1249:	71 82 00 00 00 00 00 00	r2 = *(u8 *)(r8 + 0)
    1250:	73 21 00 00 00 00 00 00	*(u8 *)(r1 + 0) = r2
    1251:	61 62 04 00 00 00 00 00	r2 = *(u32 *)(r6 + 4)
    1252:	61 61 00 00 00 00 00 00	r1 = *(u32 *)(r6 + 0)
    1253:	bf 13 00 00 00 00 00 00	r3 = r1
    1254:	07 03 00 00 0c 00 00 00	r3 += 12
    1255:	2d 23 d1 19 00 00 00 00	if r3 > r2 goto +6609 <LBB1_869>
    1256:	69 a2 28 ff 00 00 00 00	r2 = *(u16 *)(r10 - 216)
    1257:	73 21 0a 00 00 00 00 00	*(u8 *)(r1 + 10) = r2
    1258:	74 02 00 00 08 00 00 00	w2 >>= 8
    1259:	73 21 0b 00 00 00 00 00	*(u8 *)(r1 + 11) = r2
    1260:	61 a2 24 ff 00 00 00 00	r2 = *(u32 *)(r10 - 220)
    1261:	bc 23 00 00 00 00 00 00	w3 = w2
    1262:	74 03 00 00 18 00 00 00	w3 >>= 24
    1263:	73 31 09 00 00 00 00 00	*(u8 *)(r1 + 9) = r3
    1264:	bc 23 00 00 00 00 00 00	w3 = w2
    1265:	74 03 00 00 10 00 00 00	w3 >>= 16
    1266:	73 31 08 00 00 00 00 00	*(u8 *)(r1 + 8) = r3
    1267:	73 21 06 00 00 00 00 00	*(u8 *)(r1 + 6) = r2
    1268:	74 02 00 00 08 00 00 00	w2 >>= 8
    1269:	73 21 07 00 00 00 00 00	*(u8 *)(r1 + 7) = r2
    1270:	05 00 03 00 00 00 00 00	goto +3 <LBB1_866>

00000000000027b8 <LBB1_861>:
    1271:	b4 09 00 00 73 ff ff ff	w9 = -141
    1272:	61 a4 ec fe 00 00 00 00	r4 = *(u32 *)(r10 - 276)
    1273:	c6 05 bf 19 00 00 00 00	if w5 s< 0 goto +6591 <LBB1_869>

00000000000027d0 <LBB1_866>:
    1274:	61 61 0c 00 00 00 00 00	r1 = *(u32 *)(r6 + 12)
    1275:	b4 00 00 00 03 00 00 00	w0 = 3
    1276:	61 a2 f8 fe 00 00 00 00	r2 = *(u32 *)(r10 - 264)
    1277:	1e 21 15 1a 00 00 00 00	if w1 == w2 goto +6677 <LBB1_885>
    1278:	b4 00 00 00 f4 fd ff ff	w0 = -524
    1279:	05 00 13 1a 00 00 00 00	goto +6675 <LBB1_885>

0000000000002800 <LBB1_209>:
    1280:	b7 01 00 00 00 00 00 00	r1 = 0
    1281:	7b 1a f0 ff 00 00 00 00	*(u64 *)(r10 - 16) = r1
    1282:	7b 1a e8 ff 00 00 00 00	*(u64 *)(r10 - 24) = r1
    1283:	7b 1a e0 ff 00 00 00 00	*(u64 *)(r10 - 32) = r1
    1284:	7b 1a d8 ff 00 00 00 00	*(u64 *)(r10 - 40) = r1
    1285:	7b 1a d0 ff 00 00 00 00	*(u64 *)(r10 - 48) = r1
    1286:	7b 1a c8 ff 00 00 00 00	*(u64 *)(r10 - 56) = r1
    1287:	7b 1a c0 ff 00 00 00 00	*(u64 *)(r10 - 64) = r1
    1288:	7b 1a 60 ff 00 00 00 00	*(u64 *)(r10 - 160) = r1
    1289:	7b 1a 68 ff 00 00 00 00	*(u64 *)(r10 - 152) = r1
    1290:	7b 1a 70 ff 00 00 00 00	*(u64 *)(r10 - 144) = r1
    1291:	7b 1a 78 ff 00 00 00 00	*(u64 *)(r10 - 136) = r1
    1292:	7b 1a 80 ff 00 00 00 00	*(u64 *)(r10 - 128) = r1
    1293:	7b 1a 88 ff 00 00 00 00	*(u64 *)(r10 - 120) = r1
    1294:	7b 1a 90 ff 00 00 00 00	*(u64 *)(r10 - 112) = r1
    1295:	79 71 00 00 00 00 00 00	r1 = *(u64 *)(r7 + 0)
    1296:	7b 1a e0 ff 00 00 00 00	*(u64 *)(r10 - 32) = r1
    1297:	79 71 08 00 00 00 00 00	r1 = *(u64 *)(r7 + 8)
    1298:	7b 1a e8 ff 00 00 00 00	*(u64 *)(r10 - 24) = r1
    1299:	18 01 00 00 20 01 48 98 00 00 00 00 00 30 00 21	r1 = 2377953382364610848 ll
    1301:	7b 1a 80 ff 00 00 00 00	*(u64 *)(r10 - 128) = r1
    1302:	18 01 00 00 03 32 9f 55 00 00 00 00 67 47 a8 f8	r1 = -529094447072333309 ll
    1304:	7b 1a 88 ff 00 00 00 00	*(u64 *)(r10 - 120) = r1
    1305:	69 a0 5a ff 00 00 00 00	r0 = *(u16 *)(r10 - 166)
    1306:	6b 0a f0 ff 00 00 00 00	*(u16 *)(r10 - 16) = r0
    1307:	71 a1 5c ff 00 00 00 00	r1 = *(u8 *)(r10 - 164)
    1308:	73 1a bc ff 00 00 00 00	*(u8 *)(r10 - 68) = r1
    1309:	79 71 08 00 00 00 00 00	r1 = *(u64 *)(r7 + 8)
    1310:	7b 1a a0 ff 00 00 00 00	*(u64 *)(r10 - 96) = r1
    1311:	79 71 00 00 00 00 00 00	r1 = *(u64 *)(r7 + 0)
    1312:	7b 1a 98 ff 00 00 00 00	*(u64 *)(r10 - 104) = r1
    1313:	79 a1 40 ff 00 00 00 00	r1 = *(u64 *)(r10 - 192)
    1314:	7b 1a b0 ff 00 00 00 00	*(u64 *)(r10 - 80) = r1
    1315:	79 a1 38 ff 00 00 00 00	r1 = *(u64 *)(r10 - 200)
    1316:	7b 1a a8 ff 00 00 00 00	*(u64 *)(r10 - 88) = r1
    1317:	6b 0a b8 ff 00 00 00 00	*(u16 *)(r10 - 72) = r0
    1318:	69 a1 58 ff 00 00 00 00	r1 = *(u16 *)(r10 - 168)
    1319:	6b 1a ba ff 00 00 00 00	*(u16 *)(r10 - 70) = r1
    1320:	b4 01 00 00 01 00 00 00	w1 = 1
    1321:	71 a2 5d ff 00 00 00 00	r2 = *(u8 *)(r10 - 163)
    1322:	16 02 01 00 00 00 00 00	if w2 == 0 goto +1 <LBB1_211>
    1323:	b4 01 00 00 00 00 00 00	w1 = 0

0000000000002960 <LBB1_211>:
    1324:	73 1a bd ff 00 00 00 00	*(u8 *)(r10 - 67) = r1
    1325:	dc 00 00 00 20 00 00 00	r0 = be32 r0
    1326:	c4 00 00 00 10 00 00 00	w0 s>>= 16
    1327:	c6 00 06 00 00 00 00 00	if w0 s< 0 goto +6 <LBB1_213>
    1328:	85 00 00 00 07 00 00 00	call 7
    1329:	bc 01 00 00 00 00 00 00	w1 = w0
    1330:	54 01 00 00 ff ff 00 00	w1 &= 65535
    1331:	34 01 00 00 ff 7f 00 00	w1 /= 32767
    1332:	0c 10 00 00 00 00 00 00	w0 += w1
    1333:	44 00 00 00 00 80 ff ff	w0 |= -32768

00000000000029b0 <LBB1_213>:
    1334:	bf 79 00 00 00 00 00 00	r9 = r7
    1335:	18 01 00 00 03 32 9f 55 00 00 00 00 67 47 a8 f8	r1 = -529094447072333309 ll
    1337:	7b 1a a0 ff 00 00 00 00	*(u64 *)(r10 - 96) = r1
    1338:	dc 00 00 00 10 00 00 00	r0 = be16 r0
    1339:	6b 0a b8 ff 00 00 00 00	*(u16 *)(r10 - 72) = r0
    1340:	6b 0a 90 ff 00 00 00 00	*(u16 *)(r10 - 112) = r0
    1341:	79 a2 50 ff 00 00 00 00	r2 = *(u64 *)(r10 - 176)
    1342:	18 03 00 00 20 01 48 98 00 00 00 00 00 30 00 21	r3 = 2377953382364610848 ll
    1344:	7b 3a 98 ff 00 00 00 00	*(u64 *)(r10 - 104) = r3
    1345:	79 a4 48 ff 00 00 00 00	r4 = *(u64 *)(r10 - 184)
    1346:	5d 34 04 00 00 00 00 00	if r4 != r3 goto +4 <LBB1_216>
    1347:	5d 12 03 00 00 00 00 00	if r2 != r1 goto +3 <LBB1_216>
    1348:	b7 01 00 00 01 00 00 00	r1 = 1
    1349:	7b 1a c8 ff 00 00 00 00	*(u64 *)(r10 - 56) = r1
    1350:	7b 1a 68 ff 00 00 00 00	*(u64 *)(r10 - 152) = r1

0000000000002a38 <LBB1_216>:
    1351:	bf a2 00 00 00 00 00 00	r2 = r10
    1352:	07 02 00 00 98 ff ff ff	r2 += -104
    1353:	18 01 00 00 00 00 00 00 00 00 00 00 00 00 00 00	r1 = 0 ll
    1355:	85 00 00 00 01 00 00 00	call 1
    1356:	b4 07 00 00 59 ff ff ff	w7 = -167
    1357:	55 00 1d 00 00 00 00 00	if r0 != 0 goto +29 <LBB1_220>
    1358:	85 00 00 00 76 00 00 00	call 118
    1359:	77 00 00 00 08 00 00 00	r0 >>= 8
    1360:	7b 0a 60 ff 00 00 00 00	*(u64 *)(r10 - 160) = r0
    1361:	7b 0a c0 ff 00 00 00 00	*(u64 *)(r10 - 64) = r0
    1362:	bf a2 00 00 00 00 00 00	r2 = r10
    1363:	07 02 00 00 98 ff ff ff	r2 += -104
    1364:	bf a3 00 00 00 00 00 00	r3 = r10
    1365:	07 03 00 00 c0 ff ff ff	r3 += -64
    1366:	18 01 00 00 00 00 00 00 00 00 00 00 00 00 00 00	r1 = 0 ll
    1368:	b4 04 00 00 01 00 00 00	w4 = 1
    1369:	85 00 00 00 02 00 00 00	call 2
    1370:	bc 07 00 00 00 00 00 00	w7 = w0
    1371:	56 00 0f 00 00 00 00 00	if w0 != 0 goto +15 <LBB1_220>
    1372:	bf a2 00 00 00 00 00 00	r2 = r10
    1373:	07 02 00 00 38 ff ff ff	r2 += -200
    1374:	bf a3 00 00 00 00 00 00	r3 = r10
    1375:	07 03 00 00 60 ff ff ff	r3 += -160
    1376:	18 01 00 00 00 00 00 00 00 00 00 00 00 00 00 00	r1 = 0 ll
    1378:	b4 04 00 00 01 00 00 00	w4 = 1
    1379:	85 00 00 00 02 00 00 00	call 2
    1380:	bc 07 00 00 00 00 00 00	w7 = w0
    1381:	16 07 17 17 00 00 00 00	if w7 == 0 goto +5911 <LBB1_731>
    1382:	bf a2 00 00 00 00 00 00	r2 = r10
    1383:	07 02 00 00 98 ff ff ff	r2 += -104
    1384:	18 01 00 00 00 00 00 00 00 00 00 00 00 00 00 00	r1 = 0 ll
    1386:	85 00 00 00 03 00 00 00	call 3

0000000000002b58 <LBB1_220>:
    1387:	85 00 00 00 07 00 00 00	call 7
    1388:	bc 08 00 00 00 00 00 00	w8 = w0
    1389:	bc 81 00 00 00 00 00 00	w1 = w8
    1390:	54 01 00 00 ff ff 00 00	w1 &= 65535
    1391:	34 01 00 00 ff 7f 00 00	w1 /= 32767
    1392:	0c 18 00 00 00 00 00 00	w8 += w1
    1393:	44 08 00 00 00 80 ff ff	w8 |= -32768
    1394:	bf 81 00 00 00 00 00 00	r1 = r8
    1395:	dc 01 00 00 10 00 00 00	r1 = be16 r1
    1396:	6b 1a 90 ff 00 00 00 00	*(u16 *)(r10 - 112) = r1
    1397:	6b 1a b8 ff 00 00 00 00	*(u16 *)(r10 - 72) = r1
    1398:	bf a2 00 00 00 00 00 00	r2 = r10
    1399:	07 02 00 00 98 ff ff ff	r2 += -104
    1400:	18 01 00 00 00 00 00 00 00 00 00 00 00 00 00 00	r1 = 0 ll
    1402:	85 00 00 00 01 00 00 00	call 1
    1403:	15 00 e3 16 00 00 00 00	if r0 == 0 goto +5859 <LBB1_223>

0000000000002be0 <LBB1_226>:
    1404:	04 08 00 00 01 00 00 00	w8 += 1
    1405:	bc 81 00 00 00 00 00 00	w1 = w8
    1406:	54 01 00 00 ff ff 00 00	w1 &= 65535
    1407:	34 01 00 00 ff 7f 00 00	w1 /= 32767
    1408:	0c 18 00 00 00 00 00 00	w8 += w1
    1409:	44 08 00 00 00 80 ff ff	w8 |= -32768
    1410:	bf 81 00 00 00 00 00 00	r1 = r8
    1411:	dc 01 00 00 10 00 00 00	r1 = be16 r1
    1412:	6b 1a b8 ff 00 00 00 00	*(u16 *)(r10 - 72) = r1
    1413:	6b 1a 90 ff 00 00 00 00	*(u16 *)(r10 - 112) = r1
    1414:	bf a2 00 00 00 00 00 00	r2 = r10
    1415:	07 02 00 00 98 ff ff ff	r2 += -104
    1416:	18 01 00 00 00 00 00 00 00 00 00 00 00 00 00 00	r1 = 0 ll
    1418:	85 00 00 00 01 00 00 00	call 1
    1419:	55 00 1d 00 00 00 00 00	if r0 != 0 goto +29 <LBB1_230>
    1420:	85 00 00 00 76 00 00 00	call 118
    1421:	77 00 00 00 08 00 00 00	r0 >>= 8
    1422:	7b 0a 60 ff 00 00 00 00	*(u64 *)(r10 - 160) = r0
    1423:	7b 0a c0 ff 00 00 00 00	*(u64 *)(r10 - 64) = r0
    1424:	bf a2 00 00 00 00 00 00	r2 = r10
    1425:	07 02 00 00 98 ff ff ff	r2 += -104
    1426:	bf a3 00 00 00 00 00 00	r3 = r10
    1427:	07 03 00 00 c0 ff ff ff	r3 += -64
    1428:	18 01 00 00 00 00 00 00 00 00 00 00 00 00 00 00	r1 = 0 ll
    1430:	b4 04 00 00 01 00 00 00	w4 = 1
    1431:	85 00 00 00 02 00 00 00	call 2
    1432:	bc 07 00 00 00 00 00 00	w7 = w0
    1433:	56 00 0f 00 00 00 00 00	if w0 != 0 goto +15 <LBB1_230>
    1434:	bf a2 00 00 00 00 00 00	r2 = r10
    1435:	07 02 00 00 38 ff ff ff	r2 += -200
    1436:	bf a3 00 00 00 00 00 00	r3 = r10
    1437:	07 03 00 00 60 ff ff ff	r3 += -160
    1438:	18 01 00 00 00 00 00 00 00 00 00 00 00 00 00 00	r1 = 0 ll
    1440:	b4 04 00 00 01 00 00 00	w4 = 1
    1441:	85 00 00 00 02 00 00 00	call 2
    1442:	bc 07 00 00 00 00 00 00	w7 = w0
    1443:	16 07 d9 16 00 00 00 00	if w7 == 0 goto +5849 <LBB1_731>
    1444:	bf a2 00 00 00 00 00 00	r2 = r10
    1445:	07 02 00 00 98 ff ff ff	r2 += -104
    1446:	18 01 00 00 00 00 00 00 00 00 00 00 00 00 00 00	r1 = 0 ll
    1448:	85 00 00 00 03 00 00 00	call 3

0000000000002d48 <LBB1_230>:
    1449:	04 08 00 00 01 00 00 00	w8 += 1
    1450:	bc 81 00 00 00 00 00 00	w1 = w8
    1451:	54 01 00 00 ff ff 00 00	w1 &= 65535
    1452:	34 01 00 00 ff 7f 00 00	w1 /= 32767
    1453:	0c 18 00 00 00 00 00 00	w8 += w1
    1454:	44 08 00 00 00 80 ff ff	w8 |= -32768
    1455:	bf 81 00 00 00 00 00 00	r1 = r8
    1456:	dc 01 00 00 10 00 00 00	r1 = be16 r1
    1457:	6b 1a b8 ff 00 00 00 00	*(u16 *)(r10 - 72) = r1
    1458:	6b 1a 90 ff 00 00 00 00	*(u16 *)(r10 - 112) = r1
    1459:	bf a2 00 00 00 00 00 00	r2 = r10
    1460:	07 02 00 00 98 ff ff ff	r2 += -104
    1461:	18 01 00 00 00 00 00 00 00 00 00 00 00 00 00 00	r1 = 0 ll
    1463:	85 00 00 00 01 00 00 00	call 1
    1464:	55 00 1d 00 00 00 00 00	if r0 != 0 goto +29 <LBB1_234>
    1465:	85 00 00 00 76 00 00 00	call 118
    1466:	77 00 00 00 08 00 00 00	r0 >>= 8
    1467:	7b 0a 60 ff 00 00 00 00	*(u64 *)(r10 - 160) = r0
    1468:	7b 0a c0 ff 00 00 00 00	*(u64 *)(r10 - 64) = r0
    1469:	bf a2 00 00 00 00 00 00	r2 = r10
    1470:	07 02 00 00 98 ff ff ff	r2 += -104
    1471:	bf a3 00 00 00 00 00 00	r3 = r10
    1472:	07 03 00 00 c0 ff ff ff	r3 += -64
    1473:	18 01 00 00 00 00 00 00 00 00 00 00 00 00 00 00	r1 = 0 ll
    1475:	b4 04 00 00 01 00 00 00	w4 = 1
    1476:	85 00 00 00 02 00 00 00	call 2
    1477:	bc 07 00 00 00 00 00 00	w7 = w0
    1478:	56 00 0f 00 00 00 00 00	if w0 != 0 goto +15 <LBB1_234>
    1479:	bf a2 00 00 00 00 00 00	r2 = r10
    1480:	07 02 00 00 38 ff ff ff	r2 += -200
    1481:	bf a3 00 00 00 00 00 00	r3 = r10
    1482:	07 03 00 00 60 ff ff ff	r3 += -160
    1483:	18 01 00 00 00 00 00 00 00 00 00 00 00 00 00 00	r1 = 0 ll
    1485:	b4 04 00 00 01 00 00 00	w4 = 1
    1486:	85 00 00 00 02 00 00 00	call 2
    1487:	bc 07 00 00 00 00 00 00	w7 = w0
    1488:	16 07 ac 16 00 00 00 00	if w7 == 0 goto +5804 <LBB1_731>
    1489:	bf a2 00 00 00 00 00 00	r2 = r10
    1490:	07 02 00 00 98 ff ff ff	r2 += -104
    1491:	18 01 00 00 00 00 00 00 00 00 00 00 00 00 00 00	r1 = 0 ll
    1493:	85 00 00 00 03 00 00 00	call 3

0000000000002eb0 <LBB1_234>:
    1494:	04 08 00 00 01 00 00 00	w8 += 1
    1495:	bc 81 00 00 00 00 00 00	w1 = w8
    1496:	54 01 00 00 ff ff 00 00	w1 &= 65535
    1497:	34 01 00 00 ff 7f 00 00	w1 /= 32767
    1498:	0c 18 00 00 00 00 00 00	w8 += w1
    1499:	44 08 00 00 00 80 ff ff	w8 |= -32768
    1500:	bf 81 00 00 00 00 00 00	r1 = r8
    1501:	dc 01 00 00 10 00 00 00	r1 = be16 r1
    1502:	6b 1a b8 ff 00 00 00 00	*(u16 *)(r10 - 72) = r1
    1503:	6b 1a 90 ff 00 00 00 00	*(u16 *)(r10 - 112) = r1
    1504:	bf a2 00 00 00 00 00 00	r2 = r10
    1505:	07 02 00 00 98 ff ff ff	r2 += -104
    1506:	18 01 00 00 00 00 00 00 00 00 00 00 00 00 00 00	r1 = 0 ll
    1508:	85 00 00 00 01 00 00 00	call 1
    1509:	55 00 1d 00 00 00 00 00	if r0 != 0 goto +29 <LBB1_238>
    1510:	85 00 00 00 76 00 00 00	call 118
    1511:	77 00 00 00 08 00 00 00	r0 >>= 8
    1512:	7b 0a 60 ff 00 00 00 00	*(u64 *)(r10 - 160) = r0
    1513:	7b 0a c0 ff 00 00 00 00	*(u64 *)(r10 - 64) = r0
    1514:	bf a2 00 00 00 00 00 00	r2 = r10
    1515:	07 02 00 00 98 ff ff ff	r2 += -104
    1516:	bf a3 00 00 00 00 00 00	r3 = r10
    1517:	07 03 00 00 c0 ff ff ff	r3 += -64
    1518:	18 01 00 00 00 00 00 00 00 00 00 00 00 00 00 00	r1 = 0 ll
    1520:	b4 04 00 00 01 00 00 00	w4 = 1
    1521:	85 00 00 00 02 00 00 00	call 2
    1522:	bc 07 00 00 00 00 00 00	w7 = w0
    1523:	56 00 0f 00 00 00 00 00	if w0 != 0 goto +15 <LBB1_238>
    1524:	bf a2 00 00 00 00 00 00	r2 = r10
    1525:	07 02 00 00 38 ff ff ff	r2 += -200
    1526:	bf a3 00 00 00 00 00 00	r3 = r10
    1527:	07 03 00 00 60 ff ff ff	r3 += -160
    1528:	18 01 00 00 00 00 00 00 00 00 00 00 00 00 00 00	r1 = 0 ll
    1530:	b4 04 00 00 01 00 00 00	w4 = 1
    1531:	85 00 00 00 02 00 00 00	call 2
    1532:	bc 07 00 00 00 00 00 00	w7 = w0
    1533:	16 07 7f 16 00 00 00 00	if w7 == 0 goto +5759 <LBB1_731>
    1534:	bf a2 00 00 00 00 00 00	r2 = r10
    1535:	07 02 00 00 98 ff ff ff	r2 += -104
    1536:	18 01 00 00 00 00 00 00 00 00 00 00 00 00 00 00	r1 = 0 ll
    1538:	85 00 00 00 03 00 00 00	call 3

0000000000003018 <LBB1_238>:
    1539:	04 08 00 00 01 00 00 00	w8 += 1
    1540:	bc 81 00 00 00 00 00 00	w1 = w8
    1541:	54 01 00 00 ff ff 00 00	w1 &= 65535
    1542:	34 01 00 00 ff 7f 00 00	w1 /= 32767
    1543:	0c 18 00 00 00 00 00 00	w8 += w1
    1544:	44 08 00 00 00 80 ff ff	w8 |= -32768
    1545:	bf 81 00 00 00 00 00 00	r1 = r8
    1546:	dc 01 00 00 10 00 00 00	r1 = be16 r1
    1547:	6b 1a b8 ff 00 00 00 00	*(u16 *)(r10 - 72) = r1
    1548:	6b 1a 90 ff 00 00 00 00	*(u16 *)(r10 - 112) = r1
    1549:	bf a2 00 00 00 00 00 00	r2 = r10
    1550:	07 02 00 00 98 ff ff ff	r2 += -104
    1551:	18 01 00 00 00 00 00 00 00 00 00 00 00 00 00 00	r1 = 0 ll
    1553:	85 00 00 00 01 00 00 00	call 1
    1554:	55 00 1d 00 00 00 00 00	if r0 != 0 goto +29 <LBB1_242>
    1555:	85 00 00 00 76 00 00 00	call 118
    1556:	77 00 00 00 08 00 00 00	r0 >>= 8
    1557:	7b 0a 60 ff 00 00 00 00	*(u64 *)(r10 - 160) = r0
    1558:	7b 0a c0 ff 00 00 00 00	*(u64 *)(r10 - 64) = r0
    1559:	bf a2 00 00 00 00 00 00	r2 = r10
    1560:	07 02 00 00 98 ff ff ff	r2 += -104
    1561:	bf a3 00 00 00 00 00 00	r3 = r10
    1562:	07 03 00 00 c0 ff ff ff	r3 += -64
    1563:	18 01 00 00 00 00 00 00 00 00 00 00 00 00 00 00	r1 = 0 ll
    1565:	b4 04 00 00 01 00 00 00	w4 = 1
    1566:	85 00 00 00 02 00 00 00	call 2
    1567:	bc 07 00 00 00 00 00 00	w7 = w0
    1568:	56 00 0f 00 00 00 00 00	if w0 != 0 goto +15 <LBB1_242>
    1569:	bf a2 00 00 00 00 00 00	r2 = r10
    1570:	07 02 00 00 38 ff ff ff	r2 += -200
    1571:	bf a3 00 00 00 00 00 00	r3 = r10
    1572:	07 03 00 00 60 ff ff ff	r3 += -160
    1573:	18 01 00 00 00 00 00 00 00 00 00 00 00 00 00 00	r1 = 0 ll
    1575:	b4 04 00 00 01 00 00 00	w4 = 1
    1576:	85 00 00 00 02 00 00 00	call 2
    1577:	bc 07 00 00 00 00 00 00	w7 = w0
    1578:	16 07 52 16 00 00 00 00	if w7 == 0 goto +5714 <LBB1_731>
    1579:	bf a2 00 00 00 00 00 00	r2 = r10
    1580:	07 02 00 00 98 ff ff ff	r2 += -104
    1581:	18 01 00 00 00 00 00 00 00 00 00 00 00 00 00 00	r1 = 0 ll
    1583:	85 00 00 00 03 00 00 00	call 3

0000000000003180 <LBB1_242>:
    1584:	04 08 00 00 01 00 00 00	w8 += 1
    1585:	bc 81 00 00 00 00 00 00	w1 = w8
    1586:	54 01 00 00 ff ff 00 00	w1 &= 65535
    1587:	34 01 00 00 ff 7f 00 00	w1 /= 32767
    1588:	0c 18 00 00 00 00 00 00	w8 += w1
    1589:	44 08 00 00 00 80 ff ff	w8 |= -32768
    1590:	bf 81 00 00 00 00 00 00	r1 = r8
    1591:	dc 01 00 00 10 00 00 00	r1 = be16 r1
    1592:	6b 1a b8 ff 00 00 00 00	*(u16 *)(r10 - 72) = r1
    1593:	6b 1a 90 ff 00 00 00 00	*(u16 *)(r10 - 112) = r1
    1594:	bf a2 00 00 00 00 00 00	r2 = r10
    1595:	07 02 00 00 98 ff ff ff	r2 += -104
    1596:	18 01 00 00 00 00 00 00 00 00 00 00 00 00 00 00	r1 = 0 ll
    1598:	85 00 00 00 01 00 00 00	call 1
    1599:	55 00 1d 00 00 00 00 00	if r0 != 0 goto +29 <LBB1_246>
    1600:	85 00 00 00 76 00 00 00	call 118
    1601:	77 00 00 00 08 00 00 00	r0 >>= 8
    1602:	7b 0a 60 ff 00 00 00 00	*(u64 *)(r10 - 160) = r0
    1603:	7b 0a c0 ff 00 00 00 00	*(u64 *)(r10 - 64) = r0
    1604:	bf a2 00 00 00 00 00 00	r2 = r10
    1605:	07 02 00 00 98 ff ff ff	r2 += -104
    1606:	bf a3 00 00 00 00 00 00	r3 = r10
    1607:	07 03 00 00 c0 ff ff ff	r3 += -64
    1608:	18 01 00 00 00 00 00 00 00 00 00 00 00 00 00 00	r1 = 0 ll
    1610:	b4 04 00 00 01 00 00 00	w4 = 1
    1611:	85 00 00 00 02 00 00 00	call 2
    1612:	bc 07 00 00 00 00 00 00	w7 = w0
    1613:	56 00 0f 00 00 00 00 00	if w0 != 0 goto +15 <LBB1_246>
    1614:	bf a2 00 00 00 00 00 00	r2 = r10
    1615:	07 02 00 00 38 ff ff ff	r2 += -200
    1616:	bf a3 00 00 00 00 00 00	r3 = r10
    1617:	07 03 00 00 60 ff ff ff	r3 += -160
    1618:	18 01 00 00 00 00 00 00 00 00 00 00 00 00 00 00	r1 = 0 ll
    1620:	b4 04 00 00 01 00 00 00	w4 = 1
    1621:	85 00 00 00 02 00 00 00	call 2
    1622:	bc 07 00 00 00 00 00 00	w7 = w0
    1623:	16 07 25 16 00 00 00 00	if w7 == 0 goto +5669 <LBB1_731>
    1624:	bf a2 00 00 00 00 00 00	r2 = r10
    1625:	07 02 00 00 98 ff ff ff	r2 += -104
    1626:	18 01 00 00 00 00 00 00 00 00 00 00 00 00 00 00	r1 = 0 ll
    1628:	85 00 00 00 03 00 00 00	call 3

00000000000032e8 <LBB1_246>:
    1629:	04 08 00 00 01 00 00 00	w8 += 1
    1630:	bc 81 00 00 00 00 00 00	w1 = w8
    1631:	54 01 00 00 ff ff 00 00	w1 &= 65535
    1632:	34 01 00 00 ff 7f 00 00	w1 /= 32767
    1633:	0c 18 00 00 00 00 00 00	w8 += w1
    1634:	44 08 00 00 00 80 ff ff	w8 |= -32768
    1635:	bf 81 00 00 00 00 00 00	r1 = r8
    1636:	dc 01 00 00 10 00 00 00	r1 = be16 r1
    1637:	6b 1a b8 ff 00 00 00 00	*(u16 *)(r10 - 72) = r1
    1638:	6b 1a 90 ff 00 00 00 00	*(u16 *)(r10 - 112) = r1
    1639:	bf a2 00 00 00 00 00 00	r2 = r10
    1640:	07 02 00 00 98 ff ff ff	r2 += -104
    1641:	18 01 00 00 00 00 00 00 00 00 00 00 00 00 00 00	r1 = 0 ll
    1643:	85 00 00 00 01 00 00 00	call 1
    1644:	55 00 1d 00 00 00 00 00	if r0 != 0 goto +29 <LBB1_250>
    1645:	85 00 00 00 76 00 00 00	call 118
    1646:	77 00 00 00 08 00 00 00	r0 >>= 8
    1647:	7b 0a 60 ff 00 00 00 00	*(u64 *)(r10 - 160) = r0
    1648:	7b 0a c0 ff 00 00 00 00	*(u64 *)(r10 - 64) = r0
    1649:	bf a2 00 00 00 00 00 00	r2 = r10
    1650:	07 02 00 00 98 ff ff ff	r2 += -104
    1651:	bf a3 00 00 00 00 00 00	r3 = r10
    1652:	07 03 00 00 c0 ff ff ff	r3 += -64
    1653:	18 01 00 00 00 00 00 00 00 00 00 00 00 00 00 00	r1 = 0 ll
    1655:	b4 04 00 00 01 00 00 00	w4 = 1
    1656:	85 00 00 00 02 00 00 00	call 2
    1657:	bc 07 00 00 00 00 00 00	w7 = w0
    1658:	56 00 0f 00 00 00 00 00	if w0 != 0 goto +15 <LBB1_250>
    1659:	bf a2 00 00 00 00 00 00	r2 = r10
    1660:	07 02 00 00 38 ff ff ff	r2 += -200
    1661:	bf a3 00 00 00 00 00 00	r3 = r10
    1662:	07 03 00 00 60 ff ff ff	r3 += -160
    1663:	18 01 00 00 00 00 00 00 00 00 00 00 00 00 00 00	r1 = 0 ll
    1665:	b4 04 00 00 01 00 00 00	w4 = 1
    1666:	85 00 00 00 02 00 00 00	call 2
    1667:	bc 07 00 00 00 00 00 00	w7 = w0
    1668:	16 07 f8 15 00 00 00 00	if w7 == 0 goto +5624 <LBB1_731>
    1669:	bf a2 00 00 00 00 00 00	r2 = r10
    1670:	07 02 00 00 98 ff ff ff	r2 += -104
    1671:	18 01 00 00 00 00 00 00 00 00 00 00 00 00 00 00	r1 = 0 ll
    1673:	85 00 00 00 03 00 00 00	call 3

0000000000003450 <LBB1_250>:
    1674:	04 08 00 00 01 00 00 00	w8 += 1
    1675:	bc 81 00 00 00 00 00 00	w1 = w8
    1676:	54 01 00 00 ff ff 00 00	w1 &= 65535
    1677:	34 01 00 00 ff 7f 00 00	w1 /= 32767
    1678:	0c 18 00 00 00 00 00 00	w8 += w1
    1679:	44 08 00 00 00 80 ff ff	w8 |= -32768
    1680:	bf 81 00 00 00 00 00 00	r1 = r8
    1681:	dc 01 00 00 10 00 00 00	r1 = be16 r1
    1682:	6b 1a b8 ff 00 00 00 00	*(u16 *)(r10 - 72) = r1
    1683:	6b 1a 90 ff 00 00 00 00	*(u16 *)(r10 - 112) = r1
    1684:	bf a2 00 00 00 00 00 00	r2 = r10
    1685:	07 02 00 00 98 ff ff ff	r2 += -104
    1686:	18 01 00 00 00 00 00 00 00 00 00 00 00 00 00 00	r1 = 0 ll
    1688:	85 00 00 00 01 00 00 00	call 1
    1689:	55 00 1d 00 00 00 00 00	if r0 != 0 goto +29 <LBB1_254>
    1690:	85 00 00 00 76 00 00 00	call 118
    1691:	77 00 00 00 08 00 00 00	r0 >>= 8
    1692:	7b 0a 60 ff 00 00 00 00	*(u64 *)(r10 - 160) = r0
    1693:	7b 0a c0 ff 00 00 00 00	*(u64 *)(r10 - 64) = r0
    1694:	bf a2 00 00 00 00 00 00	r2 = r10
    1695:	07 02 00 00 98 ff ff ff	r2 += -104
    1696:	bf a3 00 00 00 00 00 00	r3 = r10
    1697:	07 03 00 00 c0 ff ff ff	r3 += -64
    1698:	18 01 00 00 00 00 00 00 00 00 00 00 00 00 00 00	r1 = 0 ll
    1700:	b4 04 00 00 01 00 00 00	w4 = 1
    1701:	85 00 00 00 02 00 00 00	call 2
    1702:	bc 07 00 00 00 00 00 00	w7 = w0
    1703:	56 00 0f 00 00 00 00 00	if w0 != 0 goto +15 <LBB1_254>
    1704:	bf a2 00 00 00 00 00 00	r2 = r10
    1705:	07 02 00 00 38 ff ff ff	r2 += -200
    1706:	bf a3 00 00 00 00 00 00	r3 = r10
    1707:	07 03 00 00 60 ff ff ff	r3 += -160
    1708:	18 01 00 00 00 00 00 00 00 00 00 00 00 00 00 00	r1 = 0 ll
    1710:	b4 04 00 00 01 00 00 00	w4 = 1
    1711:	85 00 00 00 02 00 00 00	call 2
    1712:	bc 07 00 00 00 00 00 00	w7 = w0
    1713:	16 07 cb 15 00 00 00 00	if w7 == 0 goto +5579 <LBB1_731>
    1714:	bf a2 00 00 00 00 00 00	r2 = r10
    1715:	07 02 00 00 98 ff ff ff	r2 += -104
    1716:	18 01 00 00 00 00 00 00 00 00 00 00 00 00 00 00	r1 = 0 ll
    1718:	85 00 00 00 03 00 00 00	call 3

00000000000035b8 <LBB1_254>:
    1719:	04 08 00 00 01 00 00 00	w8 += 1
    1720:	bc 81 00 00 00 00 00 00	w1 = w8
    1721:	54 01 00 00 ff ff 00 00	w1 &= 65535
    1722:	34 01 00 00 ff 7f 00 00	w1 /= 32767
    1723:	0c 18 00 00 00 00 00 00	w8 += w1
    1724:	44 08 00 00 00 80 ff ff	w8 |= -32768
    1725:	bf 81 00 00 00 00 00 00	r1 = r8
    1726:	dc 01 00 00 10 00 00 00	r1 = be16 r1
    1727:	6b 1a b8 ff 00 00 00 00	*(u16 *)(r10 - 72) = r1
    1728:	6b 1a 90 ff 00 00 00 00	*(u16 *)(r10 - 112) = r1
    1729:	bf a2 00 00 00 00 00 00	r2 = r10
    1730:	07 02 00 00 98 ff ff ff	r2 += -104
    1731:	18 01 00 00 00 00 00 00 00 00 00 00 00 00 00 00	r1 = 0 ll
    1733:	85 00 00 00 01 00 00 00	call 1
    1734:	55 00 1d 00 00 00 00 00	if r0 != 0 goto +29 <LBB1_258>
    1735:	85 00 00 00 76 00 00 00	call 118
    1736:	77 00 00 00 08 00 00 00	r0 >>= 8
    1737:	7b 0a 60 ff 00 00 00 00	*(u64 *)(r10 - 160) = r0
    1738:	7b 0a c0 ff 00 00 00 00	*(u64 *)(r10 - 64) = r0
    1739:	bf a2 00 00 00 00 00 00	r2 = r10
    1740:	07 02 00 00 98 ff ff ff	r2 += -104
    1741:	bf a3 00 00 00 00 00 00	r3 = r10
    1742:	07 03 00 00 c0 ff ff ff	r3 += -64
    1743:	18 01 00 00 00 00 00 00 00 00 00 00 00 00 00 00	r1 = 0 ll
    1745:	b4 04 00 00 01 00 00 00	w4 = 1
    1746:	85 00 00 00 02 00 00 00	call 2
    1747:	bc 07 00 00 00 00 00 00	w7 = w0
    1748:	56 00 0f 00 00 00 00 00	if w0 != 0 goto +15 <LBB1_258>
    1749:	bf a2 00 00 00 00 00 00	r2 = r10
    1750:	07 02 00 00 38 ff ff ff	r2 += -200
    1751:	bf a3 00 00 00 00 00 00	r3 = r10
    1752:	07 03 00 00 60 ff ff ff	r3 += -160
    1753:	18 01 00 00 00 00 00 00 00 00 00 00 00 00 00 00	r1 = 0 ll
    1755:	b4 04 00 00 01 00 00 00	w4 = 1
    1756:	85 00 00 00 02 00 00 00	call 2
    1757:	bc 07 00 00 00 00 00 00	w7 = w0
    1758:	16 07 9e 15 00 00 00 00	if w7 == 0 goto +5534 <LBB1_731>
    1759:	bf a2 00 00 00 00 00 00	r2 = r10
    1760:	07 02 00 00 98 ff ff ff	r2 += -104
    1761:	18 01 00 00 00 00 00 00 00 00 00 00 00 00 00 00	r1 = 0 ll
    1763:	85 00 00 00 03 00 00 00	call 3

0000000000003720 <LBB1_258>:
    1764:	04 08 00 00 01 00 00 00	w8 += 1
    1765:	bc 81 00 00 00 00 00 00	w1 = w8
    1766:	54 01 00 00 ff ff 00 00	w1 &= 65535
    1767:	34 01 00 00 ff 7f 00 00	w1 /= 32767
    1768:	0c 18 00 00 00 00 00 00	w8 += w1
    1769:	44 08 00 00 00 80 ff ff	w8 |= -32768
    1770:	bf 81 00 00 00 00 00 00	r1 = r8
    1771:	dc 01 00 00 10 00 00 00	r1 = be16 r1
    1772:	6b 1a b8 ff 00 00 00 00	*(u16 *)(r10 - 72) = r1
    1773:	6b 1a 90 ff 00 00 00 00	*(u16 *)(r10 - 112) = r1
    1774:	bf a2 00 00 00 00 00 00	r2 = r10
    1775:	07 02 00 00 98 ff ff ff	r2 += -104
    1776:	18 01 00 00 00 00 00 00 00 00 00 00 00 00 00 00	r1 = 0 ll
    1778:	85 00 00 00 01 00 00 00	call 1
    1779:	55 00 1d 00 00 00 00 00	if r0 != 0 goto +29 <LBB1_262>
    1780:	85 00 00 00 76 00 00 00	call 118
    1781:	77 00 00 00 08 00 00 00	r0 >>= 8
    1782:	7b 0a 60 ff 00 00 00 00	*(u64 *)(r10 - 160) = r0
    1783:	7b 0a c0 ff 00 00 00 00	*(u64 *)(r10 - 64) = r0
    1784:	bf a2 00 00 00 00 00 00	r2 = r10
    1785:	07 02 00 00 98 ff ff ff	r2 += -104
    1786:	bf a3 00 00 00 00 00 00	r3 = r10
    1787:	07 03 00 00 c0 ff ff ff	r3 += -64
    1788:	18 01 00 00 00 00 00 00 00 00 00 00 00 00 00 00	r1 = 0 ll
    1790:	b4 04 00 00 01 00 00 00	w4 = 1
    1791:	85 00 00 00 02 00 00 00	call 2
    1792:	bc 07 00 00 00 00 00 00	w7 = w0
    1793:	56 00 0f 00 00 00 00 00	if w0 != 0 goto +15 <LBB1_262>
    1794:	bf a2 00 00 00 00 00 00	r2 = r10
    1795:	07 02 00 00 38 ff ff ff	r2 += -200
    1796:	bf a3 00 00 00 00 00 00	r3 = r10
    1797:	07 03 00 00 60 ff ff ff	r3 += -160
    1798:	18 01 00 00 00 00 00 00 00 00 00 00 00 00 00 00	r1 = 0 ll
    1800:	b4 04 00 00 01 00 00 00	w4 = 1
    1801:	85 00 00 00 02 00 00 00	call 2
    1802:	bc 07 00 00 00 00 00 00	w7 = w0
    1803:	16 07 71 15 00 00 00 00	if w7 == 0 goto +5489 <LBB1_731>
    1804:	bf a2 00 00 00 00 00 00	r2 = r10
    1805:	07 02 00 00 98 ff ff ff	r2 += -104
    1806:	18 01 00 00 00 00 00 00 00 00 00 00 00 00 00 00	r1 = 0 ll
    1808:	85 00 00 00 03 00 00 00	call 3

0000000000003888 <LBB1_262>:
    1809:	04 08 00 00 01 00 00 00	w8 += 1
    1810:	bc 81 00 00 00 00 00 00	w1 = w8
    1811:	54 01 00 00 ff ff 00 00	w1 &= 65535
    1812:	34 01 00 00 ff 7f 00 00	w1 /= 32767
    1813:	0c 18 00 00 00 00 00 00	w8 += w1
    1814:	44 08 00 00 00 80 ff ff	w8 |= -32768
    1815:	bf 81 00 00 00 00 00 00	r1 = r8
    1816:	dc 01 00 00 10 00 00 00	r1 = be16 r1
    1817:	6b 1a b8 ff 00 00 00 00	*(u16 *)(r10 - 72) = r1
    1818:	6b 1a 90 ff 00 00 00 00	*(u16 *)(r10 - 112) = r1
    1819:	bf a2 00 00 00 00 00 00	r2 = r10
    1820:	07 02 00 00 98 ff ff ff	r2 += -104
    1821:	18 01 00 00 00 00 00 00 00 00 00 00 00 00 00 00	r1 = 0 ll
    1823:	85 00 00 00 01 00 00 00	call 1
    1824:	55 00 1d 00 00 00 00 00	if r0 != 0 goto +29 <LBB1_266>
    1825:	85 00 00 00 76 00 00 00	call 118
    1826:	77 00 00 00 08 00 00 00	r0 >>= 8
    1827:	7b 0a 60 ff 00 00 00 00	*(u64 *)(r10 - 160) = r0
    1828:	7b 0a c0 ff 00 00 00 00	*(u64 *)(r10 - 64) = r0
    1829:	bf a2 00 00 00 00 00 00	r2 = r10
    1830:	07 02 00 00 98 ff ff ff	r2 += -104
    1831:	bf a3 00 00 00 00 00 00	r3 = r10
    1832:	07 03 00 00 c0 ff ff ff	r3 += -64
    1833:	18 01 00 00 00 00 00 00 00 00 00 00 00 00 00 00	r1 = 0 ll
    1835:	b4 04 00 00 01 00 00 00	w4 = 1
    1836:	85 00 00 00 02 00 00 00	call 2
    1837:	bc 07 00 00 00 00 00 00	w7 = w0
    1838:	56 00 0f 00 00 00 00 00	if w0 != 0 goto +15 <LBB1_266>
    1839:	bf a2 00 00 00 00 00 00	r2 = r10
    1840:	07 02 00 00 38 ff ff ff	r2 += -200
    1841:	bf a3 00 00 00 00 00 00	r3 = r10
    1842:	07 03 00 00 60 ff ff ff	r3 += -160
    1843:	18 01 00 00 00 00 00 00 00 00 00 00 00 00 00 00	r1 = 0 ll
    1845:	b4 04 00 00 01 00 00 00	w4 = 1
    1846:	85 00 00 00 02 00 00 00	call 2
    1847:	bc 07 00 00 00 00 00 00	w7 = w0
    1848:	16 07 44 15 00 00 00 00	if w7 == 0 goto +5444 <LBB1_731>
    1849:	bf a2 00 00 00 00 00 00	r2 = r10
    1850:	07 02 00 00 98 ff ff ff	r2 += -104
    1851:	18 01 00 00 00 00 00 00 00 00 00 00 00 00 00 00	r1 = 0 ll
    1853:	85 00 00 00 03 00 00 00	call 3

00000000000039f0 <LBB1_266>:
    1854:	04 08 00 00 01 00 00 00	w8 += 1
    1855:	bc 81 00 00 00 00 00 00	w1 = w8
    1856:	54 01 00 00 ff ff 00 00	w1 &= 65535
    1857:	34 01 00 00 ff 7f 00 00	w1 /= 32767
    1858:	0c 18 00 00 00 00 00 00	w8 += w1
    1859:	44 08 00 00 00 80 ff ff	w8 |= -32768
    1860:	bf 81 00 00 00 00 00 00	r1 = r8
    1861:	dc 01 00 00 10 00 00 00	r1 = be16 r1
    1862:	6b 1a b8 ff 00 00 00 00	*(u16 *)(r10 - 72) = r1
    1863:	6b 1a 90 ff 00 00 00 00	*(u16 *)(r10 - 112) = r1
    1864:	bf a2 00 00 00 00 00 00	r2 = r10
    1865:	07 02 00 00 98 ff ff ff	r2 += -104
    1866:	18 01 00 00 00 00 00 00 00 00 00 00 00 00 00 00	r1 = 0 ll
    1868:	85 00 00 00 01 00 00 00	call 1
    1869:	55 00 1d 00 00 00 00 00	if r0 != 0 goto +29 <LBB1_270>
    1870:	85 00 00 00 76 00 00 00	call 118
    1871:	77 00 00 00 08 00 00 00	r0 >>= 8
    1872:	7b 0a 60 ff 00 00 00 00	*(u64 *)(r10 - 160) = r0
    1873:	7b 0a c0 ff 00 00 00 00	*(u64 *)(r10 - 64) = r0
    1874:	bf a2 00 00 00 00 00 00	r2 = r10
    1875:	07 02 00 00 98 ff ff ff	r2 += -104
    1876:	bf a3 00 00 00 00 00 00	r3 = r10
    1877:	07 03 00 00 c0 ff ff ff	r3 += -64
    1878:	18 01 00 00 00 00 00 00 00 00 00 00 00 00 00 00	r1 = 0 ll
    1880:	b4 04 00 00 01 00 00 00	w4 = 1
    1881:	85 00 00 00 02 00 00 00	call 2
    1882:	bc 07 00 00 00 00 00 00	w7 = w0
    1883:	56 00 0f 00 00 00 00 00	if w0 != 0 goto +15 <LBB1_270>
    1884:	bf a2 00 00 00 00 00 00	r2 = r10
    1885:	07 02 00 00 38 ff ff ff	r2 += -200
    1886:	bf a3 00 00 00 00 00 00	r3 = r10
    1887:	07 03 00 00 60 ff ff ff	r3 += -160
    1888:	18 01 00 00 00 00 00 00 00 00 00 00 00 00 00 00	r1 = 0 ll
    1890:	b4 04 00 00 01 00 00 00	w4 = 1
    1891:	85 00 00 00 02 00 00 00	call 2
    1892:	bc 07 00 00 00 00 00 00	w7 = w0
    1893:	16 07 17 15 00 00 00 00	if w7 == 0 goto +5399 <LBB1_731>
    1894:	bf a2 00 00 00 00 00 00	r2 = r10
    1895:	07 02 00 00 98 ff ff ff	r2 += -104
    1896:	18 01 00 00 00 00 00 00 00 00 00 00 00 00 00 00	r1 = 0 ll
    1898:	85 00 00 00 03 00 00 00	call 3

0000000000003b58 <LBB1_270>:
    1899:	04 08 00 00 01 00 00 00	w8 += 1
    1900:	bc 81 00 00 00 00 00 00	w1 = w8
    1901:	54 01 00 00 ff ff 00 00	w1 &= 65535
    1902:	34 01 00 00 ff 7f 00 00	w1 /= 32767
    1903:	0c 18 00 00 00 00 00 00	w8 += w1
    1904:	44 08 00 00 00 80 ff ff	w8 |= -32768
    1905:	bf 81 00 00 00 00 00 00	r1 = r8
    1906:	dc 01 00 00 10 00 00 00	r1 = be16 r1
    1907:	6b 1a b8 ff 00 00 00 00	*(u16 *)(r10 - 72) = r1
    1908:	6b 1a 90 ff 00 00 00 00	*(u16 *)(r10 - 112) = r1
    1909:	bf a2 00 00 00 00 00 00	r2 = r10
    1910:	07 02 00 00 98 ff ff ff	r2 += -104
    1911:	18 01 00 00 00 00 00 00 00 00 00 00 00 00 00 00	r1 = 0 ll
    1913:	85 00 00 00 01 00 00 00	call 1
    1914:	55 00 1d 00 00 00 00 00	if r0 != 0 goto +29 <LBB1_274>
    1915:	85 00 00 00 76 00 00 00	call 118
    1916:	77 00 00 00 08 00 00 00	r0 >>= 8
    1917:	7b 0a 60 ff 00 00 00 00	*(u64 *)(r10 - 160) = r0
    1918:	7b 0a c0 ff 00 00 00 00	*(u64 *)(r10 - 64) = r0
    1919:	bf a2 00 00 00 00 00 00	r2 = r10
    1920:	07 02 00 00 98 ff ff ff	r2 += -104
    1921:	bf a3 00 00 00 00 00 00	r3 = r10
    1922:	07 03 00 00 c0 ff ff ff	r3 += -64
    1923:	18 01 00 00 00 00 00 00 00 00 00 00 00 00 00 00	r1 = 0 ll
    1925:	b4 04 00 00 01 00 00 00	w4 = 1
    1926:	85 00 00 00 02 00 00 00	call 2
    1927:	bc 07 00 00 00 00 00 00	w7 = w0
    1928:	56 00 0f 00 00 00 00 00	if w0 != 0 goto +15 <LBB1_274>
    1929:	bf a2 00 00 00 00 00 00	r2 = r10
    1930:	07 02 00 00 38 ff ff ff	r2 += -200
    1931:	bf a3 00 00 00 00 00 00	r3 = r10
    1932:	07 03 00 00 60 ff ff ff	r3 += -160
    1933:	18 01 00 00 00 00 00 00 00 00 00 00 00 00 00 00	r1 = 0 ll
    1935:	b4 04 00 00 01 00 00 00	w4 = 1
    1936:	85 00 00 00 02 00 00 00	call 2
    1937:	bc 07 00 00 00 00 00 00	w7 = w0
    1938:	16 07 ea 14 00 00 00 00	if w7 == 0 goto +5354 <LBB1_731>
    1939:	bf a2 00 00 00 00 00 00	r2 = r10
    1940:	07 02 00 00 98 ff ff ff	r2 += -104
    1941:	18 01 00 00 00 00 00 00 00 00 00 00 00 00 00 00	r1 = 0 ll
    1943:	85 00 00 00 03 00 00 00	call 3

0000000000003cc0 <LBB1_274>:
    1944:	04 08 00 00 01 00 00 00	w8 += 1
    1945:	bc 81 00 00 00 00 00 00	w1 = w8
    1946:	54 01 00 00 ff ff 00 00	w1 &= 65535
    1947:	34 01 00 00 ff 7f 00 00	w1 /= 32767
    1948:	0c 18 00 00 00 00 00 00	w8 += w1
    1949:	44 08 00 00 00 80 ff ff	w8 |= -32768
    1950:	bf 81 00 00 00 00 00 00	r1 = r8
    1951:	dc 01 00 00 10 00 00 00	r1 = be16 r1
    1952:	6b 1a b8 ff 00 00 00 00	*(u16 *)(r10 - 72) = r1
    1953:	6b 1a 90 ff 00 00 00 00	*(u16 *)(r10 - 112) = r1
    1954:	bf a2 00 00 00 00 00 00	r2 = r10
    1955:	07 02 00 00 98 ff ff ff	r2 += -104
    1956:	18 01 00 00 00 00 00 00 00 00 00 00 00 00 00 00	r1 = 0 ll
    1958:	85 00 00 00 01 00 00 00	call 1
    1959:	55 00 1d 00 00 00 00 00	if r0 != 0 goto +29 <LBB1_278>
    1960:	85 00 00 00 76 00 00 00	call 118
    1961:	77 00 00 00 08 00 00 00	r0 >>= 8
    1962:	7b 0a 60 ff 00 00 00 00	*(u64 *)(r10 - 160) = r0
    1963:	7b 0a c0 ff 00 00 00 00	*(u64 *)(r10 - 64) = r0
    1964:	bf a2 00 00 00 00 00 00	r2 = r10
    1965:	07 02 00 00 98 ff ff ff	r2 += -104
    1966:	bf a3 00 00 00 00 00 00	r3 = r10
    1967:	07 03 00 00 c0 ff ff ff	r3 += -64
    1968:	18 01 00 00 00 00 00 00 00 00 00 00 00 00 00 00	r1 = 0 ll
    1970:	b4 04 00 00 01 00 00 00	w4 = 1
    1971:	85 00 00 00 02 00 00 00	call 2
    1972:	bc 07 00 00 00 00 00 00	w7 = w0
    1973:	56 00 0f 00 00 00 00 00	if w0 != 0 goto +15 <LBB1_278>
    1974:	bf a2 00 00 00 00 00 00	r2 = r10
    1975:	07 02 00 00 38 ff ff ff	r2 += -200
    1976:	bf a3 00 00 00 00 00 00	r3 = r10
    1977:	07 03 00 00 60 ff ff ff	r3 += -160
    1978:	18 01 00 00 00 00 00 00 00 00 00 00 00 00 00 00	r1 = 0 ll
    1980:	b4 04 00 00 01 00 00 00	w4 = 1
    1981:	85 00 00 00 02 00 00 00	call 2
    1982:	bc 07 00 00 00 00 00 00	w7 = w0
    1983:	16 07 bd 14 00 00 00 00	if w7 == 0 goto +5309 <LBB1_731>
    1984:	bf a2 00 00 00 00 00 00	r2 = r10
    1985:	07 02 00 00 98 ff ff ff	r2 += -104
    1986:	18 01 00 00 00 00 00 00 00 00 00 00 00 00 00 00	r1 = 0 ll
    1988:	85 00 00 00 03 00 00 00	call 3

0000000000003e28 <LBB1_278>:
    1989:	04 08 00 00 01 00 00 00	w8 += 1
    1990:	bc 81 00 00 00 00 00 00	w1 = w8
    1991:	54 01 00 00 ff ff 00 00	w1 &= 65535
    1992:	34 01 00 00 ff 7f 00 00	w1 /= 32767
    1993:	0c 18 00 00 00 00 00 00	w8 += w1
    1994:	44 08 00 00 00 80 ff ff	w8 |= -32768
    1995:	bf 81 00 00 00 00 00 00	r1 = r8
    1996:	dc 01 00 00 10 00 00 00	r1 = be16 r1
    1997:	6b 1a b8 ff 00 00 00 00	*(u16 *)(r10 - 72) = r1
    1998:	6b 1a 90 ff 00 00 00 00	*(u16 *)(r10 - 112) = r1
    1999:	bf a2 00 00 00 00 00 00	r2 = r10
    2000:	07 02 00 00 98 ff ff ff	r2 += -104
    2001:	18 01 00 00 00 00 00 00 00 00 00 00 00 00 00 00	r1 = 0 ll
    2003:	85 00 00 00 01 00 00 00	call 1
    2004:	55 00 1d 00 00 00 00 00	if r0 != 0 goto +29 <LBB1_282>
    2005:	85 00 00 00 76 00 00 00	call 118
    2006:	77 00 00 00 08 00 00 00	r0 >>= 8
    2007:	7b 0a 60 ff 00 00 00 00	*(u64 *)(r10 - 160) = r0
    2008:	7b 0a c0 ff 00 00 00 00	*(u64 *)(r10 - 64) = r0
    2009:	bf a2 00 00 00 00 00 00	r2 = r10
    2010:	07 02 00 00 98 ff ff ff	r2 += -104
    2011:	bf a3 00 00 00 00 00 00	r3 = r10
    2012:	07 03 00 00 c0 ff ff ff	r3 += -64
    2013:	18 01 00 00 00 00 00 00 00 00 00 00 00 00 00 00	r1 = 0 ll
    2015:	b4 04 00 00 01 00 00 00	w4 = 1
    2016:	85 00 00 00 02 00 00 00	call 2
    2017:	bc 07 00 00 00 00 00 00	w7 = w0
    2018:	56 00 0f 00 00 00 00 00	if w0 != 0 goto +15 <LBB1_282>
    2019:	bf a2 00 00 00 00 00 00	r2 = r10
    2020:	07 02 00 00 38 ff ff ff	r2 += -200
    2021:	bf a3 00 00 00 00 00 00	r3 = r10
    2022:	07 03 00 00 60 ff ff ff	r3 += -160
    2023:	18 01 00 00 00 00 00 00 00 00 00 00 00 00 00 00	r1 = 0 ll
    2025:	b4 04 00 00 01 00 00 00	w4 = 1
    2026:	85 00 00 00 02 00 00 00	call 2
    2027:	bc 07 00 00 00 00 00 00	w7 = w0
    2028:	16 07 90 14 00 00 00 00	if w7 == 0 goto +5264 <LBB1_731>
    2029:	bf a2 00 00 00 00 00 00	r2 = r10
    2030:	07 02 00 00 98 ff ff ff	r2 += -104
    2031:	18 01 00 00 00 00 00 00 00 00 00 00 00 00 00 00	r1 = 0 ll
    2033:	85 00 00 00 03 00 00 00	call 3

0000000000003f90 <LBB1_282>:
    2034:	04 08 00 00 01 00 00 00	w8 += 1
    2035:	bc 81 00 00 00 00 00 00	w1 = w8
    2036:	54 01 00 00 ff ff 00 00	w1 &= 65535
    2037:	34 01 00 00 ff 7f 00 00	w1 /= 32767
    2038:	0c 18 00 00 00 00 00 00	w8 += w1
    2039:	44 08 00 00 00 80 ff ff	w8 |= -32768
    2040:	bf 81 00 00 00 00 00 00	r1 = r8
    2041:	dc 01 00 00 10 00 00 00	r1 = be16 r1
    2042:	6b 1a b8 ff 00 00 00 00	*(u16 *)(r10 - 72) = r1
    2043:	6b 1a 90 ff 00 00 00 00	*(u16 *)(r10 - 112) = r1
    2044:	bf a2 00 00 00 00 00 00	r2 = r10
    2045:	07 02 00 00 98 ff ff ff	r2 += -104
    2046:	18 01 00 00 00 00 00 00 00 00 00 00 00 00 00 00	r1 = 0 ll
    2048:	85 00 00 00 01 00 00 00	call 1
    2049:	55 00 1d 00 00 00 00 00	if r0 != 0 goto +29 <LBB1_286>
    2050:	85 00 00 00 76 00 00 00	call 118
    2051:	77 00 00 00 08 00 00 00	r0 >>= 8
    2052:	7b 0a 60 ff 00 00 00 00	*(u64 *)(r10 - 160) = r0
    2053:	7b 0a c0 ff 00 00 00 00	*(u64 *)(r10 - 64) = r0
    2054:	bf a2 00 00 00 00 00 00	r2 = r10
    2055:	07 02 00 00 98 ff ff ff	r2 += -104
    2056:	bf a3 00 00 00 00 00 00	r3 = r10
    2057:	07 03 00 00 c0 ff ff ff	r3 += -64
    2058:	18 01 00 00 00 00 00 00 00 00 00 00 00 00 00 00	r1 = 0 ll
    2060:	b4 04 00 00 01 00 00 00	w4 = 1
    2061:	85 00 00 00 02 00 00 00	call 2
    2062:	bc 07 00 00 00 00 00 00	w7 = w0
    2063:	56 00 0f 00 00 00 00 00	if w0 != 0 goto +15 <LBB1_286>
    2064:	bf a2 00 00 00 00 00 00	r2 = r10
    2065:	07 02 00 00 38 ff ff ff	r2 += -200
    2066:	bf a3 00 00 00 00 00 00	r3 = r10
    2067:	07 03 00 00 60 ff ff ff	r3 += -160
    2068:	18 01 00 00 00 00 00 00 00 00 00 00 00 00 00 00	r1 = 0 ll
    2070:	b4 04 00 00 01 00 00 00	w4 = 1
    2071:	85 00 00 00 02 00 00 00	call 2
    2072:	bc 07 00 00 00 00 00 00	w7 = w0
    2073:	16 07 63 14 00 00 00 00	if w7 == 0 goto +5219 <LBB1_731>
    2074:	bf a2 00 00 00 00 00 00	r2 = r10
    2075:	07 02 00 00 98 ff ff ff	r2 += -104
    2076:	18 01 00 00 00 00 00 00 00 00 00 00 00 00 00 00	r1 = 0 ll
    2078:	85 00 00 00 03 00 00 00	call 3

00000000000040f8 <LBB1_286>:
    2079:	04 08 00 00 01 00 00 00	w8 += 1
    2080:	bc 81 00 00 00 00 00 00	w1 = w8
    2081:	54 01 00 00 ff ff 00 00	w1 &= 65535
    2082:	34 01 00 00 ff 7f 00 00	w1 /= 32767
    2083:	0c 18 00 00 00 00 00 00	w8 += w1
    2084:	44 08 00 00 00 80 ff ff	w8 |= -32768
    2085:	bf 81 00 00 00 00 00 00	r1 = r8
    2086:	dc 01 00 00 10 00 00 00	r1 = be16 r1
    2087:	6b 1a b8 ff 00 00 00 00	*(u16 *)(r10 - 72) = r1
    2088:	6b 1a 90 ff 00 00 00 00	*(u16 *)(r10 - 112) = r1
    2089:	bf a2 00 00 00 00 00 00	r2 = r10
    2090:	07 02 00 00 98 ff ff ff	r2 += -104
    2091:	18 01 00 00 00 00 00 00 00 00 00 00 00 00 00 00	r1 = 0 ll
    2093:	85 00 00 00 01 00 00 00	call 1
    2094:	55 00 1d 00 00 00 00 00	if r0 != 0 goto +29 <LBB1_290>
    2095:	85 00 00 00 76 00 00 00	call 118
    2096:	77 00 00 00 08 00 00 00	r0 >>= 8
    2097:	7b 0a 60 ff 00 00 00 00	*(u64 *)(r10 - 160) = r0
    2098:	7b 0a c0 ff 00 00 00 00	*(u64 *)(r10 - 64) = r0
    2099:	bf a2 00 00 00 00 00 00	r2 = r10
    2100:	07 02 00 00 98 ff ff ff	r2 += -104
    2101:	bf a3 00 00 00 00 00 00	r3 = r10
    2102:	07 03 00 00 c0 ff ff ff	r3 += -64
    2103:	18 01 00 00 00 00 00 00 00 00 00 00 00 00 00 00	r1 = 0 ll
    2105:	b4 04 00 00 01 00 00 00	w4 = 1
    2106:	85 00 00 00 02 00 00 00	call 2
    2107:	bc 07 00 00 00 00 00 00	w7 = w0
    2108:	56 00 0f 00 00 00 00 00	if w0 != 0 goto +15 <LBB1_290>
    2109:	bf a2 00 00 00 00 00 00	r2 = r10
    2110:	07 02 00 00 38 ff ff ff	r2 += -200
    2111:	bf a3 00 00 00 00 00 00	r3 = r10
    2112:	07 03 00 00 60 ff ff ff	r3 += -160
    2113:	18 01 00 00 00 00 00 00 00 00 00 00 00 00 00 00	r1 = 0 ll
    2115:	b4 04 00 00 01 00 00 00	w4 = 1
    2116:	85 00 00 00 02 00 00 00	call 2
    2117:	bc 07 00 00 00 00 00 00	w7 = w0
    2118:	16 07 36 14 00 00 00 00	if w7 == 0 goto +5174 <LBB1_731>
    2119:	bf a2 00 00 00 00 00 00	r2 = r10
    2120:	07 02 00 00 98 ff ff ff	r2 += -104
    2121:	18 01 00 00 00 00 00 00 00 00 00 00 00 00 00 00	r1 = 0 ll
    2123:	85 00 00 00 03 00 00 00	call 3

0000000000004260 <LBB1_290>:
    2124:	04 08 00 00 01 00 00 00	w8 += 1
    2125:	bc 81 00 00 00 00 00 00	w1 = w8
    2126:	54 01 00 00 ff ff 00 00	w1 &= 65535
    2127:	34 01 00 00 ff 7f 00 00	w1 /= 32767
    2128:	0c 18 00 00 00 00 00 00	w8 += w1
    2129:	44 08 00 00 00 80 ff ff	w8 |= -32768
    2130:	bf 81 00 00 00 00 00 00	r1 = r8
    2131:	dc 01 00 00 10 00 00 00	r1 = be16 r1
    2132:	6b 1a b8 ff 00 00 00 00	*(u16 *)(r10 - 72) = r1
    2133:	6b 1a 90 ff 00 00 00 00	*(u16 *)(r10 - 112) = r1
    2134:	bf a2 00 00 00 00 00 00	r2 = r10
    2135:	07 02 00 00 98 ff ff ff	r2 += -104
    2136:	18 01 00 00 00 00 00 00 00 00 00 00 00 00 00 00	r1 = 0 ll
    2138:	85 00 00 00 01 00 00 00	call 1
    2139:	55 00 1d 00 00 00 00 00	if r0 != 0 goto +29 <LBB1_294>
    2140:	85 00 00 00 76 00 00 00	call 118
    2141:	77 00 00 00 08 00 00 00	r0 >>= 8
    2142:	7b 0a 60 ff 00 00 00 00	*(u64 *)(r10 - 160) = r0
    2143:	7b 0a c0 ff 00 00 00 00	*(u64 *)(r10 - 64) = r0
    2144:	bf a2 00 00 00 00 00 00	r2 = r10
    2145:	07 02 00 00 98 ff ff ff	r2 += -104
    2146:	bf a3 00 00 00 00 00 00	r3 = r10
    2147:	07 03 00 00 c0 ff ff ff	r3 += -64
    2148:	18 01 00 00 00 00 00 00 00 00 00 00 00 00 00 00	r1 = 0 ll
    2150:	b4 04 00 00 01 00 00 00	w4 = 1
    2151:	85 00 00 00 02 00 00 00	call 2
    2152:	bc 07 00 00 00 00 00 00	w7 = w0
    2153:	56 00 0f 00 00 00 00 00	if w0 != 0 goto +15 <LBB1_294>
    2154:	bf a2 00 00 00 00 00 00	r2 = r10
    2155:	07 02 00 00 38 ff ff ff	r2 += -200
    2156:	bf a3 00 00 00 00 00 00	r3 = r10
    2157:	07 03 00 00 60 ff ff ff	r3 += -160
    2158:	18 01 00 00 00 00 00 00 00 00 00 00 00 00 00 00	r1 = 0 ll
    2160:	b4 04 00 00 01 00 00 00	w4 = 1
    2161:	85 00 00 00 02 00 00 00	call 2
    2162:	bc 07 00 00 00 00 00 00	w7 = w0
    2163:	16 07 09 14 00 00 00 00	if w7 == 0 goto +5129 <LBB1_731>
    2164:	bf a2 00 00 00 00 00 00	r2 = r10
    2165:	07 02 00 00 98 ff ff ff	r2 += -104
    2166:	18 01 00 00 00 00 00 00 00 00 00 00 00 00 00 00	r1 = 0 ll
    2168:	85 00 00 00 03 00 00 00	call 3

00000000000043c8 <LBB1_294>:
    2169:	04 08 00 00 01 00 00 00	w8 += 1
    2170:	bc 81 00 00 00 00 00 00	w1 = w8
    2171:	54 01 00 00 ff ff 00 00	w1 &= 65535
    2172:	34 01 00 00 ff 7f 00 00	w1 /= 32767
    2173:	0c 18 00 00 00 00 00 00	w8 += w1
    2174:	44 08 00 00 00 80 ff ff	w8 |= -32768
    2175:	bf 81 00 00 00 00 00 00	r1 = r8
    2176:	dc 01 00 00 10 00 00 00	r1 = be16 r1
    2177:	6b 1a b8 ff 00 00 00 00	*(u16 *)(r10 - 72) = r1
    2178:	6b 1a 90 ff 00 00 00 00	*(u16 *)(r10 - 112) = r1
    2179:	bf a2 00 00 00 00 00 00	r2 = r10
    2180:	07 02 00 00 98 ff ff ff	r2 += -104
    2181:	18 01 00 00 00 00 00 00 00 00 00 00 00 00 00 00	r1 = 0 ll
    2183:	85 00 00 00 01 00 00 00	call 1
    2184:	55 00 1d 00 00 00 00 00	if r0 != 0 goto +29 <LBB1_298>
    2185:	85 00 00 00 76 00 00 00	call 118
    2186:	77 00 00 00 08 00 00 00	r0 >>= 8
    2187:	7b 0a 60 ff 00 00 00 00	*(u64 *)(r10 - 160) = r0
    2188:	7b 0a c0 ff 00 00 00 00	*(u64 *)(r10 - 64) = r0
    2189:	bf a2 00 00 00 00 00 00	r2 = r10
    2190:	07 02 00 00 98 ff ff ff	r2 += -104
    2191:	bf a3 00 00 00 00 00 00	r3 = r10
    2192:	07 03 00 00 c0 ff ff ff	r3 += -64
    2193:	18 01 00 00 00 00 00 00 00 00 00 00 00 00 00 00	r1 = 0 ll
    2195:	b4 04 00 00 01 00 00 00	w4 = 1
    2196:	85 00 00 00 02 00 00 00	call 2
    2197:	bc 07 00 00 00 00 00 00	w7 = w0
    2198:	56 00 0f 00 00 00 00 00	if w0 != 0 goto +15 <LBB1_298>
    2199:	bf a2 00 00 00 00 00 00	r2 = r10
    2200:	07 02 00 00 38 ff ff ff	r2 += -200
    2201:	bf a3 00 00 00 00 00 00	r3 = r10
    2202:	07 03 00 00 60 ff ff ff	r3 += -160
    2203:	18 01 00 00 00 00 00 00 00 00 00 00 00 00 00 00	r1 = 0 ll
    2205:	b4 04 00 00 01 00 00 00	w4 = 1
    2206:	85 00 00 00 02 00 00 00	call 2
    2207:	bc 07 00 00 00 00 00 00	w7 = w0
    2208:	16 07 dc 13 00 00 00 00	if w7 == 0 goto +5084 <LBB1_731>
    2209:	bf a2 00 00 00 00 00 00	r2 = r10
    2210:	07 02 00 00 98 ff ff ff	r2 += -104
    2211:	18 01 00 00 00 00 00 00 00 00 00 00 00 00 00 00	r1 = 0 ll
    2213:	85 00 00 00 03 00 00 00	call 3

0000000000004530 <LBB1_298>:
    2214:	04 08 00 00 01 00 00 00	w8 += 1
    2215:	bc 81 00 00 00 00 00 00	w1 = w8
    2216:	54 01 00 00 ff ff 00 00	w1 &= 65535
    2217:	34 01 00 00 ff 7f 00 00	w1 /= 32767
    2218:	0c 18 00 00 00 00 00 00	w8 += w1
    2219:	44 08 00 00 00 80 ff ff	w8 |= -32768
    2220:	bf 81 00 00 00 00 00 00	r1 = r8
    2221:	dc 01 00 00 10 00 00 00	r1 = be16 r1
    2222:	6b 1a b8 ff 00 00 00 00	*(u16 *)(r10 - 72) = r1
    2223:	6b 1a 90 ff 00 00 00 00	*(u16 *)(r10 - 112) = r1
    2224:	bf a2 00 00 00 00 00 00	r2 = r10
    2225:	07 02 00 00 98 ff ff ff	r2 += -104
    2226:	18 01 00 00 00 00 00 00 00 00 00 00 00 00 00 00	r1 = 0 ll
    2228:	85 00 00 00 01 00 00 00	call 1
    2229:	55 00 1d 00 00 00 00 00	if r0 != 0 goto +29 <LBB1_302>
    2230:	85 00 00 00 76 00 00 00	call 118
    2231:	77 00 00 00 08 00 00 00	r0 >>= 8
    2232:	7b 0a 60 ff 00 00 00 00	*(u64 *)(r10 - 160) = r0
    2233:	7b 0a c0 ff 00 00 00 00	*(u64 *)(r10 - 64) = r0
    2234:	bf a2 00 00 00 00 00 00	r2 = r10
    2235:	07 02 00 00 98 ff ff ff	r2 += -104
    2236:	bf a3 00 00 00 00 00 00	r3 = r10
    2237:	07 03 00 00 c0 ff ff ff	r3 += -64
    2238:	18 01 00 00 00 00 00 00 00 00 00 00 00 00 00 00	r1 = 0 ll
    2240:	b4 04 00 00 01 00 00 00	w4 = 1
    2241:	85 00 00 00 02 00 00 00	call 2
    2242:	bc 07 00 00 00 00 00 00	w7 = w0
    2243:	56 00 0f 00 00 00 00 00	if w0 != 0 goto +15 <LBB1_302>
    2244:	bf a2 00 00 00 00 00 00	r2 = r10
    2245:	07 02 00 00 38 ff ff ff	r2 += -200
    2246:	bf a3 00 00 00 00 00 00	r3 = r10
    2247:	07 03 00 00 60 ff ff ff	r3 += -160
    2248:	18 01 00 00 00 00 00 00 00 00 00 00 00 00 00 00	r1 = 0 ll
    2250:	b4 04 00 00 01 00 00 00	w4 = 1
    2251:	85 00 00 00 02 00 00 00	call 2
    2252:	bc 07 00 00 00 00 00 00	w7 = w0
    2253:	16 07 af 13 00 00 00 00	if w7 == 0 goto +5039 <LBB1_731>
    2254:	bf a2 00 00 00 00 00 00	r2 = r10
    2255:	07 02 00 00 98 ff ff ff	r2 += -104
    2256:	18 01 00 00 00 00 00 00 00 00 00 00 00 00 00 00	r1 = 0 ll
    2258:	85 00 00 00 03 00 00 00	call 3

0000000000004698 <LBB1_302>:
    2259:	04 08 00 00 01 00 00 00	w8 += 1
    2260:	bc 81 00 00 00 00 00 00	w1 = w8
    2261:	54 01 00 00 ff ff 00 00	w1 &= 65535
    2262:	34 01 00 00 ff 7f 00 00	w1 /= 32767
    2263:	0c 18 00 00 00 00 00 00	w8 += w1
    2264:	44 08 00 00 00 80 ff ff	w8 |= -32768
    2265:	bf 81 00 00 00 00 00 00	r1 = r8
    2266:	dc 01 00 00 10 00 00 00	r1 = be16 r1
    2267:	6b 1a b8 ff 00 00 00 00	*(u16 *)(r10 - 72) = r1
    2268:	6b 1a 90 ff 00 00 00 00	*(u16 *)(r10 - 112) = r1
    2269:	bf a2 00 00 00 00 00 00	r2 = r10
    2270:	07 02 00 00 98 ff ff ff	r2 += -104
    2271:	18 01 00 00 00 00 00 00 00 00 00 00 00 00 00 00	r1 = 0 ll
    2273:	85 00 00 00 01 00 00 00	call 1
    2274:	55 00 1d 00 00 00 00 00	if r0 != 0 goto +29 <LBB1_306>
    2275:	85 00 00 00 76 00 00 00	call 118
    2276:	77 00 00 00 08 00 00 00	r0 >>= 8
    2277:	7b 0a 60 ff 00 00 00 00	*(u64 *)(r10 - 160) = r0
    2278:	7b 0a c0 ff 00 00 00 00	*(u64 *)(r10 - 64) = r0
    2279:	bf a2 00 00 00 00 00 00	r2 = r10
    2280:	07 02 00 00 98 ff ff ff	r2 += -104
    2281:	bf a3 00 00 00 00 00 00	r3 = r10
    2282:	07 03 00 00 c0 ff ff ff	r3 += -64
    2283:	18 01 00 00 00 00 00 00 00 00 00 00 00 00 00 00	r1 = 0 ll
    2285:	b4 04 00 00 01 00 00 00	w4 = 1
    2286:	85 00 00 00 02 00 00 00	call 2
    2287:	bc 07 00 00 00 00 00 00	w7 = w0
    2288:	56 00 0f 00 00 00 00 00	if w0 != 0 goto +15 <LBB1_306>
    2289:	bf a2 00 00 00 00 00 00	r2 = r10
    2290:	07 02 00 00 38 ff ff ff	r2 += -200
    2291:	bf a3 00 00 00 00 00 00	r3 = r10
    2292:	07 03 00 00 60 ff ff ff	r3 += -160
    2293:	18 01 00 00 00 00 00 00 00 00 00 00 00 00 00 00	r1 = 0 ll
    2295:	b4 04 00 00 01 00 00 00	w4 = 1
    2296:	85 00 00 00 02 00 00 00	call 2
    2297:	bc 07 00 00 00 00 00 00	w7 = w0
    2298:	16 07 82 13 00 00 00 00	if w7 == 0 goto +4994 <LBB1_731>
    2299:	bf a2 00 00 00 00 00 00	r2 = r10
    2300:	07 02 00 00 98 ff ff ff	r2 += -104
    2301:	18 01 00 00 00 00 00 00 00 00 00 00 00 00 00 00	r1 = 0 ll
    2303:	85 00 00 00 03 00 00 00	call 3

0000000000004800 <LBB1_306>:
    2304:	04 08 00 00 01 00 00 00	w8 += 1
    2305:	bc 81 00 00 00 00 00 00	w1 = w8
    2306:	54 01 00 00 ff ff 00 00	w1 &= 65535
    2307:	34 01 00 00 ff 7f 00 00	w1 /= 32767
    2308:	0c 18 00 00 00 00 00 00	w8 += w1
    2309:	44 08 00 00 00 80 ff ff	w8 |= -32768
    2310:	bf 81 00 00 00 00 00 00	r1 = r8
    2311:	dc 01 00 00 10 00 00 00	r1 = be16 r1
    2312:	6b 1a b8 ff 00 00 00 00	*(u16 *)(r10 - 72) = r1
    2313:	6b 1a 90 ff 00 00 00 00	*(u16 *)(r10 - 112) = r1
    2314:	bf a2 00 00 00 00 00 00	r2 = r10
    2315:	07 02 00 00 98 ff ff ff	r2 += -104
    2316:	18 01 00 00 00 00 00 00 00 00 00 00 00 00 00 00	r1 = 0 ll
    2318:	85 00 00 00 01 00 00 00	call 1
    2319:	55 00 1d 00 00 00 00 00	if r0 != 0 goto +29 <LBB1_310>
    2320:	85 00 00 00 76 00 00 00	call 118
    2321:	77 00 00 00 08 00 00 00	r0 >>= 8
    2322:	7b 0a 60 ff 00 00 00 00	*(u64 *)(r10 - 160) = r0
    2323:	7b 0a c0 ff 00 00 00 00	*(u64 *)(r10 - 64) = r0
    2324:	bf a2 00 00 00 00 00 00	r2 = r10
    2325:	07 02 00 00 98 ff ff ff	r2 += -104
    2326:	bf a3 00 00 00 00 00 00	r3 = r10
    2327:	07 03 00 00 c0 ff ff ff	r3 += -64
    2328:	18 01 00 00 00 00 00 00 00 00 00 00 00 00 00 00	r1 = 0 ll
    2330:	b4 04 00 00 01 00 00 00	w4 = 1
    2331:	85 00 00 00 02 00 00 00	call 2
    2332:	bc 07 00 00 00 00 00 00	w7 = w0
    2333:	56 00 0f 00 00 00 00 00	if w0 != 0 goto +15 <LBB1_310>
    2334:	bf a2 00 00 00 00 00 00	r2 = r10
    2335:	07 02 00 00 38 ff ff ff	r2 += -200
    2336:	bf a3 00 00 00 00 00 00	r3 = r10
    2337:	07 03 00 00 60 ff ff ff	r3 += -160
    2338:	18 01 00 00 00 00 00 00 00 00 00 00 00 00 00 00	r1 = 0 ll
    2340:	b4 04 00 00 01 00 00 00	w4 = 1
    2341:	85 00 00 00 02 00 00 00	call 2
    2342:	bc 07 00 00 00 00 00 00	w7 = w0
    2343:	16 07 55 13 00 00 00 00	if w7 == 0 goto +4949 <LBB1_731>
    2344:	bf a2 00 00 00 00 00 00	r2 = r10
    2345:	07 02 00 00 98 ff ff ff	r2 += -104
    2346:	18 01 00 00 00 00 00 00 00 00 00 00 00 00 00 00	r1 = 0 ll
    2348:	85 00 00 00 03 00 00 00	call 3

0000000000004968 <LBB1_310>:
    2349:	04 08 00 00 01 00 00 00	w8 += 1
    2350:	bc 81 00 00 00 00 00 00	w1 = w8
    2351:	54 01 00 00 ff ff 00 00	w1 &= 65535
    2352:	34 01 00 00 ff 7f 00 00	w1 /= 32767
    2353:	0c 18 00 00 00 00 00 00	w8 += w1
    2354:	44 08 00 00 00 80 ff ff	w8 |= -32768
    2355:	bf 81 00 00 00 00 00 00	r1 = r8
    2356:	dc 01 00 00 10 00 00 00	r1 = be16 r1
    2357:	6b 1a b8 ff 00 00 00 00	*(u16 *)(r10 - 72) = r1
    2358:	6b 1a 90 ff 00 00 00 00	*(u16 *)(r10 - 112) = r1
    2359:	bf a2 00 00 00 00 00 00	r2 = r10
    2360:	07 02 00 00 98 ff ff ff	r2 += -104
    2361:	18 01 00 00 00 00 00 00 00 00 00 00 00 00 00 00	r1 = 0 ll
    2363:	85 00 00 00 01 00 00 00	call 1
    2364:	55 00 1d 00 00 00 00 00	if r0 != 0 goto +29 <LBB1_314>
    2365:	85 00 00 00 76 00 00 00	call 118
    2366:	77 00 00 00 08 00 00 00	r0 >>= 8
    2367:	7b 0a 60 ff 00 00 00 00	*(u64 *)(r10 - 160) = r0
    2368:	7b 0a c0 ff 00 00 00 00	*(u64 *)(r10 - 64) = r0
    2369:	bf a2 00 00 00 00 00 00	r2 = r10
    2370:	07 02 00 00 98 ff ff ff	r2 += -104
    2371:	bf a3 00 00 00 00 00 00	r3 = r10
    2372:	07 03 00 00 c0 ff ff ff	r3 += -64
    2373:	18 01 00 00 00 00 00 00 00 00 00 00 00 00 00 00	r1 = 0 ll
    2375:	b4 04 00 00 01 00 00 00	w4 = 1
    2376:	85 00 00 00 02 00 00 00	call 2
    2377:	bc 07 00 00 00 00 00 00	w7 = w0
    2378:	56 00 0f 00 00 00 00 00	if w0 != 0 goto +15 <LBB1_314>
    2379:	bf a2 00 00 00 00 00 00	r2 = r10
    2380:	07 02 00 00 38 ff ff ff	r2 += -200
    2381:	bf a3 00 00 00 00 00 00	r3 = r10
    2382:	07 03 00 00 60 ff ff ff	r3 += -160
    2383:	18 01 00 00 00 00 00 00 00 00 00 00 00 00 00 00	r1 = 0 ll
    2385:	b4 04 00 00 01 00 00 00	w4 = 1
    2386:	85 00 00 00 02 00 00 00	call 2
    2387:	bc 07 00 00 00 00 00 00	w7 = w0
    2388:	16 07 28 13 00 00 00 00	if w7 == 0 goto +4904 <LBB1_731>
    2389:	bf a2 00 00 00 00 00 00	r2 = r10
    2390:	07 02 00 00 98 ff ff ff	r2 += -104
    2391:	18 01 00 00 00 00 00 00 00 00 00 00 00 00 00 00	r1 = 0 ll
    2393:	85 00 00 00 03 00 00 00	call 3

0000000000004ad0 <LBB1_314>:
    2394:	04 08 00 00 01 00 00 00	w8 += 1
    2395:	bc 81 00 00 00 00 00 00	w1 = w8
    2396:	54 01 00 00 ff ff 00 00	w1 &= 65535
    2397:	34 01 00 00 ff 7f 00 00	w1 /= 32767
    2398:	0c 18 00 00 00 00 00 00	w8 += w1
    2399:	44 08 00 00 00 80 ff ff	w8 |= -32768
    2400:	bf 81 00 00 00 00 00 00	r1 = r8
    2401:	dc 01 00 00 10 00 00 00	r1 = be16 r1
    2402:	6b 1a b8 ff 00 00 00 00	*(u16 *)(r10 - 72) = r1
    2403:	6b 1a 90 ff 00 00 00 00	*(u16 *)(r10 - 112) = r1
    2404:	bf a2 00 00 00 00 00 00	r2 = r10
    2405:	07 02 00 00 98 ff ff ff	r2 += -104
    2406:	18 01 00 00 00 00 00 00 00 00 00 00 00 00 00 00	r1 = 0 ll
    2408:	85 00 00 00 01 00 00 00	call 1
    2409:	55 00 1d 00 00 00 00 00	if r0 != 0 goto +29 <LBB1_318>
    2410:	85 00 00 00 76 00 00 00	call 118
    2411:	77 00 00 00 08 00 00 00	r0 >>= 8
    2412:	7b 0a 60 ff 00 00 00 00	*(u64 *)(r10 - 160) = r0
    2413:	7b 0a c0 ff 00 00 00 00	*(u64 *)(r10 - 64) = r0
    2414:	bf a2 00 00 00 00 00 00	r2 = r10
    2415:	07 02 00 00 98 ff ff ff	r2 += -104
    2416:	bf a3 00 00 00 00 00 00	r3 = r10
    2417:	07 03 00 00 c0 ff ff ff	r3 += -64
    2418:	18 01 00 00 00 00 00 00 00 00 00 00 00 00 00 00	r1 = 0 ll
    2420:	b4 04 00 00 01 00 00 00	w4 = 1
    2421:	85 00 00 00 02 00 00 00	call 2
    2422:	bc 07 00 00 00 00 00 00	w7 = w0
    2423:	56 00 0f 00 00 00 00 00	if w0 != 0 goto +15 <LBB1_318>
    2424:	bf a2 00 00 00 00 00 00	r2 = r10
    2425:	07 02 00 00 38 ff ff ff	r2 += -200
    2426:	bf a3 00 00 00 00 00 00	r3 = r10
    2427:	07 03 00 00 60 ff ff ff	r3 += -160
    2428:	18 01 00 00 00 00 00 00 00 00 00 00 00 00 00 00	r1 = 0 ll
    2430:	b4 04 00 00 01 00 00 00	w4 = 1
    2431:	85 00 00 00 02 00 00 00	call 2
    2432:	bc 07 00 00 00 00 00 00	w7 = w0
    2433:	16 07 fb 12 00 00 00 00	if w7 == 0 goto +4859 <LBB1_731>
    2434:	bf a2 00 00 00 00 00 00	r2 = r10
    2435:	07 02 00 00 98 ff ff ff	r2 += -104
    2436:	18 01 00 00 00 00 00 00 00 00 00 00 00 00 00 00	r1 = 0 ll
    2438:	85 00 00 00 03 00 00 00	call 3

0000000000004c38 <LBB1_318>:
    2439:	04 08 00 00 01 00 00 00	w8 += 1
    2440:	bc 81 00 00 00 00 00 00	w1 = w8
    2441:	54 01 00 00 ff ff 00 00	w1 &= 65535
    2442:	34 01 00 00 ff 7f 00 00	w1 /= 32767
    2443:	0c 18 00 00 00 00 00 00	w8 += w1
    2444:	44 08 00 00 00 80 ff ff	w8 |= -32768
    2445:	bf 81 00 00 00 00 00 00	r1 = r8
    2446:	dc 01 00 00 10 00 00 00	r1 = be16 r1
    2447:	6b 1a b8 ff 00 00 00 00	*(u16 *)(r10 - 72) = r1
    2448:	6b 1a 90 ff 00 00 00 00	*(u16 *)(r10 - 112) = r1
    2449:	bf a2 00 00 00 00 00 00	r2 = r10
    2450:	07 02 00 00 98 ff ff ff	r2 += -104
    2451:	18 01 00 00 00 00 00 00 00 00 00 00 00 00 00 00	r1 = 0 ll
    2453:	85 00 00 00 01 00 00 00	call 1
    2454:	55 00 1d 00 00 00 00 00	if r0 != 0 goto +29 <LBB1_322>
    2455:	85 00 00 00 76 00 00 00	call 118
    2456:	77 00 00 00 08 00 00 00	r0 >>= 8
    2457:	7b 0a 60 ff 00 00 00 00	*(u64 *)(r10 - 160) = r0
    2458:	7b 0a c0 ff 00 00 00 00	*(u64 *)(r10 - 64) = r0
    2459:	bf a2 00 00 00 00 00 00	r2 = r10
    2460:	07 02 00 00 98 ff ff ff	r2 += -104
    2461:	bf a3 00 00 00 00 00 00	r3 = r10
    2462:	07 03 00 00 c0 ff ff ff	r3 += -64
    2463:	18 01 00 00 00 00 00 00 00 00 00 00 00 00 00 00	r1 = 0 ll
    2465:	b4 04 00 00 01 00 00 00	w4 = 1
    2466:	85 00 00 00 02 00 00 00	call 2
    2467:	bc 07 00 00 00 00 00 00	w7 = w0
    2468:	56 00 0f 00 00 00 00 00	if w0 != 0 goto +15 <LBB1_322>
    2469:	bf a2 00 00 00 00 00 00	r2 = r10
    2470:	07 02 00 00 38 ff ff ff	r2 += -200
    2471:	bf a3 00 00 00 00 00 00	r3 = r10
    2472:	07 03 00 00 60 ff ff ff	r3 += -160
    2473:	18 01 00 00 00 00 00 00 00 00 00 00 00 00 00 00	r1 = 0 ll
    2475:	b4 04 00 00 01 00 00 00	w4 = 1
    2476:	85 00 00 00 02 00 00 00	call 2
    2477:	bc 07 00 00 00 00 00 00	w7 = w0
    2478:	16 07 ce 12 00 00 00 00	if w7 == 0 goto +4814 <LBB1_731>
    2479:	bf a2 00 00 00 00 00 00	r2 = r10
    2480:	07 02 00 00 98 ff ff ff	r2 += -104
    2481:	18 01 00 00 00 00 00 00 00 00 00 00 00 00 00 00	r1 = 0 ll
    2483:	85 00 00 00 03 00 00 00	call 3

0000000000004da0 <LBB1_322>:
    2484:	04 08 00 00 01 00 00 00	w8 += 1
    2485:	bc 81 00 00 00 00 00 00	w1 = w8
    2486:	54 01 00 00 ff ff 00 00	w1 &= 65535
    2487:	34 01 00 00 ff 7f 00 00	w1 /= 32767
    2488:	0c 18 00 00 00 00 00 00	w8 += w1
    2489:	44 08 00 00 00 80 ff ff	w8 |= -32768
    2490:	bf 81 00 00 00 00 00 00	r1 = r8
    2491:	dc 01 00 00 10 00 00 00	r1 = be16 r1
    2492:	6b 1a b8 ff 00 00 00 00	*(u16 *)(r10 - 72) = r1
    2493:	6b 1a 90 ff 00 00 00 00	*(u16 *)(r10 - 112) = r1
    2494:	bf a2 00 00 00 00 00 00	r2 = r10
    2495:	07 02 00 00 98 ff ff ff	r2 += -104
    2496:	18 01 00 00 00 00 00 00 00 00 00 00 00 00 00 00	r1 = 0 ll
    2498:	85 00 00 00 01 00 00 00	call 1
    2499:	55 00 1d 00 00 00 00 00	if r0 != 0 goto +29 <LBB1_326>
    2500:	85 00 00 00 76 00 00 00	call 118
    2501:	77 00 00 00 08 00 00 00	r0 >>= 8
    2502:	7b 0a 60 ff 00 00 00 00	*(u64 *)(r10 - 160) = r0
    2503:	7b 0a c0 ff 00 00 00 00	*(u64 *)(r10 - 64) = r0
    2504:	bf a2 00 00 00 00 00 00	r2 = r10
    2505:	07 02 00 00 98 ff ff ff	r2 += -104
    2506:	bf a3 00 00 00 00 00 00	r3 = r10
    2507:	07 03 00 00 c0 ff ff ff	r3 += -64
    2508:	18 01 00 00 00 00 00 00 00 00 00 00 00 00 00 00	r1 = 0 ll
    2510:	b4 04 00 00 01 00 00 00	w4 = 1
    2511:	85 00 00 00 02 00 00 00	call 2
    2512:	bc 07 00 00 00 00 00 00	w7 = w0
    2513:	56 00 0f 00 00 00 00 00	if w0 != 0 goto +15 <LBB1_326>
    2514:	bf a2 00 00 00 00 00 00	r2 = r10
    2515:	07 02 00 00 38 ff ff ff	r2 += -200
    2516:	bf a3 00 00 00 00 00 00	r3 = r10
    2517:	07 03 00 00 60 ff ff ff	r3 += -160
    2518:	18 01 00 00 00 00 00 00 00 00 00 00 00 00 00 00	r1 = 0 ll
    2520:	b4 04 00 00 01 00 00 00	w4 = 1
    2521:	85 00 00 00 02 00 00 00	call 2
    2522:	bc 07 00 00 00 00 00 00	w7 = w0
    2523:	16 07 a1 12 00 00 00 00	if w7 == 0 goto +4769 <LBB1_731>
    2524:	bf a2 00 00 00 00 00 00	r2 = r10
    2525:	07 02 00 00 98 ff ff ff	r2 += -104
    2526:	18 01 00 00 00 00 00 00 00 00 00 00 00 00 00 00	r1 = 0 ll
    2528:	85 00 00 00 03 00 00 00	call 3

0000000000004f08 <LBB1_326>:
    2529:	04 08 00 00 01 00 00 00	w8 += 1
    2530:	bc 81 00 00 00 00 00 00	w1 = w8
    2531:	54 01 00 00 ff ff 00 00	w1 &= 65535
    2532:	34 01 00 00 ff 7f 00 00	w1 /= 32767
    2533:	0c 18 00 00 00 00 00 00	w8 += w1
    2534:	44 08 00 00 00 80 ff ff	w8 |= -32768
    2535:	bf 81 00 00 00 00 00 00	r1 = r8
    2536:	dc 01 00 00 10 00 00 00	r1 = be16 r1
    2537:	6b 1a b8 ff 00 00 00 00	*(u16 *)(r10 - 72) = r1
    2538:	6b 1a 90 ff 00 00 00 00	*(u16 *)(r10 - 112) = r1
    2539:	bf a2 00 00 00 00 00 00	r2 = r10
    2540:	07 02 00 00 98 ff ff ff	r2 += -104
    2541:	18 01 00 00 00 00 00 00 00 00 00 00 00 00 00 00	r1 = 0 ll
    2543:	85 00 00 00 01 00 00 00	call 1
    2544:	55 00 1d 00 00 00 00 00	if r0 != 0 goto +29 <LBB1_330>
    2545:	85 00 00 00 76 00 00 00	call 118
    2546:	77 00 00 00 08 00 00 00	r0 >>= 8
    2547:	7b 0a 60 ff 00 00 00 00	*(u64 *)(r10 - 160) = r0
    2548:	7b 0a c0 ff 00 00 00 00	*(u64 *)(r10 - 64) = r0
    2549:	bf a2 00 00 00 00 00 00	r2 = r10
    2550:	07 02 00 00 98 ff ff ff	r2 += -104
    2551:	bf a3 00 00 00 00 00 00	r3 = r10
    2552:	07 03 00 00 c0 ff ff ff	r3 += -64
    2553:	18 01 00 00 00 00 00 00 00 00 00 00 00 00 00 00	r1 = 0 ll
    2555:	b4 04 00 00 01 00 00 00	w4 = 1
    2556:	85 00 00 00 02 00 00 00	call 2
    2557:	bc 07 00 00 00 00 00 00	w7 = w0
    2558:	56 00 0f 00 00 00 00 00	if w0 != 0 goto +15 <LBB1_330>
    2559:	bf a2 00 00 00 00 00 00	r2 = r10
    2560:	07 02 00 00 38 ff ff ff	r2 += -200
    2561:	bf a3 00 00 00 00 00 00	r3 = r10
    2562:	07 03 00 00 60 ff ff ff	r3 += -160
    2563:	18 01 00 00 00 00 00 00 00 00 00 00 00 00 00 00	r1 = 0 ll
    2565:	b4 04 00 00 01 00 00 00	w4 = 1
    2566:	85 00 00 00 02 00 00 00	call 2
    2567:	bc 07 00 00 00 00 00 00	w7 = w0
    2568:	16 07 74 12 00 00 00 00	if w7 == 0 goto +4724 <LBB1_731>
    2569:	bf a2 00 00 00 00 00 00	r2 = r10
    2570:	07 02 00 00 98 ff ff ff	r2 += -104
    2571:	18 01 00 00 00 00 00 00 00 00 00 00 00 00 00 00	r1 = 0 ll
    2573:	85 00 00 00 03 00 00 00	call 3

0000000000005070 <LBB1_330>:
    2574:	04 08 00 00 01 00 00 00	w8 += 1
    2575:	bc 81 00 00 00 00 00 00	w1 = w8
    2576:	54 01 00 00 ff ff 00 00	w1 &= 65535
    2577:	34 01 00 00 ff 7f 00 00	w1 /= 32767
    2578:	0c 18 00 00 00 00 00 00	w8 += w1
    2579:	44 08 00 00 00 80 ff ff	w8 |= -32768
    2580:	bf 81 00 00 00 00 00 00	r1 = r8
    2581:	dc 01 00 00 10 00 00 00	r1 = be16 r1
    2582:	6b 1a b8 ff 00 00 00 00	*(u16 *)(r10 - 72) = r1
    2583:	6b 1a 90 ff 00 00 00 00	*(u16 *)(r10 - 112) = r1
    2584:	bf a2 00 00 00 00 00 00	r2 = r10
    2585:	07 02 00 00 98 ff ff ff	r2 += -104
    2586:	18 01 00 00 00 00 00 00 00 00 00 00 00 00 00 00	r1 = 0 ll
    2588:	85 00 00 00 01 00 00 00	call 1
    2589:	55 00 1d 00 00 00 00 00	if r0 != 0 goto +29 <LBB1_334>
    2590:	85 00 00 00 76 00 00 00	call 118
    2591:	77 00 00 00 08 00 00 00	r0 >>= 8
    2592:	7b 0a 60 ff 00 00 00 00	*(u64 *)(r10 - 160) = r0
    2593:	7b 0a c0 ff 00 00 00 00	*(u64 *)(r10 - 64) = r0
    2594:	bf a2 00 00 00 00 00 00	r2 = r10
    2595:	07 02 00 00 98 ff ff ff	r2 += -104
    2596:	bf a3 00 00 00 00 00 00	r3 = r10
    2597:	07 03 00 00 c0 ff ff ff	r3 += -64
    2598:	18 01 00 00 00 00 00 00 00 00 00 00 00 00 00 00	r1 = 0 ll
    2600:	b4 04 00 00 01 00 00 00	w4 = 1
    2601:	85 00 00 00 02 00 00 00	call 2
    2602:	bc 07 00 00 00 00 00 00	w7 = w0
    2603:	56 00 0f 00 00 00 00 00	if w0 != 0 goto +15 <LBB1_334>
    2604:	bf a2 00 00 00 00 00 00	r2 = r10
    2605:	07 02 00 00 38 ff ff ff	r2 += -200
    2606:	bf a3 00 00 00 00 00 00	r3 = r10
    2607:	07 03 00 00 60 ff ff ff	r3 += -160
    2608:	18 01 00 00 00 00 00 00 00 00 00 00 00 00 00 00	r1 = 0 ll
    2610:	b4 04 00 00 01 00 00 00	w4 = 1
    2611:	85 00 00 00 02 00 00 00	call 2
    2612:	bc 07 00 00 00 00 00 00	w7 = w0
    2613:	16 07 47 12 00 00 00 00	if w7 == 0 goto +4679 <LBB1_731>
    2614:	bf a2 00 00 00 00 00 00	r2 = r10
    2615:	07 02 00 00 98 ff ff ff	r2 += -104
    2616:	18 01 00 00 00 00 00 00 00 00 00 00 00 00 00 00	r1 = 0 ll
    2618:	85 00 00 00 03 00 00 00	call 3

00000000000051d8 <LBB1_334>:
    2619:	04 08 00 00 01 00 00 00	w8 += 1
    2620:	bc 81 00 00 00 00 00 00	w1 = w8
    2621:	54 01 00 00 ff ff 00 00	w1 &= 65535
    2622:	34 01 00 00 ff 7f 00 00	w1 /= 32767
    2623:	0c 18 00 00 00 00 00 00	w8 += w1
    2624:	44 08 00 00 00 80 ff ff	w8 |= -32768
    2625:	bf 81 00 00 00 00 00 00	r1 = r8
    2626:	dc 01 00 00 10 00 00 00	r1 = be16 r1
    2627:	6b 1a b8 ff 00 00 00 00	*(u16 *)(r10 - 72) = r1
    2628:	6b 1a 90 ff 00 00 00 00	*(u16 *)(r10 - 112) = r1
    2629:	bf a2 00 00 00 00 00 00	r2 = r10
    2630:	07 02 00 00 98 ff ff ff	r2 += -104
    2631:	18 01 00 00 00 00 00 00 00 00 00 00 00 00 00 00	r1 = 0 ll
    2633:	85 00 00 00 01 00 00 00	call 1
    2634:	55 00 1d 00 00 00 00 00	if r0 != 0 goto +29 <LBB1_338>
    2635:	85 00 00 00 76 00 00 00	call 118
    2636:	77 00 00 00 08 00 00 00	r0 >>= 8
    2637:	7b 0a 60 ff 00 00 00 00	*(u64 *)(r10 - 160) = r0
    2638:	7b 0a c0 ff 00 00 00 00	*(u64 *)(r10 - 64) = r0
    2639:	bf a2 00 00 00 00 00 00	r2 = r10
    2640:	07 02 00 00 98 ff ff ff	r2 += -104
    2641:	bf a3 00 00 00 00 00 00	r3 = r10
    2642:	07 03 00 00 c0 ff ff ff	r3 += -64
    2643:	18 01 00 00 00 00 00 00 00 00 00 00 00 00 00 00	r1 = 0 ll
    2645:	b4 04 00 00 01 00 00 00	w4 = 1
    2646:	85 00 00 00 02 00 00 00	call 2
    2647:	bc 07 00 00 00 00 00 00	w7 = w0
    2648:	56 00 0f 00 00 00 00 00	if w0 != 0 goto +15 <LBB1_338>
    2649:	bf a2 00 00 00 00 00 00	r2 = r10
    2650:	07 02 00 00 38 ff ff ff	r2 += -200
    2651:	bf a3 00 00 00 00 00 00	r3 = r10
    2652:	07 03 00 00 60 ff ff ff	r3 += -160
    2653:	18 01 00 00 00 00 00 00 00 00 00 00 00 00 00 00	r1 = 0 ll
    2655:	b4 04 00 00 01 00 00 00	w4 = 1
    2656:	85 00 00 00 02 00 00 00	call 2
    2657:	bc 07 00 00 00 00 00 00	w7 = w0
    2658:	16 07 1a 12 00 00 00 00	if w7 == 0 goto +4634 <LBB1_731>
    2659:	bf a2 00 00 00 00 00 00	r2 = r10
    2660:	07 02 00 00 98 ff ff ff	r2 += -104
    2661:	18 01 00 00 00 00 00 00 00 00 00 00 00 00 00 00	r1 = 0 ll
    2663:	85 00 00 00 03 00 00 00	call 3

0000000000005340 <LBB1_338>:
    2664:	04 08 00 00 01 00 00 00	w8 += 1
    2665:	bc 81 00 00 00 00 00 00	w1 = w8
    2666:	54 01 00 00 ff ff 00 00	w1 &= 65535
    2667:	34 01 00 00 ff 7f 00 00	w1 /= 32767
    2668:	0c 18 00 00 00 00 00 00	w8 += w1
    2669:	44 08 00 00 00 80 ff ff	w8 |= -32768
    2670:	bf 81 00 00 00 00 00 00	r1 = r8
    2671:	dc 01 00 00 10 00 00 00	r1 = be16 r1
    2672:	6b 1a b8 ff 00 00 00 00	*(u16 *)(r10 - 72) = r1
    2673:	6b 1a 90 ff 00 00 00 00	*(u16 *)(r10 - 112) = r1
    2674:	bf a2 00 00 00 00 00 00	r2 = r10
    2675:	07 02 00 00 98 ff ff ff	r2 += -104
    2676:	18 01 00 00 00 00 00 00 00 00 00 00 00 00 00 00	r1 = 0 ll
    2678:	85 00 00 00 01 00 00 00	call 1
    2679:	55 00 1d 00 00 00 00 00	if r0 != 0 goto +29 <LBB1_342>
    2680:	85 00 00 00 76 00 00 00	call 118
    2681:	77 00 00 00 08 00 00 00	r0 >>= 8
    2682:	7b 0a 60 ff 00 00 00 00	*(u64 *)(r10 - 160) = r0
    2683:	7b 0a c0 ff 00 00 00 00	*(u64 *)(r10 - 64) = r0
    2684:	bf a2 00 00 00 00 00 00	r2 = r10
    2685:	07 02 00 00 98 ff ff ff	r2 += -104
    2686:	bf a3 00 00 00 00 00 00	r3 = r10
    2687:	07 03 00 00 c0 ff ff ff	r3 += -64
    2688:	18 01 00 00 00 00 00 00 00 00 00 00 00 00 00 00	r1 = 0 ll
    2690:	b4 04 00 00 01 00 00 00	w4 = 1
    2691:	85 00 00 00 02 00 00 00	call 2
    2692:	bc 07 00 00 00 00 00 00	w7 = w0
    2693:	56 00 0f 00 00 00 00 00	if w0 != 0 goto +15 <LBB1_342>
    2694:	bf a2 00 00 00 00 00 00	r2 = r10
    2695:	07 02 00 00 38 ff ff ff	r2 += -200
    2696:	bf a3 00 00 00 00 00 00	r3 = r10
    2697:	07 03 00 00 60 ff ff ff	r3 += -160
    2698:	18 01 00 00 00 00 00 00 00 00 00 00 00 00 00 00	r1 = 0 ll
    2700:	b4 04 00 00 01 00 00 00	w4 = 1
    2701:	85 00 00 00 02 00 00 00	call 2
    2702:	bc 07 00 00 00 00 00 00	w7 = w0
    2703:	16 07 ed 11 00 00 00 00	if w7 == 0 goto +4589 <LBB1_731>
    2704:	bf a2 00 00 00 00 00 00	r2 = r10
    2705:	07 02 00 00 98 ff ff ff	r2 += -104
    2706:	18 01 00 00 00 00 00 00 00 00 00 00 00 00 00 00	r1 = 0 ll
    2708:	85 00 00 00 03 00 00 00	call 3

00000000000054a8 <LBB1_342>:
    2709:	04 08 00 00 01 00 00 00	w8 += 1
    2710:	bc 81 00 00 00 00 00 00	w1 = w8
    2711:	54 01 00 00 ff ff 00 00	w1 &= 65535
    2712:	34 01 00 00 ff 7f 00 00	w1 /= 32767
    2713:	0c 18 00 00 00 00 00 00	w8 += w1
    2714:	44 08 00 00 00 80 ff ff	w8 |= -32768
    2715:	bf 81 00 00 00 00 00 00	r1 = r8
    2716:	dc 01 00 00 10 00 00 00	r1 = be16 r1
    2717:	6b 1a b8 ff 00 00 00 00	*(u16 *)(r10 - 72) = r1
    2718:	6b 1a 90 ff 00 00 00 00	*(u16 *)(r10 - 112) = r1
    2719:	bf a2 00 00 00 00 00 00	r2 = r10
    2720:	07 02 00 00 98 ff ff ff	r2 += -104
    2721:	18 01 00 00 00 00 00 00 00 00 00 00 00 00 00 00	r1 = 0 ll
    2723:	85 00 00 00 01 00 00 00	call 1
    2724:	55 00 1d 00 00 00 00 00	if r0 != 0 goto +29 <LBB1_346>
    2725:	85 00 00 00 76 00 00 00	call 118
    2726:	77 00 00 00 08 00 00 00	r0 >>= 8
    2727:	7b 0a 60 ff 00 00 00 00	*(u64 *)(r10 - 160) = r0
    2728:	7b 0a c0 ff 00 00 00 00	*(u64 *)(r10 - 64) = r0
    2729:	bf a2 00 00 00 00 00 00	r2 = r10
    2730:	07 02 00 00 98 ff ff ff	r2 += -104
    2731:	bf a3 00 00 00 00 00 00	r3 = r10
    2732:	07 03 00 00 c0 ff ff ff	r3 += -64
    2733:	18 01 00 00 00 00 00 00 00 00 00 00 00 00 00 00	r1 = 0 ll
    2735:	b4 04 00 00 01 00 00 00	w4 = 1
    2736:	85 00 00 00 02 00 00 00	call 2
    2737:	bc 07 00 00 00 00 00 00	w7 = w0
    2738:	56 00 0f 00 00 00 00 00	if w0 != 0 goto +15 <LBB1_346>
    2739:	bf a2 00 00 00 00 00 00	r2 = r10
    2740:	07 02 00 00 38 ff ff ff	r2 += -200
    2741:	bf a3 00 00 00 00 00 00	r3 = r10
    2742:	07 03 00 00 60 ff ff ff	r3 += -160
    2743:	18 01 00 00 00 00 00 00 00 00 00 00 00 00 00 00	r1 = 0 ll
    2745:	b4 04 00 00 01 00 00 00	w4 = 1
    2746:	85 00 00 00 02 00 00 00	call 2
    2747:	bc 07 00 00 00 00 00 00	w7 = w0
    2748:	16 07 c0 11 00 00 00 00	if w7 == 0 goto +4544 <LBB1_731>
    2749:	bf a2 00 00 00 00 00 00	r2 = r10
    2750:	07 02 00 00 98 ff ff ff	r2 += -104
    2751:	18 01 00 00 00 00 00 00 00 00 00 00 00 00 00 00	r1 = 0 ll
    2753:	85 00 00 00 03 00 00 00	call 3

0000000000005610 <LBB1_346>:
    2754:	04 08 00 00 01 00 00 00	w8 += 1
    2755:	bc 81 00 00 00 00 00 00	w1 = w8
    2756:	54 01 00 00 ff ff 00 00	w1 &= 65535
    2757:	34 01 00 00 ff 7f 00 00	w1 /= 32767
    2758:	0c 18 00 00 00 00 00 00	w8 += w1
    2759:	44 08 00 00 00 80 ff ff	w8 |= -32768
    2760:	bf 81 00 00 00 00 00 00	r1 = r8
    2761:	dc 01 00 00 10 00 00 00	r1 = be16 r1
    2762:	6b 1a b8 ff 00 00 00 00	*(u16 *)(r10 - 72) = r1
    2763:	6b 1a 90 ff 00 00 00 00	*(u16 *)(r10 - 112) = r1
    2764:	bf a2 00 00 00 00 00 00	r2 = r10
    2765:	07 02 00 00 98 ff ff ff	r2 += -104
    2766:	18 01 00 00 00 00 00 00 00 00 00 00 00 00 00 00	r1 = 0 ll
    2768:	85 00 00 00 01 00 00 00	call 1
    2769:	55 00 1d 00 00 00 00 00	if r0 != 0 goto +29 <LBB1_350>
    2770:	85 00 00 00 76 00 00 00	call 118
    2771:	77 00 00 00 08 00 00 00	r0 >>= 8
    2772:	7b 0a 60 ff 00 00 00 00	*(u64 *)(r10 - 160) = r0
    2773:	7b 0a c0 ff 00 00 00 00	*(u64 *)(r10 - 64) = r0
    2774:	bf a2 00 00 00 00 00 00	r2 = r10
    2775:	07 02 00 00 98 ff ff ff	r2 += -104
    2776:	bf a3 00 00 00 00 00 00	r3 = r10
    2777:	07 03 00 00 c0 ff ff ff	r3 += -64
    2778:	18 01 00 00 00 00 00 00 00 00 00 00 00 00 00 00	r1 = 0 ll
    2780:	b4 04 00 00 01 00 00 00	w4 = 1
    2781:	85 00 00 00 02 00 00 00	call 2
    2782:	bc 07 00 00 00 00 00 00	w7 = w0
    2783:	56 00 0f 00 00 00 00 00	if w0 != 0 goto +15 <LBB1_350>
    2784:	bf a2 00 00 00 00 00 00	r2 = r10
    2785:	07 02 00 00 38 ff ff ff	r2 += -200
    2786:	bf a3 00 00 00 00 00 00	r3 = r10
    2787:	07 03 00 00 60 ff ff ff	r3 += -160
    2788:	18 01 00 00 00 00 00 00 00 00 00 00 00 00 00 00	r1 = 0 ll
    2790:	b4 04 00 00 01 00 00 00	w4 = 1
    2791:	85 00 00 00 02 00 00 00	call 2
    2792:	bc 07 00 00 00 00 00 00	w7 = w0
    2793:	16 07 93 11 00 00 00 00	if w7 == 0 goto +4499 <LBB1_731>
    2794:	bf a2 00 00 00 00 00 00	r2 = r10
    2795:	07 02 00 00 98 ff ff ff	r2 += -104
    2796:	18 01 00 00 00 00 00 00 00 00 00 00 00 00 00 00	r1 = 0 ll
    2798:	85 00 00 00 03 00 00 00	call 3

0000000000005778 <LBB1_350>:
    2799:	04 08 00 00 01 00 00 00	w8 += 1
    2800:	bc 81 00 00 00 00 00 00	w1 = w8
    2801:	54 01 00 00 ff ff 00 00	w1 &= 65535
    2802:	34 01 00 00 ff 7f 00 00	w1 /= 32767
    2803:	0c 18 00 00 00 00 00 00	w8 += w1
    2804:	44 08 00 00 00 80 ff ff	w8 |= -32768
    2805:	bf 81 00 00 00 00 00 00	r1 = r8
    2806:	dc 01 00 00 10 00 00 00	r1 = be16 r1
    2807:	6b 1a b8 ff 00 00 00 00	*(u16 *)(r10 - 72) = r1
    2808:	6b 1a 90 ff 00 00 00 00	*(u16 *)(r10 - 112) = r1
    2809:	bf a2 00 00 00 00 00 00	r2 = r10
    2810:	07 02 00 00 98 ff ff ff	r2 += -104
    2811:	18 01 00 00 00 00 00 00 00 00 00 00 00 00 00 00	r1 = 0 ll
    2813:	85 00 00 00 01 00 00 00	call 1
    2814:	55 00 1d 00 00 00 00 00	if r0 != 0 goto +29 <LBB1_354>
    2815:	85 00 00 00 76 00 00 00	call 118
    2816:	77 00 00 00 08 00 00 00	r0 >>= 8
    2817:	7b 0a 60 ff 00 00 00 00	*(u64 *)(r10 - 160) = r0
    2818:	7b 0a c0 ff 00 00 00 00	*(u64 *)(r10 - 64) = r0
    2819:	bf a2 00 00 00 00 00 00	r2 = r10
    2820:	07 02 00 00 98 ff ff ff	r2 += -104
    2821:	bf a3 00 00 00 00 00 00	r3 = r10
    2822:	07 03 00 00 c0 ff ff ff	r3 += -64
    2823:	18 01 00 00 00 00 00 00 00 00 00 00 00 00 00 00	r1 = 0 ll
    2825:	b4 04 00 00 01 00 00 00	w4 = 1
    2826:	85 00 00 00 02 00 00 00	call 2
    2827:	bc 07 00 00 00 00 00 00	w7 = w0
    2828:	56 00 0f 00 00 00 00 00	if w0 != 0 goto +15 <LBB1_354>
    2829:	bf a2 00 00 00 00 00 00	r2 = r10
    2830:	07 02 00 00 38 ff ff ff	r2 += -200
    2831:	bf a3 00 00 00 00 00 00	r3 = r10
    2832:	07 03 00 00 60 ff ff ff	r3 += -160
    2833:	18 01 00 00 00 00 00 00 00 00 00 00 00 00 00 00	r1 = 0 ll
    2835:	b4 04 00 00 01 00 00 00	w4 = 1
    2836:	85 00 00 00 02 00 00 00	call 2
    2837:	bc 07 00 00 00 00 00 00	w7 = w0
    2838:	16 07 66 11 00 00 00 00	if w7 == 0 goto +4454 <LBB1_731>
    2839:	bf a2 00 00 00 00 00 00	r2 = r10
    2840:	07 02 00 00 98 ff ff ff	r2 += -104
    2841:	18 01 00 00 00 00 00 00 00 00 00 00 00 00 00 00	r1 = 0 ll
    2843:	85 00 00 00 03 00 00 00	call 3

00000000000058e0 <LBB1_354>:
    2844:	04 08 00 00 01 00 00 00	w8 += 1
    2845:	bc 81 00 00 00 00 00 00	w1 = w8
    2846:	54 01 00 00 ff ff 00 00	w1 &= 65535
    2847:	34 01 00 00 ff 7f 00 00	w1 /= 32767
    2848:	0c 18 00 00 00 00 00 00	w8 += w1
    2849:	44 08 00 00 00 80 ff ff	w8 |= -32768
    2850:	bf 81 00 00 00 00 00 00	r1 = r8
    2851:	dc 01 00 00 10 00 00 00	r1 = be16 r1
    2852:	6b 1a b8 ff 00 00 00 00	*(u16 *)(r10 - 72) = r1
    2853:	6b 1a 90 ff 00 00 00 00	*(u16 *)(r10 - 112) = r1
    2854:	bf a2 00 00 00 00 00 00	r2 = r10
    2855:	07 02 00 00 98 ff ff ff	r2 += -104
    2856:	18 01 00 00 00 00 00 00 00 00 00 00 00 00 00 00	r1 = 0 ll
    2858:	85 00 00 00 01 00 00 00	call 1
    2859:	55 00 1d 00 00 00 00 00	if r0 != 0 goto +29 <LBB1_358>
    2860:	85 00 00 00 76 00 00 00	call 118
    2861:	77 00 00 00 08 00 00 00	r0 >>= 8
    2862:	7b 0a 60 ff 00 00 00 00	*(u64 *)(r10 - 160) = r0
    2863:	7b 0a c0 ff 00 00 00 00	*(u64 *)(r10 - 64) = r0
    2864:	bf a2 00 00 00 00 00 00	r2 = r10
    2865:	07 02 00 00 98 ff ff ff	r2 += -104
    2866:	bf a3 00 00 00 00 00 00	r3 = r10
    2867:	07 03 00 00 c0 ff ff ff	r3 += -64
    2868:	18 01 00 00 00 00 00 00 00 00 00 00 00 00 00 00	r1 = 0 ll
    2870:	b4 04 00 00 01 00 00 00	w4 = 1
    2871:	85 00 00 00 02 00 00 00	call 2
    2872:	bc 07 00 00 00 00 00 00	w7 = w0
    2873:	56 00 0f 00 00 00 00 00	if w0 != 0 goto +15 <LBB1_358>
    2874:	bf a2 00 00 00 00 00 00	r2 = r10
    2875:	07 02 00 00 38 ff ff ff	r2 += -200
    2876:	bf a3 00 00 00 00 00 00	r3 = r10
    2877:	07 03 00 00 60 ff ff ff	r3 += -160
    2878:	18 01 00 00 00 00 00 00 00 00 00 00 00 00 00 00	r1 = 0 ll
    2880:	b4 04 00 00 01 00 00 00	w4 = 1
    2881:	85 00 00 00 02 00 00 00	call 2
    2882:	bc 07 00 00 00 00 00 00	w7 = w0
    2883:	16 07 39 11 00 00 00 00	if w7 == 0 goto +4409 <LBB1_731>
    2884:	bf a2 00 00 00 00 00 00	r2 = r10
    2885:	07 02 00 00 98 ff ff ff	r2 += -104
    2886:	18 01 00 00 00 00 00 00 00 00 00 00 00 00 00 00	r1 = 0 ll
    2888:	85 00 00 00 03 00 00 00	call 3

0000000000005a48 <LBB1_358>:
    2889:	04 08 00 00 01 00 00 00	w8 += 1
    2890:	bc 81 00 00 00 00 00 00	w1 = w8
    2891:	54 01 00 00 ff ff 00 00	w1 &= 65535
    2892:	34 01 00 00 ff 7f 00 00	w1 /= 32767
    2893:	0c 18 00 00 00 00 00 00	w8 += w1
    2894:	44 08 00 00 00 80 ff ff	w8 |= -32768
    2895:	bf 81 00 00 00 00 00 00	r1 = r8
    2896:	dc 01 00 00 10 00 00 00	r1 = be16 r1
    2897:	6b 1a b8 ff 00 00 00 00	*(u16 *)(r10 - 72) = r1
    2898:	6b 1a 90 ff 00 00 00 00	*(u16 *)(r10 - 112) = r1
    2899:	bf a2 00 00 00 00 00 00	r2 = r10
    2900:	07 02 00 00 98 ff ff ff	r2 += -104
    2901:	18 01 00 00 00 00 00 00 00 00 00 00 00 00 00 00	r1 = 0 ll
    2903:	85 00 00 00 01 00 00 00	call 1
    2904:	55 00 1d 00 00 00 00 00	if r0 != 0 goto +29 <LBB1_362>
    2905:	85 00 00 00 76 00 00 00	call 118
    2906:	77 00 00 00 08 00 00 00	r0 >>= 8
    2907:	7b 0a 60 ff 00 00 00 00	*(u64 *)(r10 - 160) = r0
    2908:	7b 0a c0 ff 00 00 00 00	*(u64 *)(r10 - 64) = r0
    2909:	bf a2 00 00 00 00 00 00	r2 = r10
    2910:	07 02 00 00 98 ff ff ff	r2 += -104
    2911:	bf a3 00 00 00 00 00 00	r3 = r10
    2912:	07 03 00 00 c0 ff ff ff	r3 += -64
    2913:	18 01 00 00 00 00 00 00 00 00 00 00 00 00 00 00	r1 = 0 ll
    2915:	b4 04 00 00 01 00 00 00	w4 = 1
    2916:	85 00 00 00 02 00 00 00	call 2
    2917:	bc 07 00 00 00 00 00 00	w7 = w0
    2918:	56 00 0f 00 00 00 00 00	if w0 != 0 goto +15 <LBB1_362>
    2919:	bf a2 00 00 00 00 00 00	r2 = r10
    2920:	07 02 00 00 38 ff ff ff	r2 += -200
    2921:	bf a3 00 00 00 00 00 00	r3 = r10
    2922:	07 03 00 00 60 ff ff ff	r3 += -160
    2923:	18 01 00 00 00 00 00 00 00 00 00 00 00 00 00 00	r1 = 0 ll
    2925:	b4 04 00 00 01 00 00 00	w4 = 1
    2926:	85 00 00 00 02 00 00 00	call 2
    2927:	bc 07 00 00 00 00 00 00	w7 = w0
    2928:	16 07 0c 11 00 00 00 00	if w7 == 0 goto +4364 <LBB1_731>
    2929:	bf a2 00 00 00 00 00 00	r2 = r10
    2930:	07 02 00 00 98 ff ff ff	r2 += -104
    2931:	18 01 00 00 00 00 00 00 00 00 00 00 00 00 00 00	r1 = 0 ll
    2933:	85 00 00 00 03 00 00 00	call 3

0000000000005bb0 <LBB1_362>:
    2934:	04 08 00 00 01 00 00 00	w8 += 1
    2935:	bc 81 00 00 00 00 00 00	w1 = w8
    2936:	54 01 00 00 ff ff 00 00	w1 &= 65535
    2937:	34 01 00 00 ff 7f 00 00	w1 /= 32767
    2938:	0c 18 00 00 00 00 00 00	w8 += w1
    2939:	44 08 00 00 00 80 ff ff	w8 |= -32768
    2940:	bf 81 00 00 00 00 00 00	r1 = r8
    2941:	dc 01 00 00 10 00 00 00	r1 = be16 r1
    2942:	6b 1a b8 ff 00 00 00 00	*(u16 *)(r10 - 72) = r1
    2943:	6b 1a 90 ff 00 00 00 00	*(u16 *)(r10 - 112) = r1
    2944:	bf a2 00 00 00 00 00 00	r2 = r10
    2945:	07 02 00 00 98 ff ff ff	r2 += -104
    2946:	18 01 00 00 00 00 00 00 00 00 00 00 00 00 00 00	r1 = 0 ll
    2948:	85 00 00 00 01 00 00 00	call 1
    2949:	55 00 1d 00 00 00 00 00	if r0 != 0 goto +29 <LBB1_366>
    2950:	85 00 00 00 76 00 00 00	call 118
    2951:	77 00 00 00 08 00 00 00	r0 >>= 8
    2952:	7b 0a 60 ff 00 00 00 00	*(u64 *)(r10 - 160) = r0
    2953:	7b 0a c0 ff 00 00 00 00	*(u64 *)(r10 - 64) = r0
    2954:	bf a2 00 00 00 00 00 00	r2 = r10
    2955:	07 02 00 00 98 ff ff ff	r2 += -104
    2956:	bf a3 00 00 00 00 00 00	r3 = r10
    2957:	07 03 00 00 c0 ff ff ff	r3 += -64
    2958:	18 01 00 00 00 00 00 00 00 00 00 00 00 00 00 00	r1 = 0 ll
    2960:	b4 04 00 00 01 00 00 00	w4 = 1
    2961:	85 00 00 00 02 00 00 00	call 2
    2962:	bc 07 00 00 00 00 00 00	w7 = w0
    2963:	56 00 0f 00 00 00 00 00	if w0 != 0 goto +15 <LBB1_366>
    2964:	bf a2 00 00 00 00 00 00	r2 = r10
    2965:	07 02 00 00 38 ff ff ff	r2 += -200
    2966:	bf a3 00 00 00 00 00 00	r3 = r10
    2967:	07 03 00 00 60 ff ff ff	r3 += -160
    2968:	18 01 00 00 00 00 00 00 00 00 00 00 00 00 00 00	r1 = 0 ll
    2970:	b4 04 00 00 01 00 00 00	w4 = 1
    2971:	85 00 00 00 02 00 00 00	call 2
    2972:	bc 07 00 00 00 00 00 00	w7 = w0
    2973:	16 07 df 10 00 00 00 00	if w7 == 0 goto +4319 <LBB1_731>
    2974:	bf a2 00 00 00 00 00 00	r2 = r10
    2975:	07 02 00 00 98 ff ff ff	r2 += -104
    2976:	18 01 00 00 00 00 00 00 00 00 00 00 00 00 00 00	r1 = 0 ll
    2978:	85 00 00 00 03 00 00 00	call 3

0000000000005d18 <LBB1_366>:
    2979:	04 08 00 00 01 00 00 00	w8 += 1
    2980:	bc 81 00 00 00 00 00 00	w1 = w8
    2981:	54 01 00 00 ff ff 00 00	w1 &= 65535
    2982:	34 01 00 00 ff 7f 00 00	w1 /= 32767
    2983:	0c 18 00 00 00 00 00 00	w8 += w1
    2984:	44 08 00 00 00 80 ff ff	w8 |= -32768
    2985:	bf 81 00 00 00 00 00 00	r1 = r8
    2986:	dc 01 00 00 10 00 00 00	r1 = be16 r1
    2987:	6b 1a b8 ff 00 00 00 00	*(u16 *)(r10 - 72) = r1
    2988:	6b 1a 90 ff 00 00 00 00	*(u16 *)(r10 - 112) = r1
    2989:	bf a2 00 00 00 00 00 00	r2 = r10
    2990:	07 02 00 00 98 ff ff ff	r2 += -104
    2991:	18 01 00 00 00 00 00 00 00 00 00 00 00 00 00 00	r1 = 0 ll
    2993:	85 00 00 00 01 00 00 00	call 1
    2994:	55 00 1d 00 00 00 00 00	if r0 != 0 goto +29 <LBB1_370>
    2995:	85 00 00 00 76 00 00 00	call 118
    2996:	77 00 00 00 08 00 00 00	r0 >>= 8
    2997:	7b 0a 60 ff 00 00 00 00	*(u64 *)(r10 - 160) = r0
    2998:	7b 0a c0 ff 00 00 00 00	*(u64 *)(r10 - 64) = r0
    2999:	bf a2 00 00 00 00 00 00	r2 = r10
    3000:	07 02 00 00 98 ff ff ff	r2 += -104
    3001:	bf a3 00 00 00 00 00 00	r3 = r10
    3002:	07 03 00 00 c0 ff ff ff	r3 += -64
    3003:	18 01 00 00 00 00 00 00 00 00 00 00 00 00 00 00	r1 = 0 ll
    3005:	b4 04 00 00 01 00 00 00	w4 = 1
    3006:	85 00 00 00 02 00 00 00	call 2
    3007:	bc 07 00 00 00 00 00 00	w7 = w0
    3008:	56 00 0f 00 00 00 00 00	if w0 != 0 goto +15 <LBB1_370>
    3009:	bf a2 00 00 00 00 00 00	r2 = r10
    3010:	07 02 00 00 38 ff ff ff	r2 += -200
    3011:	bf a3 00 00 00 00 00 00	r3 = r10
    3012:	07 03 00 00 60 ff ff ff	r3 += -160
    3013:	18 01 00 00 00 00 00 00 00 00 00 00 00 00 00 00	r1 = 0 ll
    3015:	b4 04 00 00 01 00 00 00	w4 = 1
    3016:	85 00 00 00 02 00 00 00	call 2
    3017:	bc 07 00 00 00 00 00 00	w7 = w0
    3018:	16 07 b2 10 00 00 00 00	if w7 == 0 goto +4274 <LBB1_731>
    3019:	bf a2 00 00 00 00 00 00	r2 = r10
    3020:	07 02 00 00 98 ff ff ff	r2 += -104
    3021:	18 01 00 00 00 00 00 00 00 00 00 00 00 00 00 00	r1 = 0 ll
    3023:	85 00 00 00 03 00 00 00	call 3

0000000000005e80 <LBB1_370>:
    3024:	04 08 00 00 01 00 00 00	w8 += 1
    3025:	bc 81 00 00 00 00 00 00	w1 = w8
    3026:	54 01 00 00 ff ff 00 00	w1 &= 65535
    3027:	34 01 00 00 ff 7f 00 00	w1 /= 32767
    3028:	0c 18 00 00 00 00 00 00	w8 += w1
    3029:	44 08 00 00 00 80 ff ff	w8 |= -32768
    3030:	bf 81 00 00 00 00 00 00	r1 = r8
    3031:	dc 01 00 00 10 00 00 00	r1 = be16 r1
    3032:	6b 1a b8 ff 00 00 00 00	*(u16 *)(r10 - 72) = r1
    3033:	6b 1a 90 ff 00 00 00 00	*(u16 *)(r10 - 112) = r1
    3034:	bf a2 00 00 00 00 00 00	r2 = r10
    3035:	07 02 00 00 98 ff ff ff	r2 += -104
    3036:	18 01 00 00 00 00 00 00 00 00 00 00 00 00 00 00	r1 = 0 ll
    3038:	85 00 00 00 01 00 00 00	call 1
    3039:	55 00 1d 00 00 00 00 00	if r0 != 0 goto +29 <LBB1_374>
    3040:	85 00 00 00 76 00 00 00	call 118
    3041:	77 00 00 00 08 00 00 00	r0 >>= 8
    3042:	7b 0a 60 ff 00 00 00 00	*(u64 *)(r10 - 160) = r0
    3043:	7b 0a c0 ff 00 00 00 00	*(u64 *)(r10 - 64) = r0
    3044:	bf a2 00 00 00 00 00 00	r2 = r10
    3045:	07 02 00 00 98 ff ff ff	r2 += -104
    3046:	bf a3 00 00 00 00 00 00	r3 = r10
    3047:	07 03 00 00 c0 ff ff ff	r3 += -64
    3048:	18 01 00 00 00 00 00 00 00 00 00 00 00 00 00 00	r1 = 0 ll
    3050:	b4 04 00 00 01 00 00 00	w4 = 1
    3051:	85 00 00 00 02 00 00 00	call 2
    3052:	bc 07 00 00 00 00 00 00	w7 = w0
    3053:	56 00 0f 00 00 00 00 00	if w0 != 0 goto +15 <LBB1_374>
    3054:	bf a2 00 00 00 00 00 00	r2 = r10
    3055:	07 02 00 00 38 ff ff ff	r2 += -200
    3056:	bf a3 00 00 00 00 00 00	r3 = r10
    3057:	07 03 00 00 60 ff ff ff	r3 += -160
    3058:	18 01 00 00 00 00 00 00 00 00 00 00 00 00 00 00	r1 = 0 ll
    3060:	b4 04 00 00 01 00 00 00	w4 = 1
    3061:	85 00 00 00 02 00 00 00	call 2
    3062:	bc 07 00 00 00 00 00 00	w7 = w0
    3063:	16 07 85 10 00 00 00 00	if w7 == 0 goto +4229 <LBB1_731>
    3064:	bf a2 00 00 00 00 00 00	r2 = r10
    3065:	07 02 00 00 98 ff ff ff	r2 += -104
    3066:	18 01 00 00 00 00 00 00 00 00 00 00 00 00 00 00	r1 = 0 ll
    3068:	85 00 00 00 03 00 00 00	call 3

0000000000005fe8 <LBB1_374>:
    3069:	04 08 00 00 01 00 00 00	w8 += 1
    3070:	bc 81 00 00 00 00 00 00	w1 = w8
    3071:	54 01 00 00 ff ff 00 00	w1 &= 65535
    3072:	34 01 00 00 ff 7f 00 00	w1 /= 32767
    3073:	0c 18 00 00 00 00 00 00	w8 += w1
    3074:	44 08 00 00 00 80 ff ff	w8 |= -32768
    3075:	bf 81 00 00 00 00 00 00	r1 = r8
    3076:	dc 01 00 00 10 00 00 00	r1 = be16 r1
    3077:	6b 1a b8 ff 00 00 00 00	*(u16 *)(r10 - 72) = r1
    3078:	6b 1a 90 ff 00 00 00 00	*(u16 *)(r10 - 112) = r1
    3079:	bf a2 00 00 00 00 00 00	r2 = r10
    3080:	07 02 00 00 98 ff ff ff	r2 += -104
    3081:	18 01 00 00 00 00 00 00 00 00 00 00 00 00 00 00	r1 = 0 ll
    3083:	85 00 00 00 01 00 00 00	call 1
    3084:	55 00 1d 00 00 00 00 00	if r0 != 0 goto +29 <LBB1_378>
    3085:	85 00 00 00 76 00 00 00	call 118
    3086:	77 00 00 00 08 00 00 00	r0 >>= 8
    3087:	7b 0a 60 ff 00 00 00 00	*(u64 *)(r10 - 160) = r0
    3088:	7b 0a c0 ff 00 00 00 00	*(u64 *)(r10 - 64) = r0
    3089:	bf a2 00 00 00 00 00 00	r2 = r10
    3090:	07 02 00 00 98 ff ff ff	r2 += -104
    3091:	bf a3 00 00 00 00 00 00	r3 = r10
    3092:	07 03 00 00 c0 ff ff ff	r3 += -64
    3093:	18 01 00 00 00 00 00 00 00 00 00 00 00 00 00 00	r1 = 0 ll
    3095:	b4 04 00 00 01 00 00 00	w4 = 1
    3096:	85 00 00 00 02 00 00 00	call 2
    3097:	bc 07 00 00 00 00 00 00	w7 = w0
    3098:	56 00 0f 00 00 00 00 00	if w0 != 0 goto +15 <LBB1_378>
    3099:	bf a2 00 00 00 00 00 00	r2 = r10
    3100:	07 02 00 00 38 ff ff ff	r2 += -200
    3101:	bf a3 00 00 00 00 00 00	r3 = r10
    3102:	07 03 00 00 60 ff ff ff	r3 += -160
    3103:	18 01 00 00 00 00 00 00 00 00 00 00 00 00 00 00	r1 = 0 ll
    3105:	b4 04 00 00 01 00 00 00	w4 = 1
    3106:	85 00 00 00 02 00 00 00	call 2
    3107:	bc 07 00 00 00 00 00 00	w7 = w0
    3108:	16 07 58 10 00 00 00 00	if w7 == 0 goto +4184 <LBB1_731>
    3109:	bf a2 00 00 00 00 00 00	r2 = r10
    3110:	07 02 00 00 98 ff ff ff	r2 += -104
    3111:	18 01 00 00 00 00 00 00 00 00 00 00 00 00 00 00	r1 = 0 ll
    3113:	85 00 00 00 03 00 00 00	call 3

0000000000006150 <LBB1_378>:
    3114:	04 08 00 00 01 00 00 00	w8 += 1
    3115:	bc 81 00 00 00 00 00 00	w1 = w8
    3116:	54 01 00 00 ff ff 00 00	w1 &= 65535
    3117:	34 01 00 00 ff 7f 00 00	w1 /= 32767
    3118:	0c 18 00 00 00 00 00 00	w8 += w1
    3119:	44 08 00 00 00 80 ff ff	w8 |= -32768
    3120:	bf 81 00 00 00 00 00 00	r1 = r8
    3121:	dc 01 00 00 10 00 00 00	r1 = be16 r1
    3122:	6b 1a b8 ff 00 00 00 00	*(u16 *)(r10 - 72) = r1
    3123:	6b 1a 90 ff 00 00 00 00	*(u16 *)(r10 - 112) = r1
    3124:	bf a2 00 00 00 00 00 00	r2 = r10
    3125:	07 02 00 00 98 ff ff ff	r2 += -104
    3126:	18 01 00 00 00 00 00 00 00 00 00 00 00 00 00 00	r1 = 0 ll
    3128:	85 00 00 00 01 00 00 00	call 1
    3129:	55 00 1d 00 00 00 00 00	if r0 != 0 goto +29 <LBB1_382>
    3130:	85 00 00 00 76 00 00 00	call 118
    3131:	77 00 00 00 08 00 00 00	r0 >>= 8
    3132:	7b 0a 60 ff 00 00 00 00	*(u64 *)(r10 - 160) = r0
    3133:	7b 0a c0 ff 00 00 00 00	*(u64 *)(r10 - 64) = r0
    3134:	bf a2 00 00 00 00 00 00	r2 = r10
    3135:	07 02 00 00 98 ff ff ff	r2 += -104
    3136:	bf a3 00 00 00 00 00 00	r3 = r10
    3137:	07 03 00 00 c0 ff ff ff	r3 += -64
    3138:	18 01 00 00 00 00 00 00 00 00 00 00 00 00 00 00	r1 = 0 ll
    3140:	b4 04 00 00 01 00 00 00	w4 = 1
    3141:	85 00 00 00 02 00 00 00	call 2
    3142:	bc 07 00 00 00 00 00 00	w7 = w0
    3143:	56 00 0f 00 00 00 00 00	if w0 != 0 goto +15 <LBB1_382>
    3144:	bf a2 00 00 00 00 00 00	r2 = r10
    3145:	07 02 00 00 38 ff ff ff	r2 += -200
    3146:	bf a3 00 00 00 00 00 00	r3 = r10
    3147:	07 03 00 00 60 ff ff ff	r3 += -160
    3148:	18 01 00 00 00 00 00 00 00 00 00 00 00 00 00 00	r1 = 0 ll
    3150:	b4 04 00 00 01 00 00 00	w4 = 1
    3151:	85 00 00 00 02 00 00 00	call 2
    3152:	bc 07 00 00 00 00 00 00	w7 = w0
    3153:	16 07 2b 10 00 00 00 00	if w7 == 0 goto +4139 <LBB1_731>
    3154:	bf a2 00 00 00 00 00 00	r2 = r10
    3155:	07 02 00 00 98 ff ff ff	r2 += -104
    3156:	18 01 00 00 00 00 00 00 00 00 00 00 00 00 00 00	r1 = 0 ll
    3158:	85 00 00 00 03 00 00 00	call 3

00000000000062b8 <LBB1_382>:
    3159:	04 08 00 00 01 00 00 00	w8 += 1
    3160:	bc 81 00 00 00 00 00 00	w1 = w8
    3161:	54 01 00 00 ff ff 00 00	w1 &= 65535
    3162:	34 01 00 00 ff 7f 00 00	w1 /= 32767
    3163:	0c 18 00 00 00 00 00 00	w8 += w1
    3164:	44 08 00 00 00 80 ff ff	w8 |= -32768
    3165:	bf 81 00 00 00 00 00 00	r1 = r8
    3166:	dc 01 00 00 10 00 00 00	r1 = be16 r1
    3167:	6b 1a b8 ff 00 00 00 00	*(u16 *)(r10 - 72) = r1
    3168:	6b 1a 90 ff 00 00 00 00	*(u16 *)(r10 - 112) = r1
    3169:	bf a2 00 00 00 00 00 00	r2 = r10
    3170:	07 02 00 00 98 ff ff ff	r2 += -104
    3171:	18 01 00 00 00 00 00 00 00 00 00 00 00 00 00 00	r1 = 0 ll
    3173:	85 00 00 00 01 00 00 00	call 1
    3174:	55 00 1d 00 00 00 00 00	if r0 != 0 goto +29 <LBB1_386>
    3175:	85 00 00 00 76 00 00 00	call 118
    3176:	77 00 00 00 08 00 00 00	r0 >>= 8
    3177:	7b 0a 60 ff 00 00 00 00	*(u64 *)(r10 - 160) = r0
    3178:	7b 0a c0 ff 00 00 00 00	*(u64 *)(r10 - 64) = r0
    3179:	bf a2 00 00 00 00 00 00	r2 = r10
    3180:	07 02 00 00 98 ff ff ff	r2 += -104
    3181:	bf a3 00 00 00 00 00 00	r3 = r10
    3182:	07 03 00 00 c0 ff ff ff	r3 += -64
    3183:	18 01 00 00 00 00 00 00 00 00 00 00 00 00 00 00	r1 = 0 ll
    3185:	b4 04 00 00 01 00 00 00	w4 = 1
    3186:	85 00 00 00 02 00 00 00	call 2
    3187:	bc 07 00 00 00 00 00 00	w7 = w0
    3188:	56 00 0f 00 00 00 00 00	if w0 != 0 goto +15 <LBB1_386>
    3189:	bf a2 00 00 00 00 00 00	r2 = r10
    3190:	07 02 00 00 38 ff ff ff	r2 += -200
    3191:	bf a3 00 00 00 00 00 00	r3 = r10
    3192:	07 03 00 00 60 ff ff ff	r3 += -160
    3193:	18 01 00 00 00 00 00 00 00 00 00 00 00 00 00 00	r1 = 0 ll
    3195:	b4 04 00 00 01 00 00 00	w4 = 1
    3196:	85 00 00 00 02 00 00 00	call 2
    3197:	bc 07 00 00 00 00 00 00	w7 = w0
    3198:	16 07 fe 0f 00 00 00 00	if w7 == 0 goto +4094 <LBB1_731>
    3199:	bf a2 00 00 00 00 00 00	r2 = r10
    3200:	07 02 00 00 98 ff ff ff	r2 += -104
    3201:	18 01 00 00 00 00 00 00 00 00 00 00 00 00 00 00	r1 = 0 ll
    3203:	85 00 00 00 03 00 00 00	call 3

0000000000006420 <LBB1_386>:
    3204:	04 08 00 00 01 00 00 00	w8 += 1
    3205:	bc 81 00 00 00 00 00 00	w1 = w8
    3206:	54 01 00 00 ff ff 00 00	w1 &= 65535
    3207:	34 01 00 00 ff 7f 00 00	w1 /= 32767
    3208:	0c 18 00 00 00 00 00 00	w8 += w1
    3209:	44 08 00 00 00 80 ff ff	w8 |= -32768
    3210:	bf 81 00 00 00 00 00 00	r1 = r8
    3211:	dc 01 00 00 10 00 00 00	r1 = be16 r1
    3212:	6b 1a b8 ff 00 00 00 00	*(u16 *)(r10 - 72) = r1
    3213:	6b 1a 90 ff 00 00 00 00	*(u16 *)(r10 - 112) = r1
    3214:	bf a2 00 00 00 00 00 00	r2 = r10
    3215:	07 02 00 00 98 ff ff ff	r2 += -104
    3216:	18 01 00 00 00 00 00 00 00 00 00 00 00 00 00 00	r1 = 0 ll
    3218:	85 00 00 00 01 00 00 00	call 1
    3219:	55 00 1d 00 00 00 00 00	if r0 != 0 goto +29 <LBB1_390>
    3220:	85 00 00 00 76 00 00 00	call 118
    3221:	77 00 00 00 08 00 00 00	r0 >>= 8
    3222:	7b 0a 60 ff 00 00 00 00	*(u64 *)(r10 - 160) = r0
    3223:	7b 0a c0 ff 00 00 00 00	*(u64 *)(r10 - 64) = r0
    3224:	bf a2 00 00 00 00 00 00	r2 = r10
    3225:	07 02 00 00 98 ff ff ff	r2 += -104
    3226:	bf a3 00 00 00 00 00 00	r3 = r10
    3227:	07 03 00 00 c0 ff ff ff	r3 += -64
    3228:	18 01 00 00 00 00 00 00 00 00 00 00 00 00 00 00	r1 = 0 ll
    3230:	b4 04 00 00 01 00 00 00	w4 = 1
    3231:	85 00 00 00 02 00 00 00	call 2
    3232:	bc 07 00 00 00 00 00 00	w7 = w0
    3233:	56 00 0f 00 00 00 00 00	if w0 != 0 goto +15 <LBB1_390>
    3234:	bf a2 00 00 00 00 00 00	r2 = r10
    3235:	07 02 00 00 38 ff ff ff	r2 += -200
    3236:	bf a3 00 00 00 00 00 00	r3 = r10
    3237:	07 03 00 00 60 ff ff ff	r3 += -160
    3238:	18 01 00 00 00 00 00 00 00 00 00 00 00 00 00 00	r1 = 0 ll
    3240:	b4 04 00 00 01 00 00 00	w4 = 1
    3241:	85 00 00 00 02 00 00 00	call 2
    3242:	bc 07 00 00 00 00 00 00	w7 = w0
    3243:	16 07 d1 0f 00 00 00 00	if w7 == 0 goto +4049 <LBB1_731>
    3244:	bf a2 00 00 00 00 00 00	r2 = r10
    3245:	07 02 00 00 98 ff ff ff	r2 += -104
    3246:	18 01 00 00 00 00 00 00 00 00 00 00 00 00 00 00	r1 = 0 ll
    3248:	85 00 00 00 03 00 00 00	call 3

0000000000006588 <LBB1_390>:
    3249:	04 08 00 00 01 00 00 00	w8 += 1
    3250:	bc 81 00 00 00 00 00 00	w1 = w8
    3251:	54 01 00 00 ff ff 00 00	w1 &= 65535
    3252:	34 01 00 00 ff 7f 00 00	w1 /= 32767
    3253:	0c 18 00 00 00 00 00 00	w8 += w1
    3254:	44 08 00 00 00 80 ff ff	w8 |= -32768
    3255:	bf 81 00 00 00 00 00 00	r1 = r8
    3256:	dc 01 00 00 10 00 00 00	r1 = be16 r1
    3257:	6b 1a b8 ff 00 00 00 00	*(u16 *)(r10 - 72) = r1
    3258:	6b 1a 90 ff 00 00 00 00	*(u16 *)(r10 - 112) = r1
    3259:	bf a2 00 00 00 00 00 00	r2 = r10
    3260:	07 02 00 00 98 ff ff ff	r2 += -104
    3261:	18 01 00 00 00 00 00 00 00 00 00 00 00 00 00 00	r1 = 0 ll
    3263:	85 00 00 00 01 00 00 00	call 1
    3264:	55 00 1d 00 00 00 00 00	if r0 != 0 goto +29 <LBB1_394>
    3265:	85 00 00 00 76 00 00 00	call 118
    3266:	77 00 00 00 08 00 00 00	r0 >>= 8
    3267:	7b 0a 60 ff 00 00 00 00	*(u64 *)(r10 - 160) = r0
    3268:	7b 0a c0 ff 00 00 00 00	*(u64 *)(r10 - 64) = r0
    3269:	bf a2 00 00 00 00 00 00	r2 = r10
    3270:	07 02 00 00 98 ff ff ff	r2 += -104
    3271:	bf a3 00 00 00 00 00 00	r3 = r10
    3272:	07 03 00 00 c0 ff ff ff	r3 += -64
    3273:	18 01 00 00 00 00 00 00 00 00 00 00 00 00 00 00	r1 = 0 ll
    3275:	b4 04 00 00 01 00 00 00	w4 = 1
    3276:	85 00 00 00 02 00 00 00	call 2
    3277:	bc 07 00 00 00 00 00 00	w7 = w0
    3278:	56 00 0f 00 00 00 00 00	if w0 != 0 goto +15 <LBB1_394>
    3279:	bf a2 00 00 00 00 00 00	r2 = r10
    3280:	07 02 00 00 38 ff ff ff	r2 += -200
    3281:	bf a3 00 00 00 00 00 00	r3 = r10
    3282:	07 03 00 00 60 ff ff ff	r3 += -160
    3283:	18 01 00 00 00 00 00 00 00 00 00 00 00 00 00 00	r1 = 0 ll
    3285:	b4 04 00 00 01 00 00 00	w4 = 1
    3286:	85 00 00 00 02 00 00 00	call 2
    3287:	bc 07 00 00 00 00 00 00	w7 = w0
    3288:	16 07 a4 0f 00 00 00 00	if w7 == 0 goto +4004 <LBB1_731>
    3289:	bf a2 00 00 00 00 00 00	r2 = r10
    3290:	07 02 00 00 98 ff ff ff	r2 += -104
    3291:	18 01 00 00 00 00 00 00 00 00 00 00 00 00 00 00	r1 = 0 ll
    3293:	85 00 00 00 03 00 00 00	call 3

00000000000066f0 <LBB1_394>:
    3294:	04 08 00 00 01 00 00 00	w8 += 1
    3295:	bc 81 00 00 00 00 00 00	w1 = w8
    3296:	54 01 00 00 ff ff 00 00	w1 &= 65535
    3297:	34 01 00 00 ff 7f 00 00	w1 /= 32767
    3298:	0c 18 00 00 00 00 00 00	w8 += w1
    3299:	44 08 00 00 00 80 ff ff	w8 |= -32768
    3300:	bf 81 00 00 00 00 00 00	r1 = r8
    3301:	dc 01 00 00 10 00 00 00	r1 = be16 r1
    3302:	6b 1a b8 ff 00 00 00 00	*(u16 *)(r10 - 72) = r1
    3303:	6b 1a 90 ff 00 00 00 00	*(u16 *)(r10 - 112) = r1
    3304:	bf a2 00 00 00 00 00 00	r2 = r10
    3305:	07 02 00 00 98 ff ff ff	r2 += -104
    3306:	18 01 00 00 00 00 00 00 00 00 00 00 00 00 00 00	r1 = 0 ll
    3308:	85 00 00 00 01 00 00 00	call 1
    3309:	55 00 1d 00 00 00 00 00	if r0 != 0 goto +29 <LBB1_398>
    3310:	85 00 00 00 76 00 00 00	call 118
    3311:	77 00 00 00 08 00 00 00	r0 >>= 8
    3312:	7b 0a 60 ff 00 00 00 00	*(u64 *)(r10 - 160) = r0
    3313:	7b 0a c0 ff 00 00 00 00	*(u64 *)(r10 - 64) = r0
    3314:	bf a2 00 00 00 00 00 00	r2 = r10
    3315:	07 02 00 00 98 ff ff ff	r2 += -104
    3316:	bf a3 00 00 00 00 00 00	r3 = r10
    3317:	07 03 00 00 c0 ff ff ff	r3 += -64
    3318:	18 01 00 00 00 00 00 00 00 00 00 00 00 00 00 00	r1 = 0 ll
    3320:	b4 04 00 00 01 00 00 00	w4 = 1
    3321:	85 00 00 00 02 00 00 00	call 2
    3322:	bc 07 00 00 00 00 00 00	w7 = w0
    3323:	56 00 0f 00 00 00 00 00	if w0 != 0 goto +15 <LBB1_398>
    3324:	bf a2 00 00 00 00 00 00	r2 = r10
    3325:	07 02 00 00 38 ff ff ff	r2 += -200
    3326:	bf a3 00 00 00 00 00 00	r3 = r10
    3327:	07 03 00 00 60 ff ff ff	r3 += -160
    3328:	18 01 00 00 00 00 00 00 00 00 00 00 00 00 00 00	r1 = 0 ll
    3330:	b4 04 00 00 01 00 00 00	w4 = 1
    3331:	85 00 00 00 02 00 00 00	call 2
    3332:	bc 07 00 00 00 00 00 00	w7 = w0
    3333:	16 07 77 0f 00 00 00 00	if w7 == 0 goto +3959 <LBB1_731>
    3334:	bf a2 00 00 00 00 00 00	r2 = r10
    3335:	07 02 00 00 98 ff ff ff	r2 += -104
    3336:	18 01 00 00 00 00 00 00 00 00 00 00 00 00 00 00	r1 = 0 ll
    3338:	85 00 00 00 03 00 00 00	call 3

0000000000006858 <LBB1_398>:
    3339:	04 08 00 00 01 00 00 00	w8 += 1
    3340:	bc 81 00 00 00 00 00 00	w1 = w8
    3341:	54 01 00 00 ff ff 00 00	w1 &= 65535
    3342:	34 01 00 00 ff 7f 00 00	w1 /= 32767
    3343:	0c 18 00 00 00 00 00 00	w8 += w1
    3344:	44 08 00 00 00 80 ff ff	w8 |= -32768
    3345:	bf 81 00 00 00 00 00 00	r1 = r8
    3346:	dc 01 00 00 10 00 00 00	r1 = be16 r1
    3347:	6b 1a b8 ff 00 00 00 00	*(u16 *)(r10 - 72) = r1
    3348:	6b 1a 90 ff 00 00 00 00	*(u16 *)(r10 - 112) = r1
    3349:	bf a2 00 00 00 00 00 00	r2 = r10
    3350:	07 02 00 00 98 ff ff ff	r2 += -104
    3351:	18 01 00 00 00 00 00 00 00 00 00 00 00 00 00 00	r1 = 0 ll
    3353:	85 00 00 00 01 00 00 00	call 1
    3354:	55 00 1d 00 00 00 00 00	if r0 != 0 goto +29 <LBB1_402>
    3355:	85 00 00 00 76 00 00 00	call 118
    3356:	77 00 00 00 08 00 00 00	r0 >>= 8
    3357:	7b 0a 60 ff 00 00 00 00	*(u64 *)(r10 - 160) = r0
    3358:	7b 0a c0 ff 00 00 00 00	*(u64 *)(r10 - 64) = r0
    3359:	bf a2 00 00 00 00 00 00	r2 = r10
    3360:	07 02 00 00 98 ff ff ff	r2 += -104
    3361:	bf a3 00 00 00 00 00 00	r3 = r10
    3362:	07 03 00 00 c0 ff ff ff	r3 += -64
    3363:	18 01 00 00 00 00 00 00 00 00 00 00 00 00 00 00	r1 = 0 ll
    3365:	b4 04 00 00 01 00 00 00	w4 = 1
    3366:	85 00 00 00 02 00 00 00	call 2
    3367:	bc 07 00 00 00 00 00 00	w7 = w0
    3368:	56 00 0f 00 00 00 00 00	if w0 != 0 goto +15 <LBB1_402>
    3369:	bf a2 00 00 00 00 00 00	r2 = r10
    3370:	07 02 00 00 38 ff ff ff	r2 += -200
    3371:	bf a3 00 00 00 00 00 00	r3 = r10
    3372:	07 03 00 00 60 ff ff ff	r3 += -160
    3373:	18 01 00 00 00 00 00 00 00 00 00 00 00 00 00 00	r1 = 0 ll
    3375:	b4 04 00 00 01 00 00 00	w4 = 1
    3376:	85 00 00 00 02 00 00 00	call 2
    3377:	bc 07 00 00 00 00 00 00	w7 = w0
    3378:	16 07 4a 0f 00 00 00 00	if w7 == 0 goto +3914 <LBB1_731>
    3379:	bf a2 00 00 00 00 00 00	r2 = r10
    3380:	07 02 00 00 98 ff ff ff	r2 += -104
    3381:	18 01 00 00 00 00 00 00 00 00 00 00 00 00 00 00	r1 = 0 ll
    3383:	85 00 00 00 03 00 00 00	call 3

00000000000069c0 <LBB1_402>:
    3384:	04 08 00 00 01 00 00 00	w8 += 1
    3385:	bc 81 00 00 00 00 00 00	w1 = w8
    3386:	54 01 00 00 ff ff 00 00	w1 &= 65535
    3387:	34 01 00 00 ff 7f 00 00	w1 /= 32767
    3388:	0c 18 00 00 00 00 00 00	w8 += w1
    3389:	44 08 00 00 00 80 ff ff	w8 |= -32768
    3390:	bf 81 00 00 00 00 00 00	r1 = r8
    3391:	dc 01 00 00 10 00 00 00	r1 = be16 r1
    3392:	6b 1a b8 ff 00 00 00 00	*(u16 *)(r10 - 72) = r1
    3393:	6b 1a 90 ff 00 00 00 00	*(u16 *)(r10 - 112) = r1
    3394:	bf a2 00 00 00 00 00 00	r2 = r10
    3395:	07 02 00 00 98 ff ff ff	r2 += -104
    3396:	18 01 00 00 00 00 00 00 00 00 00 00 00 00 00 00	r1 = 0 ll
    3398:	85 00 00 00 01 00 00 00	call 1
    3399:	55 00 1d 00 00 00 00 00	if r0 != 0 goto +29 <LBB1_406>
    3400:	85 00 00 00 76 00 00 00	call 118
    3401:	77 00 00 00 08 00 00 00	r0 >>= 8
    3402:	7b 0a 60 ff 00 00 00 00	*(u64 *)(r10 - 160) = r0
    3403:	7b 0a c0 ff 00 00 00 00	*(u64 *)(r10 - 64) = r0
    3404:	bf a2 00 00 00 00 00 00	r2 = r10
    3405:	07 02 00 00 98 ff ff ff	r2 += -104
    3406:	bf a3 00 00 00 00 00 00	r3 = r10
    3407:	07 03 00 00 c0 ff ff ff	r3 += -64
    3408:	18 01 00 00 00 00 00 00 00 00 00 00 00 00 00 00	r1 = 0 ll
    3410:	b4 04 00 00 01 00 00 00	w4 = 1
    3411:	85 00 00 00 02 00 00 00	call 2
    3412:	bc 07 00 00 00 00 00 00	w7 = w0
    3413:	56 00 0f 00 00 00 00 00	if w0 != 0 goto +15 <LBB1_406>
    3414:	bf a2 00 00 00 00 00 00	r2 = r10
    3415:	07 02 00 00 38 ff ff ff	r2 += -200
    3416:	bf a3 00 00 00 00 00 00	r3 = r10
    3417:	07 03 00 00 60 ff ff ff	r3 += -160
    3418:	18 01 00 00 00 00 00 00 00 00 00 00 00 00 00 00	r1 = 0 ll
    3420:	b4 04 00 00 01 00 00 00	w4 = 1
    3421:	85 00 00 00 02 00 00 00	call 2
    3422:	bc 07 00 00 00 00 00 00	w7 = w0
    3423:	16 07 1d 0f 00 00 00 00	if w7 == 0 goto +3869 <LBB1_731>
    3424:	bf a2 00 00 00 00 00 00	r2 = r10
    3425:	07 02 00 00 98 ff ff ff	r2 += -104
    3426:	18 01 00 00 00 00 00 00 00 00 00 00 00 00 00 00	r1 = 0 ll
    3428:	85 00 00 00 03 00 00 00	call 3

0000000000006b28 <LBB1_406>:
    3429:	04 08 00 00 01 00 00 00	w8 += 1
    3430:	bc 81 00 00 00 00 00 00	w1 = w8
    3431:	54 01 00 00 ff ff 00 00	w1 &= 65535
    3432:	34 01 00 00 ff 7f 00 00	w1 /= 32767
    3433:	0c 18 00 00 00 00 00 00	w8 += w1
    3434:	44 08 00 00 00 80 ff ff	w8 |= -32768
    3435:	bf 81 00 00 00 00 00 00	r1 = r8
    3436:	dc 01 00 00 10 00 00 00	r1 = be16 r1
    3437:	6b 1a b8 ff 00 00 00 00	*(u16 *)(r10 - 72) = r1
    3438:	6b 1a 90 ff 00 00 00 00	*(u16 *)(r10 - 112) = r1
    3439:	bf a2 00 00 00 00 00 00	r2 = r10
    3440:	07 02 00 00 98 ff ff ff	r2 += -104
    3441:	18 01 00 00 00 00 00 00 00 00 00 00 00 00 00 00	r1 = 0 ll
    3443:	85 00 00 00 01 00 00 00	call 1
    3444:	55 00 1d 00 00 00 00 00	if r0 != 0 goto +29 <LBB1_410>
    3445:	85 00 00 00 76 00 00 00	call 118
    3446:	77 00 00 00 08 00 00 00	r0 >>= 8
    3447:	7b 0a 60 ff 00 00 00 00	*(u64 *)(r10 - 160) = r0
    3448:	7b 0a c0 ff 00 00 00 00	*(u64 *)(r10 - 64) = r0
    3449:	bf a2 00 00 00 00 00 00	r2 = r10
    3450:	07 02 00 00 98 ff ff ff	r2 += -104
    3451:	bf a3 00 00 00 00 00 00	r3 = r10
    3452:	07 03 00 00 c0 ff ff ff	r3 += -64
    3453:	18 01 00 00 00 00 00 00 00 00 00 00 00 00 00 00	r1 = 0 ll
    3455:	b4 04 00 00 01 00 00 00	w4 = 1
    3456:	85 00 00 00 02 00 00 00	call 2
    3457:	bc 07 00 00 00 00 00 00	w7 = w0
    3458:	56 00 0f 00 00 00 00 00	if w0 != 0 goto +15 <LBB1_410>
    3459:	bf a2 00 00 00 00 00 00	r2 = r10
    3460:	07 02 00 00 38 ff ff ff	r2 += -200
    3461:	bf a3 00 00 00 00 00 00	r3 = r10
    3462:	07 03 00 00 60 ff ff ff	r3 += -160
    3463:	18 01 00 00 00 00 00 00 00 00 00 00 00 00 00 00	r1 = 0 ll
    3465:	b4 04 00 00 01 00 00 00	w4 = 1
    3466:	85 00 00 00 02 00 00 00	call 2
    3467:	bc 07 00 00 00 00 00 00	w7 = w0
    3468:	16 07 f0 0e 00 00 00 00	if w7 == 0 goto +3824 <LBB1_731>
    3469:	bf a2 00 00 00 00 00 00	r2 = r10
    3470:	07 02 00 00 98 ff ff ff	r2 += -104
    3471:	18 01 00 00 00 00 00 00 00 00 00 00 00 00 00 00	r1 = 0 ll
    3473:	85 00 00 00 03 00 00 00	call 3

0000000000006c90 <LBB1_410>:
    3474:	04 08 00 00 01 00 00 00	w8 += 1
    3475:	bc 81 00 00 00 00 00 00	w1 = w8
    3476:	54 01 00 00 ff ff 00 00	w1 &= 65535
    3477:	34 01 00 00 ff 7f 00 00	w1 /= 32767
    3478:	0c 18 00 00 00 00 00 00	w8 += w1
    3479:	44 08 00 00 00 80 ff ff	w8 |= -32768
    3480:	bf 81 00 00 00 00 00 00	r1 = r8
    3481:	dc 01 00 00 10 00 00 00	r1 = be16 r1
    3482:	6b 1a b8 ff 00 00 00 00	*(u16 *)(r10 - 72) = r1
    3483:	6b 1a 90 ff 00 00 00 00	*(u16 *)(r10 - 112) = r1
    3484:	bf a2 00 00 00 00 00 00	r2 = r10
    3485:	07 02 00 00 98 ff ff ff	r2 += -104
    3486:	18 01 00 00 00 00 00 00 00 00 00 00 00 00 00 00	r1 = 0 ll
    3488:	85 00 00 00 01 00 00 00	call 1
    3489:	55 00 1d 00 00 00 00 00	if r0 != 0 goto +29 <LBB1_414>
    3490:	85 00 00 00 76 00 00 00	call 118
    3491:	77 00 00 00 08 00 00 00	r0 >>= 8
    3492:	7b 0a 60 ff 00 00 00 00	*(u64 *)(r10 - 160) = r0
    3493:	7b 0a c0 ff 00 00 00 00	*(u64 *)(r10 - 64) = r0
    3494:	bf a2 00 00 00 00 00 00	r2 = r10
    3495:	07 02 00 00 98 ff ff ff	r2 += -104
    3496:	bf a3 00 00 00 00 00 00	r3 = r10
    3497:	07 03 00 00 c0 ff ff ff	r3 += -64
    3498:	18 01 00 00 00 00 00 00 00 00 00 00 00 00 00 00	r1 = 0 ll
    3500:	b4 04 00 00 01 00 00 00	w4 = 1
    3501:	85 00 00 00 02 00 00 00	call 2
    3502:	bc 07 00 00 00 00 00 00	w7 = w0
    3503:	56 00 0f 00 00 00 00 00	if w0 != 0 goto +15 <LBB1_414>
    3504:	bf a2 00 00 00 00 00 00	r2 = r10
    3505:	07 02 00 00 38 ff ff ff	r2 += -200
    3506:	bf a3 00 00 00 00 00 00	r3 = r10
    3507:	07 03 00 00 60 ff ff ff	r3 += -160
    3508:	18 01 00 00 00 00 00 00 00 00 00 00 00 00 00 00	r1 = 0 ll
    3510:	b4 04 00 00 01 00 00 00	w4 = 1
    3511:	85 00 00 00 02 00 00 00	call 2
    3512:	bc 07 00 00 00 00 00 00	w7 = w0
    3513:	16 07 c3 0e 00 00 00 00	if w7 == 0 goto +3779 <LBB1_731>
    3514:	bf a2 00 00 00 00 00 00	r2 = r10
    3515:	07 02 00 00 98 ff ff ff	r2 += -104
    3516:	18 01 00 00 00 00 00 00 00 00 00 00 00 00 00 00	r1 = 0 ll
    3518:	85 00 00 00 03 00 00 00	call 3

0000000000006df8 <LBB1_414>:
    3519:	04 08 00 00 01 00 00 00	w8 += 1
    3520:	bc 81 00 00 00 00 00 00	w1 = w8
    3521:	54 01 00 00 ff ff 00 00	w1 &= 65535
    3522:	34 01 00 00 ff 7f 00 00	w1 /= 32767
    3523:	0c 18 00 00 00 00 00 00	w8 += w1
    3524:	44 08 00 00 00 80 ff ff	w8 |= -32768
    3525:	bf 81 00 00 00 00 00 00	r1 = r8
    3526:	dc 01 00 00 10 00 00 00	r1 = be16 r1
    3527:	6b 1a b8 ff 00 00 00 00	*(u16 *)(r10 - 72) = r1
    3528:	6b 1a 90 ff 00 00 00 00	*(u16 *)(r10 - 112) = r1
    3529:	bf a2 00 00 00 00 00 00	r2 = r10
    3530:	07 02 00 00 98 ff ff ff	r2 += -104
    3531:	18 01 00 00 00 00 00 00 00 00 00 00 00 00 00 00	r1 = 0 ll
    3533:	85 00 00 00 01 00 00 00	call 1
    3534:	55 00 1d 00 00 00 00 00	if r0 != 0 goto +29 <LBB1_418>
    3535:	85 00 00 00 76 00 00 00	call 118
    3536:	77 00 00 00 08 00 00 00	r0 >>= 8
    3537:	7b 0a 60 ff 00 00 00 00	*(u64 *)(r10 - 160) = r0
    3538:	7b 0a c0 ff 00 00 00 00	*(u64 *)(r10 - 64) = r0
    3539:	bf a2 00 00 00 00 00 00	r2 = r10
    3540:	07 02 00 00 98 ff ff ff	r2 += -104
    3541:	bf a3 00 00 00 00 00 00	r3 = r10
    3542:	07 03 00 00 c0 ff ff ff	r3 += -64
    3543:	18 01 00 00 00 00 00 00 00 00 00 00 00 00 00 00	r1 = 0 ll
    3545:	b4 04 00 00 01 00 00 00	w4 = 1
    3546:	85 00 00 00 02 00 00 00	call 2
    3547:	bc 07 00 00 00 00 00 00	w7 = w0
    3548:	56 00 0f 00 00 00 00 00	if w0 != 0 goto +15 <LBB1_418>
    3549:	bf a2 00 00 00 00 00 00	r2 = r10
    3550:	07 02 00 00 38 ff ff ff	r2 += -200
    3551:	bf a3 00 00 00 00 00 00	r3 = r10
    3552:	07 03 00 00 60 ff ff ff	r3 += -160
    3553:	18 01 00 00 00 00 00 00 00 00 00 00 00 00 00 00	r1 = 0 ll
    3555:	b4 04 00 00 01 00 00 00	w4 = 1
    3556:	85 00 00 00 02 00 00 00	call 2
    3557:	bc 07 00 00 00 00 00 00	w7 = w0
    3558:	16 07 96 0e 00 00 00 00	if w7 == 0 goto +3734 <LBB1_731>
    3559:	bf a2 00 00 00 00 00 00	r2 = r10
    3560:	07 02 00 00 98 ff ff ff	r2 += -104
    3561:	18 01 00 00 00 00 00 00 00 00 00 00 00 00 00 00	r1 = 0 ll
    3563:	85 00 00 00 03 00 00 00	call 3

0000000000006f60 <LBB1_418>:
    3564:	04 08 00 00 01 00 00 00	w8 += 1
    3565:	bc 81 00 00 00 00 00 00	w1 = w8
    3566:	54 01 00 00 ff ff 00 00	w1 &= 65535
    3567:	34 01 00 00 ff 7f 00 00	w1 /= 32767
    3568:	0c 18 00 00 00 00 00 00	w8 += w1
    3569:	44 08 00 00 00 80 ff ff	w8 |= -32768
    3570:	bf 81 00 00 00 00 00 00	r1 = r8
    3571:	dc 01 00 00 10 00 00 00	r1 = be16 r1
    3572:	6b 1a b8 ff 00 00 00 00	*(u16 *)(r10 - 72) = r1
    3573:	6b 1a 90 ff 00 00 00 00	*(u16 *)(r10 - 112) = r1
    3574:	bf a2 00 00 00 00 00 00	r2 = r10
    3575:	07 02 00 00 98 ff ff ff	r2 += -104
    3576:	18 01 00 00 00 00 00 00 00 00 00 00 00 00 00 00	r1 = 0 ll
    3578:	85 00 00 00 01 00 00 00	call 1
    3579:	55 00 1d 00 00 00 00 00	if r0 != 0 goto +29 <LBB1_422>
    3580:	85 00 00 00 76 00 00 00	call 118
    3581:	77 00 00 00 08 00 00 00	r0 >>= 8
    3582:	7b 0a 60 ff 00 00 00 00	*(u64 *)(r10 - 160) = r0
    3583:	7b 0a c0 ff 00 00 00 00	*(u64 *)(r10 - 64) = r0
    3584:	bf a2 00 00 00 00 00 00	r2 = r10
    3585:	07 02 00 00 98 ff ff ff	r2 += -104
    3586:	bf a3 00 00 00 00 00 00	r3 = r10
    3587:	07 03 00 00 c0 ff ff ff	r3 += -64
    3588:	18 01 00 00 00 00 00 00 00 00 00 00 00 00 00 00	r1 = 0 ll
    3590:	b4 04 00 00 01 00 00 00	w4 = 1
    3591:	85 00 00 00 02 00 00 00	call 2
    3592:	bc 07 00 00 00 00 00 00	w7 = w0
    3593:	56 00 0f 00 00 00 00 00	if w0 != 0 goto +15 <LBB1_422>
    3594:	bf a2 00 00 00 00 00 00	r2 = r10
    3595:	07 02 00 00 38 ff ff ff	r2 += -200
    3596:	bf a3 00 00 00 00 00 00	r3 = r10
    3597:	07 03 00 00 60 ff ff ff	r3 += -160
    3598:	18 01 00 00 00 00 00 00 00 00 00 00 00 00 00 00	r1 = 0 ll
    3600:	b4 04 00 00 01 00 00 00	w4 = 1
    3601:	85 00 00 00 02 00 00 00	call 2
    3602:	bc 07 00 00 00 00 00 00	w7 = w0
    3603:	16 07 69 0e 00 00 00 00	if w7 == 0 goto +3689 <LBB1_731>
    3604:	bf a2 00 00 00 00 00 00	r2 = r10
    3605:	07 02 00 00 98 ff ff ff	r2 += -104
    3606:	18 01 00 00 00 00 00 00 00 00 00 00 00 00 00 00	r1 = 0 ll
    3608:	85 00 00 00 03 00 00 00	call 3

00000000000070c8 <LBB1_422>:
    3609:	04 08 00 00 01 00 00 00	w8 += 1
    3610:	bc 81 00 00 00 00 00 00	w1 = w8
    3611:	54 01 00 00 ff ff 00 00	w1 &= 65535
    3612:	34 01 00 00 ff 7f 00 00	w1 /= 32767
    3613:	0c 18 00 00 00 00 00 00	w8 += w1
    3614:	44 08 00 00 00 80 ff ff	w8 |= -32768
    3615:	bf 81 00 00 00 00 00 00	r1 = r8
    3616:	dc 01 00 00 10 00 00 00	r1 = be16 r1
    3617:	6b 1a b8 ff 00 00 00 00	*(u16 *)(r10 - 72) = r1
    3618:	6b 1a 90 ff 00 00 00 00	*(u16 *)(r10 - 112) = r1
    3619:	bf a2 00 00 00 00 00 00	r2 = r10
    3620:	07 02 00 00 98 ff ff ff	r2 += -104
    3621:	18 01 00 00 00 00 00 00 00 00 00 00 00 00 00 00	r1 = 0 ll
    3623:	85 00 00 00 01 00 00 00	call 1
    3624:	55 00 1d 00 00 00 00 00	if r0 != 0 goto +29 <LBB1_426>
    3625:	85 00 00 00 76 00 00 00	call 118
    3626:	77 00 00 00 08 00 00 00	r0 >>= 8
    3627:	7b 0a 60 ff 00 00 00 00	*(u64 *)(r10 - 160) = r0
    3628:	7b 0a c0 ff 00 00 00 00	*(u64 *)(r10 - 64) = r0
    3629:	bf a2 00 00 00 00 00 00	r2 = r10
    3630:	07 02 00 00 98 ff ff ff	r2 += -104
    3631:	bf a3 00 00 00 00 00 00	r3 = r10
    3632:	07 03 00 00 c0 ff ff ff	r3 += -64
    3633:	18 01 00 00 00 00 00 00 00 00 00 00 00 00 00 00	r1 = 0 ll
    3635:	b4 04 00 00 01 00 00 00	w4 = 1
    3636:	85 00 00 00 02 00 00 00	call 2
    3637:	bc 07 00 00 00 00 00 00	w7 = w0
    3638:	56 00 0f 00 00 00 00 00	if w0 != 0 goto +15 <LBB1_426>
    3639:	bf a2 00 00 00 00 00 00	r2 = r10
    3640:	07 02 00 00 38 ff ff ff	r2 += -200
    3641:	bf a3 00 00 00 00 00 00	r3 = r10
    3642:	07 03 00 00 60 ff ff ff	r3 += -160
    3643:	18 01 00 00 00 00 00 00 00 00 00 00 00 00 00 00	r1 = 0 ll
    3645:	b4 04 00 00 01 00 00 00	w4 = 1
    3646:	85 00 00 00 02 00 00 00	call 2
    3647:	bc 07 00 00 00 00 00 00	w7 = w0
    3648:	16 07 3c 0e 00 00 00 00	if w7 == 0 goto +3644 <LBB1_731>
    3649:	bf a2 00 00 00 00 00 00	r2 = r10
    3650:	07 02 00 00 98 ff ff ff	r2 += -104
    3651:	18 01 00 00 00 00 00 00 00 00 00 00 00 00 00 00	r1 = 0 ll
    3653:	85 00 00 00 03 00 00 00	call 3

0000000000007230 <LBB1_426>:
    3654:	04 08 00 00 01 00 00 00	w8 += 1
    3655:	bc 81 00 00 00 00 00 00	w1 = w8
    3656:	54 01 00 00 ff ff 00 00	w1 &= 65535
    3657:	34 01 00 00 ff 7f 00 00	w1 /= 32767
    3658:	0c 18 00 00 00 00 00 00	w8 += w1
    3659:	44 08 00 00 00 80 ff ff	w8 |= -32768
    3660:	bf 81 00 00 00 00 00 00	r1 = r8
    3661:	dc 01 00 00 10 00 00 00	r1 = be16 r1
    3662:	6b 1a b8 ff 00 00 00 00	*(u16 *)(r10 - 72) = r1
    3663:	6b 1a 90 ff 00 00 00 00	*(u16 *)(r10 - 112) = r1
    3664:	bf a2 00 00 00 00 00 00	r2 = r10
    3665:	07 02 00 00 98 ff ff ff	r2 += -104
    3666:	18 01 00 00 00 00 00 00 00 00 00 00 00 00 00 00	r1 = 0 ll
    3668:	85 00 00 00 01 00 00 00	call 1
    3669:	55 00 1d 00 00 00 00 00	if r0 != 0 goto +29 <LBB1_430>
    3670:	85 00 00 00 76 00 00 00	call 118
    3671:	77 00 00 00 08 00 00 00	r0 >>= 8
    3672:	7b 0a 60 ff 00 00 00 00	*(u64 *)(r10 - 160) = r0
    3673:	7b 0a c0 ff 00 00 00 00	*(u64 *)(r10 - 64) = r0
    3674:	bf a2 00 00 00 00 00 00	r2 = r10
    3675:	07 02 00 00 98 ff ff ff	r2 += -104
    3676:	bf a3 00 00 00 00 00 00	r3 = r10
    3677:	07 03 00 00 c0 ff ff ff	r3 += -64
    3678:	18 01 00 00 00 00 00 00 00 00 00 00 00 00 00 00	r1 = 0 ll
    3680:	b4 04 00 00 01 00 00 00	w4 = 1
    3681:	85 00 00 00 02 00 00 00	call 2
    3682:	bc 07 00 00 00 00 00 00	w7 = w0
    3683:	56 00 0f 00 00 00 00 00	if w0 != 0 goto +15 <LBB1_430>
    3684:	bf a2 00 00 00 00 00 00	r2 = r10
    3685:	07 02 00 00 38 ff ff ff	r2 += -200
    3686:	bf a3 00 00 00 00 00 00	r3 = r10
    3687:	07 03 00 00 60 ff ff ff	r3 += -160
    3688:	18 01 00 00 00 00 00 00 00 00 00 00 00 00 00 00	r1 = 0 ll
    3690:	b4 04 00 00 01 00 00 00	w4 = 1
    3691:	85 00 00 00 02 00 00 00	call 2
    3692:	bc 07 00 00 00 00 00 00	w7 = w0
    3693:	16 07 0f 0e 00 00 00 00	if w7 == 0 goto +3599 <LBB1_731>
    3694:	bf a2 00 00 00 00 00 00	r2 = r10
    3695:	07 02 00 00 98 ff ff ff	r2 += -104
    3696:	18 01 00 00 00 00 00 00 00 00 00 00 00 00 00 00	r1 = 0 ll
    3698:	85 00 00 00 03 00 00 00	call 3

0000000000007398 <LBB1_430>:
    3699:	04 08 00 00 01 00 00 00	w8 += 1
    3700:	bc 81 00 00 00 00 00 00	w1 = w8
    3701:	54 01 00 00 ff ff 00 00	w1 &= 65535
    3702:	34 01 00 00 ff 7f 00 00	w1 /= 32767
    3703:	0c 18 00 00 00 00 00 00	w8 += w1
    3704:	44 08 00 00 00 80 ff ff	w8 |= -32768
    3705:	bf 81 00 00 00 00 00 00	r1 = r8
    3706:	dc 01 00 00 10 00 00 00	r1 = be16 r1
    3707:	6b 1a b8 ff 00 00 00 00	*(u16 *)(r10 - 72) = r1
    3708:	6b 1a 90 ff 00 00 00 00	*(u16 *)(r10 - 112) = r1
    3709:	bf a2 00 00 00 00 00 00	r2 = r10
    3710:	07 02 00 00 98 ff ff ff	r2 += -104
    3711:	18 01 00 00 00 00 00 00 00 00 00 00 00 00 00 00	r1 = 0 ll
    3713:	85 00 00 00 01 00 00 00	call 1
    3714:	55 00 1d 00 00 00 00 00	if r0 != 0 goto +29 <LBB1_434>
    3715:	85 00 00 00 76 00 00 00	call 118
    3716:	77 00 00 00 08 00 00 00	r0 >>= 8
    3717:	7b 0a 60 ff 00 00 00 00	*(u64 *)(r10 - 160) = r0
    3718:	7b 0a c0 ff 00 00 00 00	*(u64 *)(r10 - 64) = r0
    3719:	bf a2 00 00 00 00 00 00	r2 = r10
    3720:	07 02 00 00 98 ff ff ff	r2 += -104
    3721:	bf a3 00 00 00 00 00 00	r3 = r10
    3722:	07 03 00 00 c0 ff ff ff	r3 += -64
    3723:	18 01 00 00 00 00 00 00 00 00 00 00 00 00 00 00	r1 = 0 ll
    3725:	b4 04 00 00 01 00 00 00	w4 = 1
    3726:	85 00 00 00 02 00 00 00	call 2
    3727:	bc 07 00 00 00 00 00 00	w7 = w0
    3728:	56 00 0f 00 00 00 00 00	if w0 != 0 goto +15 <LBB1_434>
    3729:	bf a2 00 00 00 00 00 00	r2 = r10
    3730:	07 02 00 00 38 ff ff ff	r2 += -200
    3731:	bf a3 00 00 00 00 00 00	r3 = r10
    3732:	07 03 00 00 60 ff ff ff	r3 += -160
    3733:	18 01 00 00 00 00 00 00 00 00 00 00 00 00 00 00	r1 = 0 ll
    3735:	b4 04 00 00 01 00 00 00	w4 = 1
    3736:	85 00 00 00 02 00 00 00	call 2
    3737:	bc 07 00 00 00 00 00 00	w7 = w0
    3738:	16 07 e2 0d 00 00 00 00	if w7 == 0 goto +3554 <LBB1_731>
    3739:	bf a2 00 00 00 00 00 00	r2 = r10
    3740:	07 02 00 00 98 ff ff ff	r2 += -104
    3741:	18 01 00 00 00 00 00 00 00 00 00 00 00 00 00 00	r1 = 0 ll
    3743:	85 00 00 00 03 00 00 00	call 3

0000000000007500 <LBB1_434>:
    3744:	04 08 00 00 01 00 00 00	w8 += 1
    3745:	bc 81 00 00 00 00 00 00	w1 = w8
    3746:	54 01 00 00 ff ff 00 00	w1 &= 65535
    3747:	34 01 00 00 ff 7f 00 00	w1 /= 32767
    3748:	0c 18 00 00 00 00 00 00	w8 += w1
    3749:	44 08 00 00 00 80 ff ff	w8 |= -32768
    3750:	bf 81 00 00 00 00 00 00	r1 = r8
    3751:	dc 01 00 00 10 00 00 00	r1 = be16 r1
    3752:	6b 1a b8 ff 00 00 00 00	*(u16 *)(r10 - 72) = r1
    3753:	6b 1a 90 ff 00 00 00 00	*(u16 *)(r10 - 112) = r1
    3754:	bf a2 00 00 00 00 00 00	r2 = r10
    3755:	07 02 00 00 98 ff ff ff	r2 += -104
    3756:	18 01 00 00 00 00 00 00 00 00 00 00 00 00 00 00	r1 = 0 ll
    3758:	85 00 00 00 01 00 00 00	call 1
    3759:	55 00 1d 00 00 00 00 00	if r0 != 0 goto +29 <LBB1_438>
    3760:	85 00 00 00 76 00 00 00	call 118
    3761:	77 00 00 00 08 00 00 00	r0 >>= 8
    3762:	7b 0a 60 ff 00 00 00 00	*(u64 *)(r10 - 160) = r0
    3763:	7b 0a c0 ff 00 00 00 00	*(u64 *)(r10 - 64) = r0
    3764:	bf a2 00 00 00 00 00 00	r2 = r10
    3765:	07 02 00 00 98 ff ff ff	r2 += -104
    3766:	bf a3 00 00 00 00 00 00	r3 = r10
    3767:	07 03 00 00 c0 ff ff ff	r3 += -64
    3768:	18 01 00 00 00 00 00 00 00 00 00 00 00 00 00 00	r1 = 0 ll
    3770:	b4 04 00 00 01 00 00 00	w4 = 1
    3771:	85 00 00 00 02 00 00 00	call 2
    3772:	bc 07 00 00 00 00 00 00	w7 = w0
    3773:	56 00 0f 00 00 00 00 00	if w0 != 0 goto +15 <LBB1_438>
    3774:	bf a2 00 00 00 00 00 00	r2 = r10
    3775:	07 02 00 00 38 ff ff ff	r2 += -200
    3776:	bf a3 00 00 00 00 00 00	r3 = r10
    3777:	07 03 00 00 60 ff ff ff	r3 += -160
    3778:	18 01 00 00 00 00 00 00 00 00 00 00 00 00 00 00	r1 = 0 ll
    3780:	b4 04 00 00 01 00 00 00	w4 = 1
    3781:	85 00 00 00 02 00 00 00	call 2
    3782:	bc 07 00 00 00 00 00 00	w7 = w0
    3783:	16 07 b5 0d 00 00 00 00	if w7 == 0 goto +3509 <LBB1_731>
    3784:	bf a2 00 00 00 00 00 00	r2 = r10
    3785:	07 02 00 00 98 ff ff ff	r2 += -104
    3786:	18 01 00 00 00 00 00 00 00 00 00 00 00 00 00 00	r1 = 0 ll
    3788:	85 00 00 00 03 00 00 00	call 3

0000000000007668 <LBB1_438>:
    3789:	04 08 00 00 01 00 00 00	w8 += 1
    3790:	bc 81 00 00 00 00 00 00	w1 = w8
    3791:	54 01 00 00 ff ff 00 00	w1 &= 65535
    3792:	34 01 00 00 ff 7f 00 00	w1 /= 32767
    3793:	0c 18 00 00 00 00 00 00	w8 += w1
    3794:	44 08 00 00 00 80 ff ff	w8 |= -32768
    3795:	bf 81 00 00 00 00 00 00	r1 = r8
    3796:	dc 01 00 00 10 00 00 00	r1 = be16 r1
    3797:	6b 1a b8 ff 00 00 00 00	*(u16 *)(r10 - 72) = r1
    3798:	6b 1a 90 ff 00 00 00 00	*(u16 *)(r10 - 112) = r1
    3799:	bf a2 00 00 00 00 00 00	r2 = r10
    3800:	07 02 00 00 98 ff ff ff	r2 += -104
    3801:	18 01 00 00 00 00 00 00 00 00 00 00 00 00 00 00	r1 = 0 ll
    3803:	85 00 00 00 01 00 00 00	call 1
    3804:	55 00 1d 00 00 00 00 00	if r0 != 0 goto +29 <LBB1_442>
    3805:	85 00 00 00 76 00 00 00	call 118
    3806:	77 00 00 00 08 00 00 00	r0 >>= 8
    3807:	7b 0a 60 ff 00 00 00 00	*(u64 *)(r10 - 160) = r0
    3808:	7b 0a c0 ff 00 00 00 00	*(u64 *)(r10 - 64) = r0
    3809:	bf a2 00 00 00 00 00 00	r2 = r10
    3810:	07 02 00 00 98 ff ff ff	r2 += -104
    3811:	bf a3 00 00 00 00 00 00	r3 = r10
    3812:	07 03 00 00 c0 ff ff ff	r3 += -64
    3813:	18 01 00 00 00 00 00 00 00 00 00 00 00 00 00 00	r1 = 0 ll
    3815:	b4 04 00 00 01 00 00 00	w4 = 1
    3816:	85 00 00 00 02 00 00 00	call 2
    3817:	bc 07 00 00 00 00 00 00	w7 = w0
    3818:	56 00 0f 00 00 00 00 00	if w0 != 0 goto +15 <LBB1_442>
    3819:	bf a2 00 00 00 00 00 00	r2 = r10
    3820:	07 02 00 00 38 ff ff ff	r2 += -200
    3821:	bf a3 00 00 00 00 00 00	r3 = r10
    3822:	07 03 00 00 60 ff ff ff	r3 += -160
    3823:	18 01 00 00 00 00 00 00 00 00 00 00 00 00 00 00	r1 = 0 ll
    3825:	b4 04 00 00 01 00 00 00	w4 = 1
    3826:	85 00 00 00 02 00 00 00	call 2
    3827:	bc 07 00 00 00 00 00 00	w7 = w0
    3828:	16 07 88 0d 00 00 00 00	if w7 == 0 goto +3464 <LBB1_731>
    3829:	bf a2 00 00 00 00 00 00	r2 = r10
    3830:	07 02 00 00 98 ff ff ff	r2 += -104
    3831:	18 01 00 00 00 00 00 00 00 00 00 00 00 00 00 00	r1 = 0 ll
    3833:	85 00 00 00 03 00 00 00	call 3

00000000000077d0 <LBB1_442>:
    3834:	04 08 00 00 01 00 00 00	w8 += 1
    3835:	bc 81 00 00 00 00 00 00	w1 = w8
    3836:	54 01 00 00 ff ff 00 00	w1 &= 65535
    3837:	34 01 00 00 ff 7f 00 00	w1 /= 32767
    3838:	0c 18 00 00 00 00 00 00	w8 += w1
    3839:	44 08 00 00 00 80 ff ff	w8 |= -32768
    3840:	bf 81 00 00 00 00 00 00	r1 = r8
    3841:	dc 01 00 00 10 00 00 00	r1 = be16 r1
    3842:	6b 1a b8 ff 00 00 00 00	*(u16 *)(r10 - 72) = r1
    3843:	6b 1a 90 ff 00 00 00 00	*(u16 *)(r10 - 112) = r1
    3844:	bf a2 00 00 00 00 00 00	r2 = r10
    3845:	07 02 00 00 98 ff ff ff	r2 += -104
    3846:	18 01 00 00 00 00 00 00 00 00 00 00 00 00 00 00	r1 = 0 ll
    3848:	85 00 00 00 01 00 00 00	call 1
    3849:	55 00 1d 00 00 00 00 00	if r0 != 0 goto +29 <LBB1_446>
    3850:	85 00 00 00 76 00 00 00	call 118
    3851:	77 00 00 00 08 00 00 00	r0 >>= 8
    3852:	7b 0a 60 ff 00 00 00 00	*(u64 *)(r10 - 160) = r0
    3853:	7b 0a c0 ff 00 00 00 00	*(u64 *)(r10 - 64) = r0
    3854:	bf a2 00 00 00 00 00 00	r2 = r10
    3855:	07 02 00 00 98 ff ff ff	r2 += -104
    3856:	bf a3 00 00 00 00 00 00	r3 = r10
    3857:	07 03 00 00 c0 ff ff ff	r3 += -64
    3858:	18 01 00 00 00 00 00 00 00 00 00 00 00 00 00 00	r1 = 0 ll
    3860:	b4 04 00 00 01 00 00 00	w4 = 1
    3861:	85 00 00 00 02 00 00 00	call 2
    3862:	bc 07 00 00 00 00 00 00	w7 = w0
    3863:	56 00 0f 00 00 00 00 00	if w0 != 0 goto +15 <LBB1_446>
    3864:	bf a2 00 00 00 00 00 00	r2 = r10
    3865:	07 02 00 00 38 ff ff ff	r2 += -200
    3866:	bf a3 00 00 00 00 00 00	r3 = r10
    3867:	07 03 00 00 60 ff ff ff	r3 += -160
    3868:	18 01 00 00 00 00 00 00 00 00 00 00 00 00 00 00	r1 = 0 ll
    3870:	b4 04 00 00 01 00 00 00	w4 = 1
    3871:	85 00 00 00 02 00 00 00	call 2
    3872:	bc 07 00 00 00 00 00 00	w7 = w0
    3873:	16 07 5b 0d 00 00 00 00	if w7 == 0 goto +3419 <LBB1_731>
    3874:	bf a2 00 00 00 00 00 00	r2 = r10
    3875:	07 02 00 00 98 ff ff ff	r2 += -104
    3876:	18 01 00 00 00 00 00 00 00 00 00 00 00 00 00 00	r1 = 0 ll
    3878:	85 00 00 00 03 00 00 00	call 3

0000000000007938 <LBB1_446>:
    3879:	04 08 00 00 01 00 00 00	w8 += 1
    3880:	bc 81 00 00 00 00 00 00	w1 = w8
    3881:	54 01 00 00 ff ff 00 00	w1 &= 65535
    3882:	34 01 00 00 ff 7f 00 00	w1 /= 32767
    3883:	0c 18 00 00 00 00 00 00	w8 += w1
    3884:	44 08 00 00 00 80 ff ff	w8 |= -32768
    3885:	bf 81 00 00 00 00 00 00	r1 = r8
    3886:	dc 01 00 00 10 00 00 00	r1 = be16 r1
    3887:	6b 1a b8 ff 00 00 00 00	*(u16 *)(r10 - 72) = r1
    3888:	6b 1a 90 ff 00 00 00 00	*(u16 *)(r10 - 112) = r1
    3889:	bf a2 00 00 00 00 00 00	r2 = r10
    3890:	07 02 00 00 98 ff ff ff	r2 += -104
    3891:	18 01 00 00 00 00 00 00 00 00 00 00 00 00 00 00	r1 = 0 ll
    3893:	85 00 00 00 01 00 00 00	call 1
    3894:	55 00 1d 00 00 00 00 00	if r0 != 0 goto +29 <LBB1_450>
    3895:	85 00 00 00 76 00 00 00	call 118
    3896:	77 00 00 00 08 00 00 00	r0 >>= 8
    3897:	7b 0a 60 ff 00 00 00 00	*(u64 *)(r10 - 160) = r0
    3898:	7b 0a c0 ff 00 00 00 00	*(u64 *)(r10 - 64) = r0
    3899:	bf a2 00 00 00 00 00 00	r2 = r10
    3900:	07 02 00 00 98 ff ff ff	r2 += -104
    3901:	bf a3 00 00 00 00 00 00	r3 = r10
    3902:	07 03 00 00 c0 ff ff ff	r3 += -64
    3903:	18 01 00 00 00 00 00 00 00 00 00 00 00 00 00 00	r1 = 0 ll
    3905:	b4 04 00 00 01 00 00 00	w4 = 1
    3906:	85 00 00 00 02 00 00 00	call 2
    3907:	bc 07 00 00 00 00 00 00	w7 = w0
    3908:	56 00 0f 00 00 00 00 00	if w0 != 0 goto +15 <LBB1_450>
    3909:	bf a2 00 00 00 00 00 00	r2 = r10
    3910:	07 02 00 00 38 ff ff ff	r2 += -200
    3911:	bf a3 00 00 00 00 00 00	r3 = r10
    3912:	07 03 00 00 60 ff ff ff	r3 += -160
    3913:	18 01 00 00 00 00 00 00 00 00 00 00 00 00 00 00	r1 = 0 ll
    3915:	b4 04 00 00 01 00 00 00	w4 = 1
    3916:	85 00 00 00 02 00 00 00	call 2
    3917:	bc 07 00 00 00 00 00 00	w7 = w0
    3918:	16 07 2e 0d 00 00 00 00	if w7 == 0 goto +3374 <LBB1_731>
    3919:	bf a2 00 00 00 00 00 00	r2 = r10
    3920:	07 02 00 00 98 ff ff ff	r2 += -104
    3921:	18 01 00 00 00 00 00 00 00 00 00 00 00 00 00 00	r1 = 0 ll
    3923:	85 00 00 00 03 00 00 00	call 3

0000000000007aa0 <LBB1_450>:
    3924:	04 08 00 00 01 00 00 00	w8 += 1
    3925:	bc 81 00 00 00 00 00 00	w1 = w8
    3926:	54 01 00 00 ff ff 00 00	w1 &= 65535
    3927:	34 01 00 00 ff 7f 00 00	w1 /= 32767
    3928:	0c 18 00 00 00 00 00 00	w8 += w1
    3929:	44 08 00 00 00 80 ff ff	w8 |= -32768
    3930:	bf 81 00 00 00 00 00 00	r1 = r8
    3931:	dc 01 00 00 10 00 00 00	r1 = be16 r1
    3932:	6b 1a b8 ff 00 00 00 00	*(u16 *)(r10 - 72) = r1
    3933:	6b 1a 90 ff 00 00 00 00	*(u16 *)(r10 - 112) = r1
    3934:	bf a2 00 00 00 00 00 00	r2 = r10
    3935:	07 02 00 00 98 ff ff ff	r2 += -104
    3936:	18 01 00 00 00 00 00 00 00 00 00 00 00 00 00 00	r1 = 0 ll
    3938:	85 00 00 00 01 00 00 00	call 1
    3939:	55 00 1d 00 00 00 00 00	if r0 != 0 goto +29 <LBB1_454>
    3940:	85 00 00 00 76 00 00 00	call 118
    3941:	77 00 00 00 08 00 00 00	r0 >>= 8
    3942:	7b 0a 60 ff 00 00 00 00	*(u64 *)(r10 - 160) = r0
    3943:	7b 0a c0 ff 00 00 00 00	*(u64 *)(r10 - 64) = r0
    3944:	bf a2 00 00 00 00 00 00	r2 = r10
    3945:	07 02 00 00 98 ff ff ff	r2 += -104
    3946:	bf a3 00 00 00 00 00 00	r3 = r10
    3947:	07 03 00 00 c0 ff ff ff	r3 += -64
    3948:	18 01 00 00 00 00 00 00 00 00 00 00 00 00 00 00	r1 = 0 ll
    3950:	b4 04 00 00 01 00 00 00	w4 = 1
    3951:	85 00 00 00 02 00 00 00	call 2
    3952:	bc 07 00 00 00 00 00 00	w7 = w0
    3953:	56 00 0f 00 00 00 00 00	if w0 != 0 goto +15 <LBB1_454>
    3954:	bf a2 00 00 00 00 00 00	r2 = r10
    3955:	07 02 00 00 38 ff ff ff	r2 += -200
    3956:	bf a3 00 00 00 00 00 00	r3 = r10
    3957:	07 03 00 00 60 ff ff ff	r3 += -160
    3958:	18 01 00 00 00 00 00 00 00 00 00 00 00 00 00 00	r1 = 0 ll
    3960:	b4 04 00 00 01 00 00 00	w4 = 1
    3961:	85 00 00 00 02 00 00 00	call 2
    3962:	bc 07 00 00 00 00 00 00	w7 = w0
    3963:	16 07 01 0d 00 00 00 00	if w7 == 0 goto +3329 <LBB1_731>
    3964:	bf a2 00 00 00 00 00 00	r2 = r10
    3965:	07 02 00 00 98 ff ff ff	r2 += -104
    3966:	18 01 00 00 00 00 00 00 00 00 00 00 00 00 00 00	r1 = 0 ll
    3968:	85 00 00 00 03 00 00 00	call 3

0000000000007c08 <LBB1_454>:
    3969:	04 08 00 00 01 00 00 00	w8 += 1
    3970:	bc 81 00 00 00 00 00 00	w1 = w8
    3971:	54 01 00 00 ff ff 00 00	w1 &= 65535
    3972:	34 01 00 00 ff 7f 00 00	w1 /= 32767
    3973:	0c 18 00 00 00 00 00 00	w8 += w1
    3974:	44 08 00 00 00 80 ff ff	w8 |= -32768
    3975:	bf 81 00 00 00 00 00 00	r1 = r8
    3976:	dc 01 00 00 10 00 00 00	r1 = be16 r1
    3977:	6b 1a b8 ff 00 00 00 00	*(u16 *)(r10 - 72) = r1
    3978:	6b 1a 90 ff 00 00 00 00	*(u16 *)(r10 - 112) = r1
    3979:	bf a2 00 00 00 00 00 00	r2 = r10
    3980:	07 02 00 00 98 ff ff ff	r2 += -104
    3981:	18 01 00 00 00 00 00 00 00 00 00 00 00 00 00 00	r1 = 0 ll
    3983:	85 00 00 00 01 00 00 00	call 1
    3984:	55 00 1d 00 00 00 00 00	if r0 != 0 goto +29 <LBB1_458>
    3985:	85 00 00 00 76 00 00 00	call 118
    3986:	77 00 00 00 08 00 00 00	r0 >>= 8
    3987:	7b 0a 60 ff 00 00 00 00	*(u64 *)(r10 - 160) = r0
    3988:	7b 0a c0 ff 00 00 00 00	*(u64 *)(r10 - 64) = r0
    3989:	bf a2 00 00 00 00 00 00	r2 = r10
    3990:	07 02 00 00 98 ff ff ff	r2 += -104
    3991:	bf a3 00 00 00 00 00 00	r3 = r10
    3992:	07 03 00 00 c0 ff ff ff	r3 += -64
    3993:	18 01 00 00 00 00 00 00 00 00 00 00 00 00 00 00	r1 = 0 ll
    3995:	b4 04 00 00 01 00 00 00	w4 = 1
    3996:	85 00 00 00 02 00 00 00	call 2
    3997:	bc 07 00 00 00 00 00 00	w7 = w0
    3998:	56 00 0f 00 00 00 00 00	if w0 != 0 goto +15 <LBB1_458>
    3999:	bf a2 00 00 00 00 00 00	r2 = r10
    4000:	07 02 00 00 38 ff ff ff	r2 += -200
    4001:	bf a3 00 00 00 00 00 00	r3 = r10
    4002:	07 03 00 00 60 ff ff ff	r3 += -160
    4003:	18 01 00 00 00 00 00 00 00 00 00 00 00 00 00 00	r1 = 0 ll
    4005:	b4 04 00 00 01 00 00 00	w4 = 1
    4006:	85 00 00 00 02 00 00 00	call 2
    4007:	bc 07 00 00 00 00 00 00	w7 = w0
    4008:	16 07 d4 0c 00 00 00 00	if w7 == 0 goto +3284 <LBB1_731>
    4009:	bf a2 00 00 00 00 00 00	r2 = r10
    4010:	07 02 00 00 98 ff ff ff	r2 += -104
    4011:	18 01 00 00 00 00 00 00 00 00 00 00 00 00 00 00	r1 = 0 ll
    4013:	85 00 00 00 03 00 00 00	call 3

0000000000007d70 <LBB1_458>:
    4014:	04 08 00 00 01 00 00 00	w8 += 1
    4015:	bc 81 00 00 00 00 00 00	w1 = w8
    4016:	54 01 00 00 ff ff 00 00	w1 &= 65535
    4017:	34 01 00 00 ff 7f 00 00	w1 /= 32767
    4018:	0c 18 00 00 00 00 00 00	w8 += w1
    4019:	44 08 00 00 00 80 ff ff	w8 |= -32768
    4020:	bf 81 00 00 00 00 00 00	r1 = r8
    4021:	dc 01 00 00 10 00 00 00	r1 = be16 r1
    4022:	6b 1a b8 ff 00 00 00 00	*(u16 *)(r10 - 72) = r1
    4023:	6b 1a 90 ff 00 00 00 00	*(u16 *)(r10 - 112) = r1
    4024:	bf a2 00 00 00 00 00 00	r2 = r10
    4025:	07 02 00 00 98 ff ff ff	r2 += -104
    4026:	18 01 00 00 00 00 00 00 00 00 00 00 00 00 00 00	r1 = 0 ll
    4028:	85 00 00 00 01 00 00 00	call 1
    4029:	55 00 1d 00 00 00 00 00	if r0 != 0 goto +29 <LBB1_462>
    4030:	85 00 00 00 76 00 00 00	call 118
    4031:	77 00 00 00 08 00 00 00	r0 >>= 8
    4032:	7b 0a 60 ff 00 00 00 00	*(u64 *)(r10 - 160) = r0
    4033:	7b 0a c0 ff 00 00 00 00	*(u64 *)(r10 - 64) = r0
    4034:	bf a2 00 00 00 00 00 00	r2 = r10
    4035:	07 02 00 00 98 ff ff ff	r2 += -104
    4036:	bf a3 00 00 00 00 00 00	r3 = r10
    4037:	07 03 00 00 c0 ff ff ff	r3 += -64
    4038:	18 01 00 00 00 00 00 00 00 00 00 00 00 00 00 00	r1 = 0 ll
    4040:	b4 04 00 00 01 00 00 00	w4 = 1
    4041:	85 00 00 00 02 00 00 00	call 2
    4042:	bc 07 00 00 00 00 00 00	w7 = w0
    4043:	56 00 0f 00 00 00 00 00	if w0 != 0 goto +15 <LBB1_462>
    4044:	bf a2 00 00 00 00 00 00	r2 = r10
    4045:	07 02 00 00 38 ff ff ff	r2 += -200
    4046:	bf a3 00 00 00 00 00 00	r3 = r10
    4047:	07 03 00 00 60 ff ff ff	r3 += -160
    4048:	18 01 00 00 00 00 00 00 00 00 00 00 00 00 00 00	r1 = 0 ll
    4050:	b4 04 00 00 01 00 00 00	w4 = 1
    4051:	85 00 00 00 02 00 00 00	call 2
    4052:	bc 07 00 00 00 00 00 00	w7 = w0
    4053:	16 07 a7 0c 00 00 00 00	if w7 == 0 goto +3239 <LBB1_731>
    4054:	bf a2 00 00 00 00 00 00	r2 = r10
    4055:	07 02 00 00 98 ff ff ff	r2 += -104
    4056:	18 01 00 00 00 00 00 00 00 00 00 00 00 00 00 00	r1 = 0 ll
    4058:	85 00 00 00 03 00 00 00	call 3

0000000000007ed8 <LBB1_462>:
    4059:	04 08 00 00 01 00 00 00	w8 += 1
    4060:	bc 81 00 00 00 00 00 00	w1 = w8
    4061:	54 01 00 00 ff ff 00 00	w1 &= 65535
    4062:	34 01 00 00 ff 7f 00 00	w1 /= 32767
    4063:	0c 18 00 00 00 00 00 00	w8 += w1
    4064:	44 08 00 00 00 80 ff ff	w8 |= -32768
    4065:	bf 81 00 00 00 00 00 00	r1 = r8
    4066:	dc 01 00 00 10 00 00 00	r1 = be16 r1
    4067:	6b 1a b8 ff 00 00 00 00	*(u16 *)(r10 - 72) = r1
    4068:	6b 1a 90 ff 00 00 00 00	*(u16 *)(r10 - 112) = r1
    4069:	bf a2 00 00 00 00 00 00	r2 = r10
    4070:	07 02 00 00 98 ff ff ff	r2 += -104
    4071:	18 01 00 00 00 00 00 00 00 00 00 00 00 00 00 00	r1 = 0 ll
    4073:	85 00 00 00 01 00 00 00	call 1
    4074:	55 00 1d 00 00 00 00 00	if r0 != 0 goto +29 <LBB1_466>
    4075:	85 00 00 00 76 00 00 00	call 118
    4076:	77 00 00 00 08 00 00 00	r0 >>= 8
    4077:	7b 0a 60 ff 00 00 00 00	*(u64 *)(r10 - 160) = r0
    4078:	7b 0a c0 ff 00 00 00 00	*(u64 *)(r10 - 64) = r0
    4079:	bf a2 00 00 00 00 00 00	r2 = r10
    4080:	07 02 00 00 98 ff ff ff	r2 += -104
    4081:	bf a3 00 00 00 00 00 00	r3 = r10
    4082:	07 03 00 00 c0 ff ff ff	r3 += -64
    4083:	18 01 00 00 00 00 00 00 00 00 00 00 00 00 00 00	r1 = 0 ll
    4085:	b4 04 00 00 01 00 00 00	w4 = 1
    4086:	85 00 00 00 02 00 00 00	call 2
    4087:	bc 07 00 00 00 00 00 00	w7 = w0
    4088:	56 00 0f 00 00 00 00 00	if w0 != 0 goto +15 <LBB1_466>
    4089:	bf a2 00 00 00 00 00 00	r2 = r10
    4090:	07 02 00 00 38 ff ff ff	r2 += -200
    4091:	bf a3 00 00 00 00 00 00	r3 = r10
    4092:	07 03 00 00 60 ff ff ff	r3 += -160
    4093:	18 01 00 00 00 00 00 00 00 00 00 00 00 00 00 00	r1 = 0 ll
    4095:	b4 04 00 00 01 00 00 00	w4 = 1
    4096:	85 00 00 00 02 00 00 00	call 2
    4097:	bc 07 00 00 00 00 00 00	w7 = w0
    4098:	16 07 7a 0c 00 00 00 00	if w7 == 0 goto +3194 <LBB1_731>
    4099:	bf a2 00 00 00 00 00 00	r2 = r10
    4100:	07 02 00 00 98 ff ff ff	r2 += -104
    4101:	18 01 00 00 00 00 00 00 00 00 00 00 00 00 00 00	r1 = 0 ll
    4103:	85 00 00 00 03 00 00 00	call 3

0000000000008040 <LBB1_466>:
    4104:	04 08 00 00 01 00 00 00	w8 += 1
    4105:	bc 81 00 00 00 00 00 00	w1 = w8
    4106:	54 01 00 00 ff ff 00 00	w1 &= 65535
    4107:	34 01 00 00 ff 7f 00 00	w1 /= 32767
    4108:	0c 18 00 00 00 00 00 00	w8 += w1
    4109:	44 08 00 00 00 80 ff ff	w8 |= -32768
    4110:	bf 81 00 00 00 00 00 00	r1 = r8
    4111:	dc 01 00 00 10 00 00 00	r1 = be16 r1
    4112:	6b 1a b8 ff 00 00 00 00	*(u16 *)(r10 - 72) = r1
    4113:	6b 1a 90 ff 00 00 00 00	*(u16 *)(r10 - 112) = r1
    4114:	bf a2 00 00 00 00 00 00	r2 = r10
    4115:	07 02 00 00 98 ff ff ff	r2 += -104
    4116:	18 01 00 00 00 00 00 00 00 00 00 00 00 00 00 00	r1 = 0 ll
    4118:	85 00 00 00 01 00 00 00	call 1
    4119:	55 00 1d 00 00 00 00 00	if r0 != 0 goto +29 <LBB1_470>
    4120:	85 00 00 00 76 00 00 00	call 118
    4121:	77 00 00 00 08 00 00 00	r0 >>= 8
    4122:	7b 0a 60 ff 00 00 00 00	*(u64 *)(r10 - 160) = r0
    4123:	7b 0a c0 ff 00 00 00 00	*(u64 *)(r10 - 64) = r0
    4124:	bf a2 00 00 00 00 00 00	r2 = r10
    4125:	07 02 00 00 98 ff ff ff	r2 += -104
    4126:	bf a3 00 00 00 00 00 00	r3 = r10
    4127:	07 03 00 00 c0 ff ff ff	r3 += -64
    4128:	18 01 00 00 00 00 00 00 00 00 00 00 00 00 00 00	r1 = 0 ll
    4130:	b4 04 00 00 01 00 00 00	w4 = 1
    4131:	85 00 00 00 02 00 00 00	call 2
    4132:	bc 07 00 00 00 00 00 00	w7 = w0
    4133:	56 00 0f 00 00 00 00 00	if w0 != 0 goto +15 <LBB1_470>
    4134:	bf a2 00 00 00 00 00 00	r2 = r10
    4135:	07 02 00 00 38 ff ff ff	r2 += -200
    4136:	bf a3 00 00 00 00 00 00	r3 = r10
    4137:	07 03 00 00 60 ff ff ff	r3 += -160
    4138:	18 01 00 00 00 00 00 00 00 00 00 00 00 00 00 00	r1 = 0 ll
    4140:	b4 04 00 00 01 00 00 00	w4 = 1
    4141:	85 00 00 00 02 00 00 00	call 2
    4142:	bc 07 00 00 00 00 00 00	w7 = w0
    4143:	16 07 4d 0c 00 00 00 00	if w7 == 0 goto +3149 <LBB1_731>
    4144:	bf a2 00 00 00 00 00 00	r2 = r10
    4145:	07 02 00 00 98 ff ff ff	r2 += -104
    4146:	18 01 00 00 00 00 00 00 00 00 00 00 00 00 00 00	r1 = 0 ll
    4148:	85 00 00 00 03 00 00 00	call 3

00000000000081a8 <LBB1_470>:
    4149:	04 08 00 00 01 00 00 00	w8 += 1
    4150:	bc 81 00 00 00 00 00 00	w1 = w8
    4151:	54 01 00 00 ff ff 00 00	w1 &= 65535
    4152:	34 01 00 00 ff 7f 00 00	w1 /= 32767
    4153:	0c 18 00 00 00 00 00 00	w8 += w1
    4154:	44 08 00 00 00 80 ff ff	w8 |= -32768
    4155:	bf 81 00 00 00 00 00 00	r1 = r8
    4156:	dc 01 00 00 10 00 00 00	r1 = be16 r1
    4157:	6b 1a b8 ff 00 00 00 00	*(u16 *)(r10 - 72) = r1
    4158:	6b 1a 90 ff 00 00 00 00	*(u16 *)(r10 - 112) = r1
    4159:	bf a2 00 00 00 00 00 00	r2 = r10
    4160:	07 02 00 00 98 ff ff ff	r2 += -104
    4161:	18 01 00 00 00 00 00 00 00 00 00 00 00 00 00 00	r1 = 0 ll
    4163:	85 00 00 00 01 00 00 00	call 1
    4164:	55 00 1d 00 00 00 00 00	if r0 != 0 goto +29 <LBB1_474>
    4165:	85 00 00 00 76 00 00 00	call 118
    4166:	77 00 00 00 08 00 00 00	r0 >>= 8
    4167:	7b 0a 60 ff 00 00 00 00	*(u64 *)(r10 - 160) = r0
    4168:	7b 0a c0 ff 00 00 00 00	*(u64 *)(r10 - 64) = r0
    4169:	bf a2 00 00 00 00 00 00	r2 = r10
    4170:	07 02 00 00 98 ff ff ff	r2 += -104
    4171:	bf a3 00 00 00 00 00 00	r3 = r10
    4172:	07 03 00 00 c0 ff ff ff	r3 += -64
    4173:	18 01 00 00 00 00 00 00 00 00 00 00 00 00 00 00	r1 = 0 ll
    4175:	b4 04 00 00 01 00 00 00	w4 = 1
    4176:	85 00 00 00 02 00 00 00	call 2
    4177:	bc 07 00 00 00 00 00 00	w7 = w0
    4178:	56 00 0f 00 00 00 00 00	if w0 != 0 goto +15 <LBB1_474>
    4179:	bf a2 00 00 00 00 00 00	r2 = r10
    4180:	07 02 00 00 38 ff ff ff	r2 += -200
    4181:	bf a3 00 00 00 00 00 00	r3 = r10
    4182:	07 03 00 00 60 ff ff ff	r3 += -160
    4183:	18 01 00 00 00 00 00 00 00 00 00 00 00 00 00 00	r1 = 0 ll
    4185:	b4 04 00 00 01 00 00 00	w4 = 1
    4186:	85 00 00 00 02 00 00 00	call 2
    4187:	bc 07 00 00 00 00 00 00	w7 = w0
    4188:	16 07 20 0c 00 00 00 00	if w7 == 0 goto +3104 <LBB1_731>
    4189:	bf a2 00 00 00 00 00 00	r2 = r10
    4190:	07 02 00 00 98 ff ff ff	r2 += -104
    4191:	18 01 00 00 00 00 00 00 00 00 00 00 00 00 00 00	r1 = 0 ll
    4193:	85 00 00 00 03 00 00 00	call 3

0000000000008310 <LBB1_474>:
    4194:	04 08 00 00 01 00 00 00	w8 += 1
    4195:	bc 81 00 00 00 00 00 00	w1 = w8
    4196:	54 01 00 00 ff ff 00 00	w1 &= 65535
    4197:	34 01 00 00 ff 7f 00 00	w1 /= 32767
    4198:	0c 18 00 00 00 00 00 00	w8 += w1
    4199:	44 08 00 00 00 80 ff ff	w8 |= -32768
    4200:	bf 81 00 00 00 00 00 00	r1 = r8
    4201:	dc 01 00 00 10 00 00 00	r1 = be16 r1
    4202:	6b 1a b8 ff 00 00 00 00	*(u16 *)(r10 - 72) = r1
    4203:	6b 1a 90 ff 00 00 00 00	*(u16 *)(r10 - 112) = r1
    4204:	bf a2 00 00 00 00 00 00	r2 = r10
    4205:	07 02 00 00 98 ff ff ff	r2 += -104
    4206:	18 01 00 00 00 00 00 00 00 00 00 00 00 00 00 00	r1 = 0 ll
    4208:	85 00 00 00 01 00 00 00	call 1
    4209:	55 00 1d 00 00 00 00 00	if r0 != 0 goto +29 <LBB1_478>
    4210:	85 00 00 00 76 00 00 00	call 118
    4211:	77 00 00 00 08 00 00 00	r0 >>= 8
    4212:	7b 0a 60 ff 00 00 00 00	*(u64 *)(r10 - 160) = r0
    4213:	7b 0a c0 ff 00 00 00 00	*(u64 *)(r10 - 64) = r0
    4214:	bf a2 00 00 00 00 00 00	r2 = r10
    4215:	07 02 00 00 98 ff ff ff	r2 += -104
    4216:	bf a3 00 00 00 00 00 00	r3 = r10
    4217:	07 03 00 00 c0 ff ff ff	r3 += -64
    4218:	18 01 00 00 00 00 00 00 00 00 00 00 00 00 00 00	r1 = 0 ll
    4220:	b4 04 00 00 01 00 00 00	w4 = 1
    4221:	85 00 00 00 02 00 00 00	call 2
    4222:	bc 07 00 00 00 00 00 00	w7 = w0
    4223:	56 00 0f 00 00 00 00 00	if w0 != 0 goto +15 <LBB1_478>
    4224:	bf a2 00 00 00 00 00 00	r2 = r10
    4225:	07 02 00 00 38 ff ff ff	r2 += -200
    4226:	bf a3 00 00 00 00 00 00	r3 = r10
    4227:	07 03 00 00 60 ff ff ff	r3 += -160
    4228:	18 01 00 00 00 00 00 00 00 00 00 00 00 00 00 00	r1 = 0 ll
    4230:	b4 04 00 00 01 00 00 00	w4 = 1
    4231:	85 00 00 00 02 00 00 00	call 2
    4232:	bc 07 00 00 00 00 00 00	w7 = w0
    4233:	16 07 f3 0b 00 00 00 00	if w7 == 0 goto +3059 <LBB1_731>
    4234:	bf a2 00 00 00 00 00 00	r2 = r10
    4235:	07 02 00 00 98 ff ff ff	r2 += -104
    4236:	18 01 00 00 00 00 00 00 00 00 00 00 00 00 00 00	r1 = 0 ll
    4238:	85 00 00 00 03 00 00 00	call 3

0000000000008478 <LBB1_478>:
    4239:	04 08 00 00 01 00 00 00	w8 += 1
    4240:	bc 81 00 00 00 00 00 00	w1 = w8
    4241:	54 01 00 00 ff ff 00 00	w1 &= 65535
    4242:	34 01 00 00 ff 7f 00 00	w1 /= 32767
    4243:	0c 18 00 00 00 00 00 00	w8 += w1
    4244:	44 08 00 00 00 80 ff ff	w8 |= -32768
    4245:	bf 81 00 00 00 00 00 00	r1 = r8
    4246:	dc 01 00 00 10 00 00 00	r1 = be16 r1
    4247:	6b 1a b8 ff 00 00 00 00	*(u16 *)(r10 - 72) = r1
    4248:	6b 1a 90 ff 00 00 00 00	*(u16 *)(r10 - 112) = r1
    4249:	bf a2 00 00 00 00 00 00	r2 = r10
    4250:	07 02 00 00 98 ff ff ff	r2 += -104
    4251:	18 01 00 00 00 00 00 00 00 00 00 00 00 00 00 00	r1 = 0 ll
    4253:	85 00 00 00 01 00 00 00	call 1
    4254:	55 00 1f 00 00 00 00 00	if r0 != 0 goto +31 <LBB1_482>
    4255:	85 00 00 00 76 00 00 00	call 118
    4256:	77 00 00 00 08 00 00 00	r0 >>= 8
    4257:	7b 0a 60 ff 00 00 00 00	*(u64 *)(r10 - 160) = r0
    4258:	7b 0a c0 ff 00 00 00 00	*(u64 *)(r10 - 64) = r0
    4259:	bf a2 00 00 00 00 00 00	r2 = r10
    4260:	07 02 00 00 98 ff ff ff	r2 += -104
    4261:	bf a3 00 00 00 00 00 00	r3 = r10
    4262:	07 03 00 00 c0 ff ff ff	r3 += -64
    4263:	18 01 00 00 00 00 00 00 00 00 00 00 00 00 00 00	r1 = 0 ll
    4265:	b4 04 00 00 01 00 00 00	w4 = 1
    4266:	85 00 00 00 02 00 00 00	call 2
    4267:	bc 07 00 00 00 00 00 00	w7 = w0
    4268:	56 00 11 00 00 00 00 00	if w0 != 0 goto +17 <LBB1_482>
    4269:	bf a2 00 00 00 00 00 00	r2 = r10
    4270:	07 02 00 00 38 ff ff ff	r2 += -200
    4271:	bf a3 00 00 00 00 00 00	r3 = r10
    4272:	07 03 00 00 60 ff ff ff	r3 += -160
    4273:	18 01 00 00 00 00 00 00 00 00 00 00 00 00 00 00	r1 = 0 ll
    4275:	b4 04 00 00 01 00 00 00	w4 = 1
    4276:	85 00 00 00 02 00 00 00	call 2
    4277:	bc 07 00 00 00 00 00 00	w7 = w0
    4278:	b4 01 00 00 00 00 00 00	w1 = 0
    4279:	63 1a d8 fe 00 00 00 00	*(u32 *)(r10 - 296) = r1
    4280:	16 07 96 0b 00 00 00 00	if w7 == 0 goto +2966 <LBB1_221>
    4281:	bf a2 00 00 00 00 00 00	r2 = r10
    4282:	07 02 00 00 98 ff ff ff	r2 += -104
    4283:	18 01 00 00 00 00 00 00 00 00 00 00 00 00 00 00	r1 = 0 ll
    4285:	85 00 00 00 03 00 00 00	call 3

00000000000085f0 <LBB1_482>:
    4286:	04 08 00 00 01 00 00 00	w8 += 1
    4287:	bc 81 00 00 00 00 00 00	w1 = w8
    4288:	54 01 00 00 ff ff 00 00	w1 &= 65535
    4289:	34 01 00 00 ff 7f 00 00	w1 /= 32767
    4290:	0c 18 00 00 00 00 00 00	w8 += w1
    4291:	44 08 00 00 00 80 ff ff	w8 |= -32768
    4292:	bf 81 00 00 00 00 00 00	r1 = r8
    4293:	dc 01 00 00 10 00 00 00	r1 = be16 r1
    4294:	6b 1a b8 ff 00 00 00 00	*(u16 *)(r10 - 72) = r1
    4295:	6b 1a 90 ff 00 00 00 00	*(u16 *)(r10 - 112) = r1
    4296:	bf a2 00 00 00 00 00 00	r2 = r10
    4297:	07 02 00 00 98 ff ff ff	r2 += -104
    4298:	18 01 00 00 00 00 00 00 00 00 00 00 00 00 00 00	r1 = 0 ll
    4300:	85 00 00 00 01 00 00 00	call 1
    4301:	55 00 1f 00 00 00 00 00	if r0 != 0 goto +31 <LBB1_486>
    4302:	85 00 00 00 76 00 00 00	call 118
    4303:	77 00 00 00 08 00 00 00	r0 >>= 8
    4304:	7b 0a 60 ff 00 00 00 00	*(u64 *)(r10 - 160) = r0
    4305:	7b 0a c0 ff 00 00 00 00	*(u64 *)(r10 - 64) = r0
    4306:	bf a2 00 00 00 00 00 00	r2 = r10
    4307:	07 02 00 00 98 ff ff ff	r2 += -104
    4308:	bf a3 00 00 00 00 00 00	r3 = r10
    4309:	07 03 00 00 c0 ff ff ff	r3 += -64
    4310:	18 01 00 00 00 00 00 00 00 00 00 00 00 00 00 00	r1 = 0 ll
    4312:	b4 04 00 00 01 00 00 00	w4 = 1
    4313:	85 00 00 00 02 00 00 00	call 2
    4314:	bc 07 00 00 00 00 00 00	w7 = w0
    4315:	56 00 11 00 00 00 00 00	if w0 != 0 goto +17 <LBB1_486>
    4316:	bf a2 00 00 00 00 00 00	r2 = r10
    4317:	07 02 00 00 38 ff ff ff	r2 += -200
    4318:	bf a3 00 00 00 00 00 00	r3 = r10
    4319:	07 03 00 00 60 ff ff ff	r3 += -160
    4320:	18 01 00 00 00 00 00 00 00 00 00 00 00 00 00 00	r1 = 0 ll
    4322:	b4 04 00 00 01 00 00 00	w4 = 1
    4323:	85 00 00 00 02 00 00 00	call 2
    4324:	bc 07 00 00 00 00 00 00	w7 = w0
    4325:	b4 01 00 00 00 00 00 00	w1 = 0
    4326:	63 1a d8 fe 00 00 00 00	*(u32 *)(r10 - 296) = r1
    4327:	16 07 67 0b 00 00 00 00	if w7 == 0 goto +2919 <LBB1_221>
    4328:	bf a2 00 00 00 00 00 00	r2 = r10
    4329:	07 02 00 00 98 ff ff ff	r2 += -104
    4330:	18 01 00 00 00 00 00 00 00 00 00 00 00 00 00 00	r1 = 0 ll
    4332:	85 00 00 00 03 00 00 00	call 3

0000000000008768 <LBB1_486>:
    4333:	04 08 00 00 01 00 00 00	w8 += 1
    4334:	bc 81 00 00 00 00 00 00	w1 = w8
    4335:	54 01 00 00 ff ff 00 00	w1 &= 65535
    4336:	34 01 00 00 ff 7f 00 00	w1 /= 32767
    4337:	0c 18 00 00 00 00 00 00	w8 += w1
    4338:	44 08 00 00 00 80 ff ff	w8 |= -32768
    4339:	bf 81 00 00 00 00 00 00	r1 = r8
    4340:	dc 01 00 00 10 00 00 00	r1 = be16 r1
    4341:	6b 1a b8 ff 00 00 00 00	*(u16 *)(r10 - 72) = r1
    4342:	6b 1a 90 ff 00 00 00 00	*(u16 *)(r10 - 112) = r1
    4343:	bf a2 00 00 00 00 00 00	r2 = r10
    4344:	07 02 00 00 98 ff ff ff	r2 += -104
    4345:	18 01 00 00 00 00 00 00 00 00 00 00 00 00 00 00	r1 = 0 ll
    4347:	85 00 00 00 01 00 00 00	call 1
    4348:	55 00 1f 00 00 00 00 00	if r0 != 0 goto +31 <LBB1_490>
    4349:	85 00 00 00 76 00 00 00	call 118
    4350:	77 00 00 00 08 00 00 00	r0 >>= 8
    4351:	7b 0a 60 ff 00 00 00 00	*(u64 *)(r10 - 160) = r0
    4352:	7b 0a c0 ff 00 00 00 00	*(u64 *)(r10 - 64) = r0
    4353:	bf a2 00 00 00 00 00 00	r2 = r10
    4354:	07 02 00 00 98 ff ff ff	r2 += -104
    4355:	bf a3 00 00 00 00 00 00	r3 = r10
    4356:	07 03 00 00 c0 ff ff ff	r3 += -64
    4357:	18 01 00 00 00 00 00 00 00 00 00 00 00 00 00 00	r1 = 0 ll
    4359:	b4 04 00 00 01 00 00 00	w4 = 1
    4360:	85 00 00 00 02 00 00 00	call 2
    4361:	bc 07 00 00 00 00 00 00	w7 = w0
    4362:	56 00 11 00 00 00 00 00	if w0 != 0 goto +17 <LBB1_490>
    4363:	bf a2 00 00 00 00 00 00	r2 = r10
    4364:	07 02 00 00 38 ff ff ff	r2 += -200
    4365:	bf a3 00 00 00 00 00 00	r3 = r10
    4366:	07 03 00 00 60 ff ff ff	r3 += -160
    4367:	18 01 00 00 00 00 00 00 00 00 00 00 00 00 00 00	r1 = 0 ll
    4369:	b4 04 00 00 01 00 00 00	w4 = 1
    4370:	85 00 00 00 02 00 00 00	call 2
    4371:	bc 07 00 00 00 00 00 00	w7 = w0
    4372:	b4 01 00 00 00 00 00 00	w1 = 0
    4373:	63 1a d8 fe 00 00 00 00	*(u32 *)(r10 - 296) = r1
    4374:	16 07 38 0b 00 00 00 00	if w7 == 0 goto +2872 <LBB1_221>
    4375:	bf a2 00 00 00 00 00 00	r2 = r10
    4376:	07 02 00 00 98 ff ff ff	r2 += -104
    4377:	18 01 00 00 00 00 00 00 00 00 00 00 00 00 00 00	r1 = 0 ll
    4379:	85 00 00 00 03 00 00 00	call 3

00000000000088e0 <LBB1_490>:
    4380:	04 08 00 00 01 00 00 00	w8 += 1
    4381:	bc 81 00 00 00 00 00 00	w1 = w8
    4382:	54 01 00 00 ff ff 00 00	w1 &= 65535
    4383:	34 01 00 00 ff 7f 00 00	w1 /= 32767
    4384:	0c 18 00 00 00 00 00 00	w8 += w1
    4385:	44 08 00 00 00 80 ff ff	w8 |= -32768
    4386:	bf 81 00 00 00 00 00 00	r1 = r8
    4387:	dc 01 00 00 10 00 00 00	r1 = be16 r1
    4388:	6b 1a b8 ff 00 00 00 00	*(u16 *)(r10 - 72) = r1
    4389:	6b 1a 90 ff 00 00 00 00	*(u16 *)(r10 - 112) = r1
    4390:	bf a2 00 00 00 00 00 00	r2 = r10
    4391:	07 02 00 00 98 ff ff ff	r2 += -104
    4392:	18 01 00 00 00 00 00 00 00 00 00 00 00 00 00 00	r1 = 0 ll
    4394:	85 00 00 00 01 00 00 00	call 1
    4395:	55 00 1f 00 00 00 00 00	if r0 != 0 goto +31 <LBB1_494>
    4396:	85 00 00 00 76 00 00 00	call 118
    4397:	77 00 00 00 08 00 00 00	r0 >>= 8
    4398:	7b 0a 60 ff 00 00 00 00	*(u64 *)(r10 - 160) = r0
    4399:	7b 0a c0 ff 00 00 00 00	*(u64 *)(r10 - 64) = r0
    4400:	bf a2 00 00 00 00 00 00	r2 = r10
    4401:	07 02 00 00 98 ff ff ff	r2 += -104
    4402:	bf a3 00 00 00 00 00 00	r3 = r10
    4403:	07 03 00 00 c0 ff ff ff	r3 += -64
    4404:	18 01 00 00 00 00 00 00 00 00 00 00 00 00 00 00	r1 = 0 ll
    4406:	b4 04 00 00 01 00 00 00	w4 = 1
    4407:	85 00 00 00 02 00 00 00	call 2
    4408:	bc 07 00 00 00 00 00 00	w7 = w0
    4409:	56 00 11 00 00 00 00 00	if w0 != 0 goto +17 <LBB1_494>
    4410:	bf a2 00 00 00 00 00 00	r2 = r10
    4411:	07 02 00 00 38 ff ff ff	r2 += -200
    4412:	bf a3 00 00 00 00 00 00	r3 = r10
    4413:	07 03 00 00 60 ff ff ff	r3 += -160
    4414:	18 01 00 00 00 00 00 00 00 00 00 00 00 00 00 00	r1 = 0 ll
    4416:	b4 04 00 00 01 00 00 00	w4 = 1
    4417:	85 00 00 00 02 00 00 00	call 2
    4418:	bc 07 00 00 00 00 00 00	w7 = w0
    4419:	b4 01 00 00 00 00 00 00	w1 = 0
    4420:	63 1a d8 fe 00 00 00 00	*(u32 *)(r10 - 296) = r1
    4421:	16 07 09 0b 00 00 00 00	if w7 == 0 goto +2825 <LBB1_221>
    4422:	bf a2 00 00 00 00 00 00	r2 = r10
    4423:	07 02 00 00 98 ff ff ff	r2 += -104
    4424:	18 01 00 00 00 00 00 00 00 00 00 00 00 00 00 00	r1 = 0 ll
    4426:	85 00 00 00 03 00 00 00	call 3

0000000000008a58 <LBB1_494>:
    4427:	04 08 00 00 01 00 00 00	w8 += 1
    4428:	bc 81 00 00 00 00 00 00	w1 = w8
    4429:	54 01 00 00 ff ff 00 00	w1 &= 65535
    4430:	34 01 00 00 ff 7f 00 00	w1 /= 32767
    4431:	0c 18 00 00 00 00 00 00	w8 += w1
    4432:	44 08 00 00 00 80 ff ff	w8 |= -32768
    4433:	bf 81 00 00 00 00 00 00	r1 = r8
    4434:	dc 01 00 00 10 00 00 00	r1 = be16 r1
    4435:	6b 1a b8 ff 00 00 00 00	*(u16 *)(r10 - 72) = r1
    4436:	6b 1a 90 ff 00 00 00 00	*(u16 *)(r10 - 112) = r1
    4437:	bf a2 00 00 00 00 00 00	r2 = r10
    4438:	07 02 00 00 98 ff ff ff	r2 += -104
    4439:	18 01 00 00 00 00 00 00 00 00 00 00 00 00 00 00	r1 = 0 ll
    4441:	85 00 00 00 01 00 00 00	call 1
    4442:	55 00 1f 00 00 00 00 00	if r0 != 0 goto +31 <LBB1_498>
    4443:	85 00 00 00 76 00 00 00	call 118
    4444:	77 00 00 00 08 00 00 00	r0 >>= 8
    4445:	7b 0a 60 ff 00 00 00 00	*(u64 *)(r10 - 160) = r0
    4446:	7b 0a c0 ff 00 00 00 00	*(u64 *)(r10 - 64) = r0
    4447:	bf a2 00 00 00 00 00 00	r2 = r10
    4448:	07 02 00 00 98 ff ff ff	r2 += -104
    4449:	bf a3 00 00 00 00 00 00	r3 = r10
    4450:	07 03 00 00 c0 ff ff ff	r3 += -64
    4451:	18 01 00 00 00 00 00 00 00 00 00 00 00 00 00 00	r1 = 0 ll
    4453:	b4 04 00 00 01 00 00 00	w4 = 1
    4454:	85 00 00 00 02 00 00 00	call 2
    4455:	bc 07 00 00 00 00 00 00	w7 = w0
    4456:	56 00 11 00 00 00 00 00	if w0 != 0 goto +17 <LBB1_498>
    4457:	bf a2 00 00 00 00 00 00	r2 = r10
    4458:	07 02 00 00 38 ff ff ff	r2 += -200
    4459:	bf a3 00 00 00 00 00 00	r3 = r10
    4460:	07 03 00 00 60 ff ff ff	r3 += -160
    4461:	18 01 00 00 00 00 00 00 00 00 00 00 00 00 00 00	r1 = 0 ll
    4463:	b4 04 00 00 01 00 00 00	w4 = 1
    4464:	85 00 00 00 02 00 00 00	call 2
    4465:	bc 07 00 00 00 00 00 00	w7 = w0
    4466:	b4 01 00 00 00 00 00 00	w1 = 0
    4467:	63 1a d8 fe 00 00 00 00	*(u32 *)(r10 - 296) = r1
    4468:	16 07 da 0a 00 00 00 00	if w7 == 0 goto +2778 <LBB1_221>
    4469:	bf a2 00 00 00 00 00 00	r2 = r10
    4470:	07 02 00 00 98 ff ff ff	r2 += -104
    4471:	18 01 00 00 00 00 00 00 00 00 00 00 00 00 00 00	r1 = 0 ll
    4473:	85 00 00 00 03 00 00 00	call 3

0000000000008bd0 <LBB1_498>:
    4474:	04 08 00 00 01 00 00 00	w8 += 1
    4475:	bc 81 00 00 00 00 00 00	w1 = w8
    4476:	54 01 00 00 ff ff 00 00	w1 &= 65535
    4477:	34 01 00 00 ff 7f 00 00	w1 /= 32767
    4478:	0c 18 00 00 00 00 00 00	w8 += w1
    4479:	44 08 00 00 00 80 ff ff	w8 |= -32768
    4480:	bf 81 00 00 00 00 00 00	r1 = r8
    4481:	dc 01 00 00 10 00 00 00	r1 = be16 r1
    4482:	6b 1a b8 ff 00 00 00 00	*(u16 *)(r10 - 72) = r1
    4483:	6b 1a 90 ff 00 00 00 00	*(u16 *)(r10 - 112) = r1
    4484:	bf a2 00 00 00 00 00 00	r2 = r10
    4485:	07 02 00 00 98 ff ff ff	r2 += -104
    4486:	18 01 00 00 00 00 00 00 00 00 00 00 00 00 00 00	r1 = 0 ll
    4488:	85 00 00 00 01 00 00 00	call 1
    4489:	55 00 1f 00 00 00 00 00	if r0 != 0 goto +31 <LBB1_502>
    4490:	85 00 00 00 76 00 00 00	call 118
    4491:	77 00 00 00 08 00 00 00	r0 >>= 8
    4492:	7b 0a 60 ff 00 00 00 00	*(u64 *)(r10 - 160) = r0
    4493:	7b 0a c0 ff 00 00 00 00	*(u64 *)(r10 - 64) = r0
    4494:	bf a2 00 00 00 00 00 00	r2 = r10
    4495:	07 02 00 00 98 ff ff ff	r2 += -104
    4496:	bf a3 00 00 00 00 00 00	r3 = r10
    4497:	07 03 00 00 c0 ff ff ff	r3 += -64
    4498:	18 01 00 00 00 00 00 00 00 00 00 00 00 00 00 00	r1 = 0 ll
    4500:	b4 04 00 00 01 00 00 00	w4 = 1
    4501:	85 00 00 00 02 00 00 00	call 2
    4502:	bc 07 00 00 00 00 00 00	w7 = w0
    4503:	56 00 11 00 00 00 00 00	if w0 != 0 goto +17 <LBB1_502>
    4504:	bf a2 00 00 00 00 00 00	r2 = r10
    4505:	07 02 00 00 38 ff ff ff	r2 += -200
    4506:	bf a3 00 00 00 00 00 00	r3 = r10
    4507:	07 03 00 00 60 ff ff ff	r3 += -160
    4508:	18 01 00 00 00 00 00 00 00 00 00 00 00 00 00 00	r1 = 0 ll
    4510:	b4 04 00 00 01 00 00 00	w4 = 1
    4511:	85 00 00 00 02 00 00 00	call 2
    4512:	bc 07 00 00 00 00 00 00	w7 = w0
    4513:	b4 01 00 00 00 00 00 00	w1 = 0
    4514:	63 1a d8 fe 00 00 00 00	*(u32 *)(r10 - 296) = r1
    4515:	16 07 ab 0a 00 00 00 00	if w7 == 0 goto +2731 <LBB1_221>
    4516:	bf a2 00 00 00 00 00 00	r2 = r10
    4517:	07 02 00 00 98 ff ff ff	r2 += -104
    4518:	18 01 00 00 00 00 00 00 00 00 00 00 00 00 00 00	r1 = 0 ll
    4520:	85 00 00 00 03 00 00 00	call 3

0000000000008d48 <LBB1_502>:
    4521:	04 08 00 00 01 00 00 00	w8 += 1
    4522:	bc 81 00 00 00 00 00 00	w1 = w8
    4523:	54 01 00 00 ff ff 00 00	w1 &= 65535
    4524:	34 01 00 00 ff 7f 00 00	w1 /= 32767
    4525:	0c 18 00 00 00 00 00 00	w8 += w1
    4526:	44 08 00 00 00 80 ff ff	w8 |= -32768
    4527:	bf 81 00 00 00 00 00 00	r1 = r8
    4528:	dc 01 00 00 10 00 00 00	r1 = be16 r1
    4529:	6b 1a b8 ff 00 00 00 00	*(u16 *)(r10 - 72) = r1
    4530:	6b 1a 90 ff 00 00 00 00	*(u16 *)(r10 - 112) = r1
    4531:	bf a2 00 00 00 00 00 00	r2 = r10
    4532:	07 02 00 00 98 ff ff ff	r2 += -104
    4533:	18 01 00 00 00 00 00 00 00 00 00 00 00 00 00 00	r1 = 0 ll
    4535:	85 00 00 00 01 00 00 00	call 1
    4536:	55 00 1f 00 00 00 00 00	if r0 != 0 goto +31 <LBB1_506>
    4537:	85 00 00 00 76 00 00 00	call 118
    4538:	77 00 00 00 08 00 00 00	r0 >>= 8
    4539:	7b 0a 60 ff 00 00 00 00	*(u64 *)(r10 - 160) = r0
    4540:	7b 0a c0 ff 00 00 00 00	*(u64 *)(r10 - 64) = r0
    4541:	bf a2 00 00 00 00 00 00	r2 = r10
    4542:	07 02 00 00 98 ff ff ff	r2 += -104
    4543:	bf a3 00 00 00 00 00 00	r3 = r10
    4544:	07 03 00 00 c0 ff ff ff	r3 += -64
    4545:	18 01 00 00 00 00 00 00 00 00 00 00 00 00 00 00	r1 = 0 ll
    4547:	b4 04 00 00 01 00 00 00	w4 = 1
    4548:	85 00 00 00 02 00 00 00	call 2
    4549:	bc 07 00 00 00 00 00 00	w7 = w0
    4550:	56 00 11 00 00 00 00 00	if w0 != 0 goto +17 <LBB1_506>
    4551:	bf a2 00 00 00 00 00 00	r2 = r10
    4552:	07 02 00 00 38 ff ff ff	r2 += -200
    4553:	bf a3 00 00 00 00 00 00	r3 = r10
    4554:	07 03 00 00 60 ff ff ff	r3 += -160
    4555:	18 01 00 00 00 00 00 00 00 00 00 00 00 00 00 00	r1 = 0 ll
    4557:	b4 04 00 00 01 00 00 00	w4 = 1
    4558:	85 00 00 00 02 00 00 00	call 2
    4559:	bc 07 00 00 00 00 00 00	w7 = w0
    4560:	b4 01 00 00 00 00 00 00	w1 = 0
    4561:	63 1a d8 fe 00 00 00 00	*(u32 *)(r10 - 296) = r1
    4562:	16 07 7c 0a 00 00 00 00	if w7 == 0 goto +2684 <LBB1_221>
    4563:	bf a2 00 00 00 00 00 00	r2 = r10
    4564:	07 02 00 00 98 ff ff ff	r2 += -104
    4565:	18 01 00 00 00 00 00 00 00 00 00 00 00 00 00 00	r1 = 0 ll
    4567:	85 00 00 00 03 00 00 00	call 3

0000000000008ec0 <LBB1_506>:
    4568:	04 08 00 00 01 00 00 00	w8 += 1
    4569:	bc 81 00 00 00 00 00 00	w1 = w8
    4570:	54 01 00 00 ff ff 00 00	w1 &= 65535
    4571:	34 01 00 00 ff 7f 00 00	w1 /= 32767
    4572:	0c 18 00 00 00 00 00 00	w8 += w1
    4573:	44 08 00 00 00 80 ff ff	w8 |= -32768
    4574:	bf 81 00 00 00 00 00 00	r1 = r8
    4575:	dc 01 00 00 10 00 00 00	r1 = be16 r1
    4576:	6b 1a b8 ff 00 00 00 00	*(u16 *)(r10 - 72) = r1
    4577:	6b 1a 90 ff 00 00 00 00	*(u16 *)(r10 - 112) = r1
    4578:	bf a2 00 00 00 00 00 00	r2 = r10
    4579:	07 02 00 00 98 ff ff ff	r2 += -104
    4580:	18 01 00 00 00 00 00 00 00 00 00 00 00 00 00 00	r1 = 0 ll
    4582:	85 00 00 00 01 00 00 00	call 1
    4583:	55 00 1f 00 00 00 00 00	if r0 != 0 goto +31 <LBB1_510>
    4584:	85 00 00 00 76 00 00 00	call 118
    4585:	77 00 00 00 08 00 00 00	r0 >>= 8
    4586:	7b 0a 60 ff 00 00 00 00	*(u64 *)(r10 - 160) = r0
    4587:	7b 0a c0 ff 00 00 00 00	*(u64 *)(r10 - 64) = r0
    4588:	bf a2 00 00 00 00 00 00	r2 = r10
    4589:	07 02 00 00 98 ff ff ff	r2 += -104
    4590:	bf a3 00 00 00 00 00 00	r3 = r10
    4591:	07 03 00 00 c0 ff ff ff	r3 += -64
    4592:	18 01 00 00 00 00 00 00 00 00 00 00 00 00 00 00	r1 = 0 ll
    4594:	b4 04 00 00 01 00 00 00	w4 = 1
    4595:	85 00 00 00 02 00 00 00	call 2
    4596:	bc 07 00 00 00 00 00 00	w7 = w0
    4597:	56 00 11 00 00 00 00 00	if w0 != 0 goto +17 <LBB1_510>
    4598:	bf a2 00 00 00 00 00 00	r2 = r10
    4599:	07 02 00 00 38 ff ff ff	r2 += -200
    4600:	bf a3 00 00 00 00 00 00	r3 = r10
    4601:	07 03 00 00 60 ff ff ff	r3 += -160
    4602:	18 01 00 00 00 00 00 00 00 00 00 00 00 00 00 00	r1 = 0 ll
    4604:	b4 04 00 00 01 00 00 00	w4 = 1
    4605:	85 00 00 00 02 00 00 00	call 2
    4606:	bc 07 00 00 00 00 00 00	w7 = w0
    4607:	b4 01 00 00 00 00 00 00	w1 = 0
    4608:	63 1a d8 fe 00 00 00 00	*(u32 *)(r10 - 296) = r1
    4609:	16 07 4d 0a 00 00 00 00	if w7 == 0 goto +2637 <LBB1_221>
    4610:	bf a2 00 00 00 00 00 00	r2 = r10
    4611:	07 02 00 00 98 ff ff ff	r2 += -104
    4612:	18 01 00 00 00 00 00 00 00 00 00 00 00 00 00 00	r1 = 0 ll
    4614:	85 00 00 00 03 00 00 00	call 3

0000000000009038 <LBB1_510>:
    4615:	04 08 00 00 01 00 00 00	w8 += 1
    4616:	bc 81 00 00 00 00 00 00	w1 = w8
    4617:	54 01 00 00 ff ff 00 00	w1 &= 65535
    4618:	34 01 00 00 ff 7f 00 00	w1 /= 32767
    4619:	0c 18 00 00 00 00 00 00	w8 += w1
    4620:	44 08 00 00 00 80 ff ff	w8 |= -32768
    4621:	bf 81 00 00 00 00 00 00	r1 = r8
    4622:	dc 01 00 00 10 00 00 00	r1 = be16 r1
    4623:	6b 1a b8 ff 00 00 00 00	*(u16 *)(r10 - 72) = r1
    4624:	6b 1a 90 ff 00 00 00 00	*(u16 *)(r10 - 112) = r1
    4625:	bf a2 00 00 00 00 00 00	r2 = r10
    4626:	07 02 00 00 98 ff ff ff	r2 += -104
    4627:	18 01 00 00 00 00 00 00 00 00 00 00 00 00 00 00	r1 = 0 ll
    4629:	85 00 00 00 01 00 00 00	call 1
    4630:	55 00 1f 00 00 00 00 00	if r0 != 0 goto +31 <LBB1_514>
    4631:	85 00 00 00 76 00 00 00	call 118
    4632:	77 00 00 00 08 00 00 00	r0 >>= 8
    4633:	7b 0a 60 ff 00 00 00 00	*(u64 *)(r10 - 160) = r0
    4634:	7b 0a c0 ff 00 00 00 00	*(u64 *)(r10 - 64) = r0
    4635:	bf a2 00 00 00 00 00 00	r2 = r10
    4636:	07 02 00 00 98 ff ff ff	r2 += -104
    4637:	bf a3 00 00 00 00 00 00	r3 = r10
    4638:	07 03 00 00 c0 ff ff ff	r3 += -64
    4639:	18 01 00 00 00 00 00 00 00 00 00 00 00 00 00 00	r1 = 0 ll
    4641:	b4 04 00 00 01 00 00 00	w4 = 1
    4642:	85 00 00 00 02 00 00 00	call 2
    4643:	bc 07 00 00 00 00 00 00	w7 = w0
    4644:	56 00 11 00 00 00 00 00	if w0 != 0 goto +17 <LBB1_514>
    4645:	bf a2 00 00 00 00 00 00	r2 = r10
    4646:	07 02 00 00 38 ff ff ff	r2 += -200
    4647:	bf a3 00 00 00 00 00 00	r3 = r10
    4648:	07 03 00 00 60 ff ff ff	r3 += -160
    4649:	18 01 00 00 00 00 00 00 00 00 00 00 00 00 00 00	r1 = 0 ll
    4651:	b4 04 00 00 01 00 00 00	w4 = 1
    4652:	85 00 00 00 02 00 00 00	call 2
    4653:	bc 07 00 00 00 00 00 00	w7 = w0
    4654:	b4 01 00 00 00 00 00 00	w1 = 0
    4655:	63 1a d8 fe 00 00 00 00	*(u32 *)(r10 - 296) = r1
    4656:	16 07 1e 0a 00 00 00 00	if w7 == 0 goto +2590 <LBB1_221>
    4657:	bf a2 00 00 00 00 00 00	r2 = r10
    4658:	07 02 00 00 98 ff ff ff	r2 += -104
    4659:	18 01 00 00 00 00 00 00 00 00 00 00 00 00 00 00	r1 = 0 ll
    4661:	85 00 00 00 03 00 00 00	call 3

00000000000091b0 <LBB1_514>:
    4662:	04 08 00 00 01 00 00 00	w8 += 1
    4663:	bc 81 00 00 00 00 00 00	w1 = w8
    4664:	54 01 00 00 ff ff 00 00	w1 &= 65535
    4665:	34 01 00 00 ff 7f 00 00	w1 /= 32767
    4666:	0c 18 00 00 00 00 00 00	w8 += w1
    4667:	44 08 00 00 00 80 ff ff	w8 |= -32768
    4668:	bf 81 00 00 00 00 00 00	r1 = r8
    4669:	dc 01 00 00 10 00 00 00	r1 = be16 r1
    4670:	6b 1a b8 ff 00 00 00 00	*(u16 *)(r10 - 72) = r1
    4671:	6b 1a 90 ff 00 00 00 00	*(u16 *)(r10 - 112) = r1
    4672:	bf a2 00 00 00 00 00 00	r2 = r10
    4673:	07 02 00 00 98 ff ff ff	r2 += -104
    4674:	18 01 00 00 00 00 00 00 00 00 00 00 00 00 00 00	r1 = 0 ll
    4676:	85 00 00 00 01 00 00 00	call 1
    4677:	55 00 1f 00 00 00 00 00	if r0 != 0 goto +31 <LBB1_518>
    4678:	85 00 00 00 76 00 00 00	call 118
    4679:	77 00 00 00 08 00 00 00	r0 >>= 8
    4680:	7b 0a 60 ff 00 00 00 00	*(u64 *)(r10 - 160) = r0
    4681:	7b 0a c0 ff 00 00 00 00	*(u64 *)(r10 - 64) = r0
    4682:	bf a2 00 00 00 00 00 00	r2 = r10
    4683:	07 02 00 00 98 ff ff ff	r2 += -104
    4684:	bf a3 00 00 00 00 00 00	r3 = r10
    4685:	07 03 00 00 c0 ff ff ff	r3 += -64
    4686:	18 01 00 00 00 00 00 00 00 00 00 00 00 00 00 00	r1 = 0 ll
    4688:	b4 04 00 00 01 00 00 00	w4 = 1
    4689:	85 00 00 00 02 00 00 00	call 2
    4690:	bc 07 00 00 00 00 00 00	w7 = w0
    4691:	56 00 11 00 00 00 00 00	if w0 != 0 goto +17 <LBB1_518>
    4692:	bf a2 00 00 00 00 00 00	r2 = r10
    4693:	07 02 00 00 38 ff ff ff	r2 += -200
    4694:	bf a3 00 00 00 00 00 00	r3 = r10
    4695:	07 03 00 00 60 ff ff ff	r3 += -160
    4696:	18 01 00 00 00 00 00 00 00 00 00 00 00 00 00 00	r1 = 0 ll
    4698:	b4 04 00 00 01 00 00 00	w4 = 1
    4699:	85 00 00 00 02 00 00 00	call 2
    4700:	bc 07 00 00 00 00 00 00	w7 = w0
    4701:	b4 01 00 00 00 00 00 00	w1 = 0
    4702:	63 1a d8 fe 00 00 00 00	*(u32 *)(r10 - 296) = r1
    4703:	16 07 ef 09 00 00 00 00	if w7 == 0 goto +2543 <LBB1_221>
    4704:	bf a2 00 00 00 00 00 00	r2 = r10
    4705:	07 02 00 00 98 ff ff ff	r2 += -104
    4706:	18 01 00 00 00 00 00 00 00 00 00 00 00 00 00 00	r1 = 0 ll
    4708:	85 00 00 00 03 00 00 00	call 3

0000000000009328 <LBB1_518>:
    4709:	04 08 00 00 01 00 00 00	w8 += 1
    4710:	bc 81 00 00 00 00 00 00	w1 = w8
    4711:	54 01 00 00 ff ff 00 00	w1 &= 65535
    4712:	34 01 00 00 ff 7f 00 00	w1 /= 32767
    4713:	0c 18 00 00 00 00 00 00	w8 += w1
    4714:	44 08 00 00 00 80 ff ff	w8 |= -32768
    4715:	bf 81 00 00 00 00 00 00	r1 = r8
    4716:	dc 01 00 00 10 00 00 00	r1 = be16 r1
    4717:	6b 1a b8 ff 00 00 00 00	*(u16 *)(r10 - 72) = r1
    4718:	6b 1a 90 ff 00 00 00 00	*(u16 *)(r10 - 112) = r1
    4719:	bf a2 00 00 00 00 00 00	r2 = r10
    4720:	07 02 00 00 98 ff ff ff	r2 += -104
    4721:	18 01 00 00 00 00 00 00 00 00 00 00 00 00 00 00	r1 = 0 ll
    4723:	85 00 00 00 01 00 00 00	call 1
    4724:	55 00 1f 00 00 00 00 00	if r0 != 0 goto +31 <LBB1_522>
    4725:	85 00 00 00 76 00 00 00	call 118
    4726:	77 00 00 00 08 00 00 00	r0 >>= 8
    4727:	7b 0a 60 ff 00 00 00 00	*(u64 *)(r10 - 160) = r0
    4728:	7b 0a c0 ff 00 00 00 00	*(u64 *)(r10 - 64) = r0
    4729:	bf a2 00 00 00 00 00 00	r2 = r10
    4730:	07 02 00 00 98 ff ff ff	r2 += -104
    4731:	bf a3 00 00 00 00 00 00	r3 = r10
    4732:	07 03 00 00 c0 ff ff ff	r3 += -64
    4733:	18 01 00 00 00 00 00 00 00 00 00 00 00 00 00 00	r1 = 0 ll
    4735:	b4 04 00 00 01 00 00 00	w4 = 1
    4736:	85 00 00 00 02 00 00 00	call 2
    4737:	bc 07 00 00 00 00 00 00	w7 = w0
    4738:	56 00 11 00 00 00 00 00	if w0 != 0 goto +17 <LBB1_522>
    4739:	bf a2 00 00 00 00 00 00	r2 = r10
    4740:	07 02 00 00 38 ff ff ff	r2 += -200
    4741:	bf a3 00 00 00 00 00 00	r3 = r10
    4742:	07 03 00 00 60 ff ff ff	r3 += -160
    4743:	18 01 00 00 00 00 00 00 00 00 00 00 00 00 00 00	r1 = 0 ll
    4745:	b4 04 00 00 01 00 00 00	w4 = 1
    4746:	85 00 00 00 02 00 00 00	call 2
    4747:	bc 07 00 00 00 00 00 00	w7 = w0
    4748:	b4 01 00 00 00 00 00 00	w1 = 0
    4749:	63 1a d8 fe 00 00 00 00	*(u32 *)(r10 - 296) = r1
    4750:	16 07 c0 09 00 00 00 00	if w7 == 0 goto +2496 <LBB1_221>
    4751:	bf a2 00 00 00 00 00 00	r2 = r10
    4752:	07 02 00 00 98 ff ff ff	r2 += -104
    4753:	18 01 00 00 00 00 00 00 00 00 00 00 00 00 00 00	r1 = 0 ll
    4755:	85 00 00 00 03 00 00 00	call 3

00000000000094a0 <LBB1_522>:
    4756:	04 08 00 00 01 00 00 00	w8 += 1
    4757:	bc 81 00 00 00 00 00 00	w1 = w8
    4758:	54 01 00 00 ff ff 00 00	w1 &= 65535
    4759:	34 01 00 00 ff 7f 00 00	w1 /= 32767
    4760:	0c 18 00 00 00 00 00 00	w8 += w1
    4761:	44 08 00 00 00 80 ff ff	w8 |= -32768
    4762:	bf 81 00 00 00 00 00 00	r1 = r8
    4763:	dc 01 00 00 10 00 00 00	r1 = be16 r1
    4764:	6b 1a b8 ff 00 00 00 00	*(u16 *)(r10 - 72) = r1
    4765:	6b 1a 90 ff 00 00 00 00	*(u16 *)(r10 - 112) = r1
    4766:	bf a2 00 00 00 00 00 00	r2 = r10
    4767:	07 02 00 00 98 ff ff ff	r2 += -104
    4768:	18 01 00 00 00 00 00 00 00 00 00 00 00 00 00 00	r1 = 0 ll
    4770:	85 00 00 00 01 00 00 00	call 1
    4771:	55 00 1f 00 00 00 00 00	if r0 != 0 goto +31 <LBB1_526>
    4772:	85 00 00 00 76 00 00 00	call 118
    4773:	77 00 00 00 08 00 00 00	r0 >>= 8
    4774:	7b 0a 60 ff 00 00 00 00	*(u64 *)(r10 - 160) = r0
    4775:	7b 0a c0 ff 00 00 00 00	*(u64 *)(r10 - 64) = r0
    4776:	bf a2 00 00 00 00 00 00	r2 = r10
    4777:	07 02 00 00 98 ff ff ff	r2 += -104
    4778:	bf a3 00 00 00 00 00 00	r3 = r10
    4779:	07 03 00 00 c0 ff ff ff	r3 += -64
    4780:	18 01 00 00 00 00 00 00 00 00 00 00 00 00 00 00	r1 = 0 ll
    4782:	b4 04 00 00 01 00 00 00	w4 = 1
    4783:	85 00 00 00 02 00 00 00	call 2
    4784:	bc 07 00 00 00 00 00 00	w7 = w0
    4785:	56 00 11 00 00 00 00 00	if w0 != 0 goto +17 <LBB1_526>
    4786:	bf a2 00 00 00 00 00 00	r2 = r10
    4787:	07 02 00 00 38 ff ff ff	r2 += -200
    4788:	bf a3 00 00 00 00 00 00	r3 = r10
    4789:	07 03 00 00 60 ff ff ff	r3 += -160
    4790:	18 01 00 00 00 00 00 00 00 00 00 00 00 00 00 00	r1 = 0 ll
    4792:	b4 04 00 00 01 00 00 00	w4 = 1
    4793:	85 00 00 00 02 00 00 00	call 2
    4794:	bc 07 00 00 00 00 00 00	w7 = w0
    4795:	b4 01 00 00 00 00 00 00	w1 = 0
    4796:	63 1a d8 fe 00 00 00 00	*(u32 *)(r10 - 296) = r1
    4797:	16 07 91 09 00 00 00 00	if w7 == 0 goto +2449 <LBB1_221>
    4798:	bf a2 00 00 00 00 00 00	r2 = r10
    4799:	07 02 00 00 98 ff ff ff	r2 += -104
    4800:	18 01 00 00 00 00 00 00 00 00 00 00 00 00 00 00	r1 = 0 ll
    4802:	85 00 00 00 03 00 00 00	call 3

0000000000009618 <LBB1_526>:
    4803:	04 08 00 00 01 00 00 00	w8 += 1
    4804:	bc 81 00 00 00 00 00 00	w1 = w8
    4805:	54 01 00 00 ff ff 00 00	w1 &= 65535
    4806:	34 01 00 00 ff 7f 00 00	w1 /= 32767
    4807:	0c 18 00 00 00 00 00 00	w8 += w1
    4808:	44 08 00 00 00 80 ff ff	w8 |= -32768
    4809:	bf 81 00 00 00 00 00 00	r1 = r8
    4810:	dc 01 00 00 10 00 00 00	r1 = be16 r1
    4811:	6b 1a b8 ff 00 00 00 00	*(u16 *)(r10 - 72) = r1
    4812:	6b 1a 90 ff 00 00 00 00	*(u16 *)(r10 - 112) = r1
    4813:	bf a2 00 00 00 00 00 00	r2 = r10
    4814:	07 02 00 00 98 ff ff ff	r2 += -104
    4815:	18 01 00 00 00 00 00 00 00 00 00 00 00 00 00 00	r1 = 0 ll
    4817:	85 00 00 00 01 00 00 00	call 1
    4818:	55 00 1f 00 00 00 00 00	if r0 != 0 goto +31 <LBB1_530>
    4819:	85 00 00 00 76 00 00 00	call 118
    4820:	77 00 00 00 08 00 00 00	r0 >>= 8
    4821:	7b 0a 60 ff 00 00 00 00	*(u64 *)(r10 - 160) = r0
    4822:	7b 0a c0 ff 00 00 00 00	*(u64 *)(r10 - 64) = r0
    4823:	bf a2 00 00 00 00 00 00	r2 = r10
    4824:	07 02 00 00 98 ff ff ff	r2 += -104
    4825:	bf a3 00 00 00 00 00 00	r3 = r10
    4826:	07 03 00 00 c0 ff ff ff	r3 += -64
    4827:	18 01 00 00 00 00 00 00 00 00 00 00 00 00 00 00	r1 = 0 ll
    4829:	b4 04 00 00 01 00 00 00	w4 = 1
    4830:	85 00 00 00 02 00 00 00	call 2
    4831:	bc 07 00 00 00 00 00 00	w7 = w0
    4832:	56 00 11 00 00 00 00 00	if w0 != 0 goto +17 <LBB1_530>
    4833:	bf a2 00 00 00 00 00 00	r2 = r10
    4834:	07 02 00 00 38 ff ff ff	r2 += -200
    4835:	bf a3 00 00 00 00 00 00	r3 = r10
    4836:	07 03 00 00 60 ff ff ff	r3 += -160
    4837:	18 01 00 00 00 00 00 00 00 00 00 00 00 00 00 00	r1 = 0 ll
    4839:	b4 04 00 00 01 00 00 00	w4 = 1
    4840:	85 00 00 00 02 00 00 00	call 2
    4841:	bc 07 00 00 00 00 00 00	w7 = w0
    4842:	b4 01 00 00 00 00 00 00	w1 = 0
    4843:	63 1a d8 fe 00 00 00 00	*(u32 *)(r10 - 296) = r1
    4844:	16 07 62 09 00 00 00 00	if w7 == 0 goto +2402 <LBB1_221>
    4845:	bf a2 00 00 00 00 00 00	r2 = r10
    4846:	07 02 00 00 98 ff ff ff	r2 += -104
    4847:	18 01 00 00 00 00 00 00 00 00 00 00 00 00 00 00	r1 = 0 ll
    4849:	85 00 00 00 03 00 00 00	call 3

0000000000009790 <LBB1_530>:
    4850:	04 08 00 00 01 00 00 00	w8 += 1
    4851:	bc 81 00 00 00 00 00 00	w1 = w8
    4852:	54 01 00 00 ff ff 00 00	w1 &= 65535
    4853:	34 01 00 00 ff 7f 00 00	w1 /= 32767
    4854:	0c 18 00 00 00 00 00 00	w8 += w1
    4855:	44 08 00 00 00 80 ff ff	w8 |= -32768
    4856:	bf 81 00 00 00 00 00 00	r1 = r8
    4857:	dc 01 00 00 10 00 00 00	r1 = be16 r1
    4858:	6b 1a b8 ff 00 00 00 00	*(u16 *)(r10 - 72) = r1
    4859:	6b 1a 90 ff 00 00 00 00	*(u16 *)(r10 - 112) = r1
    4860:	bf a2 00 00 00 00 00 00	r2 = r10
    4861:	07 02 00 00 98 ff ff ff	r2 += -104
    4862:	18 01 00 00 00 00 00 00 00 00 00 00 00 00 00 00	r1 = 0 ll
    4864:	85 00 00 00 01 00 00 00	call 1
    4865:	55 00 1f 00 00 00 00 00	if r0 != 0 goto +31 <LBB1_534>
    4866:	85 00 00 00 76 00 00 00	call 118
    4867:	77 00 00 00 08 00 00 00	r0 >>= 8
    4868:	7b 0a 60 ff 00 00 00 00	*(u64 *)(r10 - 160) = r0
    4869:	7b 0a c0 ff 00 00 00 00	*(u64 *)(r10 - 64) = r0
    4870:	bf a2 00 00 00 00 00 00	r2 = r10
    4871:	07 02 00 00 98 ff ff ff	r2 += -104
    4872:	bf a3 00 00 00 00 00 00	r3 = r10
    4873:	07 03 00 00 c0 ff ff ff	r3 += -64
    4874:	18 01 00 00 00 00 00 00 00 00 00 00 00 00 00 00	r1 = 0 ll
    4876:	b4 04 00 00 01 00 00 00	w4 = 1
    4877:	85 00 00 00 02 00 00 00	call 2
    4878:	bc 07 00 00 00 00 00 00	w7 = w0
    4879:	56 00 11 00 00 00 00 00	if w0 != 0 goto +17 <LBB1_534>
    4880:	bf a2 00 00 00 00 00 00	r2 = r10
    4881:	07 02 00 00 38 ff ff ff	r2 += -200
    4882:	bf a3 00 00 00 00 00 00	r3 = r10
    4883:	07 03 00 00 60 ff ff ff	r3 += -160
    4884:	18 01 00 00 00 00 00 00 00 00 00 00 00 00 00 00	r1 = 0 ll
    4886:	b4 04 00 00 01 00 00 00	w4 = 1
    4887:	85 00 00 00 02 00 00 00	call 2
    4888:	bc 07 00 00 00 00 00 00	w7 = w0
    4889:	b4 01 00 00 00 00 00 00	w1 = 0
    4890:	63 1a d8 fe 00 00 00 00	*(u32 *)(r10 - 296) = r1
    4891:	16 07 33 09 00 00 00 00	if w7 == 0 goto +2355 <LBB1_221>
    4892:	bf a2 00 00 00 00 00 00	r2 = r10
    4893:	07 02 00 00 98 ff ff ff	r2 += -104
    4894:	18 01 00 00 00 00 00 00 00 00 00 00 00 00 00 00	r1 = 0 ll
    4896:	85 00 00 00 03 00 00 00	call 3

0000000000009908 <LBB1_534>:
    4897:	04 08 00 00 01 00 00 00	w8 += 1
    4898:	bc 81 00 00 00 00 00 00	w1 = w8
    4899:	54 01 00 00 ff ff 00 00	w1 &= 65535
    4900:	34 01 00 00 ff 7f 00 00	w1 /= 32767
    4901:	0c 18 00 00 00 00 00 00	w8 += w1
    4902:	44 08 00 00 00 80 ff ff	w8 |= -32768
    4903:	bf 81 00 00 00 00 00 00	r1 = r8
    4904:	dc 01 00 00 10 00 00 00	r1 = be16 r1
    4905:	6b 1a b8 ff 00 00 00 00	*(u16 *)(r10 - 72) = r1
    4906:	6b 1a 90 ff 00 00 00 00	*(u16 *)(r10 - 112) = r1
    4907:	bf a2 00 00 00 00 00 00	r2 = r10
    4908:	07 02 00 00 98 ff ff ff	r2 += -104
    4909:	18 01 00 00 00 00 00 00 00 00 00 00 00 00 00 00	r1 = 0 ll
    4911:	85 00 00 00 01 00 00 00	call 1
    4912:	55 00 1f 00 00 00 00 00	if r0 != 0 goto +31 <LBB1_538>
    4913:	85 00 00 00 76 00 00 00	call 118
    4914:	77 00 00 00 08 00 00 00	r0 >>= 8
    4915:	7b 0a 60 ff 00 00 00 00	*(u64 *)(r10 - 160) = r0
    4916:	7b 0a c0 ff 00 00 00 00	*(u64 *)(r10 - 64) = r0
    4917:	bf a2 00 00 00 00 00 00	r2 = r10
    4918:	07 02 00 00 98 ff ff ff	r2 += -104
    4919:	bf a3 00 00 00 00 00 00	r3 = r10
    4920:	07 03 00 00 c0 ff ff ff	r3 += -64
    4921:	18 01 00 00 00 00 00 00 00 00 00 00 00 00 00 00	r1 = 0 ll
    4923:	b4 04 00 00 01 00 00 00	w4 = 1
    4924:	85 00 00 00 02 00 00 00	call 2
    4925:	bc 07 00 00 00 00 00 00	w7 = w0
    4926:	56 00 11 00 00 00 00 00	if w0 != 0 goto +17 <LBB1_538>
    4927:	bf a2 00 00 00 00 00 00	r2 = r10
    4928:	07 02 00 00 38 ff ff ff	r2 += -200
    4929:	bf a3 00 00 00 00 00 00	r3 = r10
    4930:	07 03 00 00 60 ff ff ff	r3 += -160
    4931:	18 01 00 00 00 00 00 00 00 00 00 00 00 00 00 00	r1 = 0 ll
    4933:	b4 04 00 00 01 00 00 00	w4 = 1
    4934:	85 00 00 00 02 00 00 00	call 2
    4935:	bc 07 00 00 00 00 00 00	w7 = w0
    4936:	b4 01 00 00 00 00 00 00	w1 = 0
    4937:	63 1a d8 fe 00 00 00 00	*(u32 *)(r10 - 296) = r1
    4938:	16 07 04 09 00 00 00 00	if w7 == 0 goto +2308 <LBB1_221>
    4939:	bf a2 00 00 00 00 00 00	r2 = r10
    4940:	07 02 00 00 98 ff ff ff	r2 += -104
    4941:	18 01 00 00 00 00 00 00 00 00 00 00 00 00 00 00	r1 = 0 ll
    4943:	85 00 00 00 03 00 00 00	call 3

0000000000009a80 <LBB1_538>:
    4944:	04 08 00 00 01 00 00 00	w8 += 1
    4945:	bc 81 00 00 00 00 00 00	w1 = w8
    4946:	54 01 00 00 ff ff 00 00	w1 &= 65535
    4947:	34 01 00 00 ff 7f 00 00	w1 /= 32767
    4948:	0c 18 00 00 00 00 00 00	w8 += w1
    4949:	44 08 00 00 00 80 ff ff	w8 |= -32768
    4950:	bf 81 00 00 00 00 00 00	r1 = r8
    4951:	dc 01 00 00 10 00 00 00	r1 = be16 r1
    4952:	6b 1a b8 ff 00 00 00 00	*(u16 *)(r10 - 72) = r1
    4953:	6b 1a 90 ff 00 00 00 00	*(u16 *)(r10 - 112) = r1
    4954:	bf a2 00 00 00 00 00 00	r2 = r10
    4955:	07 02 00 00 98 ff ff ff	r2 += -104
    4956:	18 01 00 00 00 00 00 00 00 00 00 00 00 00 00 00	r1 = 0 ll
    4958:	85 00 00 00 01 00 00 00	call 1
    4959:	55 00 1f 00 00 00 00 00	if r0 != 0 goto +31 <LBB1_542>
    4960:	85 00 00 00 76 00 00 00	call 118
    4961:	77 00 00 00 08 00 00 00	r0 >>= 8
    4962:	7b 0a 60 ff 00 00 00 00	*(u64 *)(r10 - 160) = r0
    4963:	7b 0a c0 ff 00 00 00 00	*(u64 *)(r10 - 64) = r0
    4964:	bf a2 00 00 00 00 00 00	r2 = r10
    4965:	07 02 00 00 98 ff ff ff	r2 += -104
    4966:	bf a3 00 00 00 00 00 00	r3 = r10
    4967:	07 03 00 00 c0 ff ff ff	r3 += -64
    4968:	18 01 00 00 00 00 00 00 00 00 00 00 00 00 00 00	r1 = 0 ll
    4970:	b4 04 00 00 01 00 00 00	w4 = 1
    4971:	85 00 00 00 02 00 00 00	call 2
    4972:	bc 07 00 00 00 00 00 00	w7 = w0
    4973:	56 00 11 00 00 00 00 00	if w0 != 0 goto +17 <LBB1_542>
    4974:	bf a2 00 00 00 00 00 00	r2 = r10
    4975:	07 02 00 00 38 ff ff ff	r2 += -200
    4976:	bf a3 00 00 00 00 00 00	r3 = r10
    4977:	07 03 00 00 60 ff ff ff	r3 += -160
    4978:	18 01 00 00 00 00 00 00 00 00 00 00 00 00 00 00	r1 = 0 ll
    4980:	b4 04 00 00 01 00 00 00	w4 = 1
    4981:	85 00 00 00 02 00 00 00	call 2
    4982:	bc 07 00 00 00 00 00 00	w7 = w0
    4983:	b4 01 00 00 00 00 00 00	w1 = 0
    4984:	63 1a d8 fe 00 00 00 00	*(u32 *)(r10 - 296) = r1
    4985:	16 07 d5 08 00 00 00 00	if w7 == 0 goto +2261 <LBB1_221>
    4986:	bf a2 00 00 00 00 00 00	r2 = r10
    4987:	07 02 00 00 98 ff ff ff	r2 += -104
    4988:	18 01 00 00 00 00 00 00 00 00 00 00 00 00 00 00	r1 = 0 ll
    4990:	85 00 00 00 03 00 00 00	call 3

0000000000009bf8 <LBB1_542>:
    4991:	04 08 00 00 01 00 00 00	w8 += 1
    4992:	bc 81 00 00 00 00 00 00	w1 = w8
    4993:	54 01 00 00 ff ff 00 00	w1 &= 65535
    4994:	34 01 00 00 ff 7f 00 00	w1 /= 32767
    4995:	0c 18 00 00 00 00 00 00	w8 += w1
    4996:	44 08 00 00 00 80 ff ff	w8 |= -32768
    4997:	bf 81 00 00 00 00 00 00	r1 = r8
    4998:	dc 01 00 00 10 00 00 00	r1 = be16 r1
    4999:	6b 1a b8 ff 00 00 00 00	*(u16 *)(r10 - 72) = r1
    5000:	6b 1a 90 ff 00 00 00 00	*(u16 *)(r10 - 112) = r1
    5001:	bf a2 00 00 00 00 00 00	r2 = r10
    5002:	07 02 00 00 98 ff ff ff	r2 += -104
    5003:	18 01 00 00 00 00 00 00 00 00 00 00 00 00 00 00	r1 = 0 ll
    5005:	85 00 00 00 01 00 00 00	call 1
    5006:	55 00 1f 00 00 00 00 00	if r0 != 0 goto +31 <LBB1_546>
    5007:	85 00 00 00 76 00 00 00	call 118
    5008:	77 00 00 00 08 00 00 00	r0 >>= 8
    5009:	7b 0a 60 ff 00 00 00 00	*(u64 *)(r10 - 160) = r0
    5010:	7b 0a c0 ff 00 00 00 00	*(u64 *)(r10 - 64) = r0
    5011:	bf a2 00 00 00 00 00 00	r2 = r10
    5012:	07 02 00 00 98 ff ff ff	r2 += -104
    5013:	bf a3 00 00 00 00 00 00	r3 = r10
    5014:	07 03 00 00 c0 ff ff ff	r3 += -64
    5015:	18 01 00 00 00 00 00 00 00 00 00 00 00 00 00 00	r1 = 0 ll
    5017:	b4 04 00 00 01 00 00 00	w4 = 1
    5018:	85 00 00 00 02 00 00 00	call 2
    5019:	bc 07 00 00 00 00 00 00	w7 = w0
    5020:	56 00 11 00 00 00 00 00	if w0 != 0 goto +17 <LBB1_546>
    5021:	bf a2 00 00 00 00 00 00	r2 = r10
    5022:	07 02 00 00 38 ff ff ff	r2 += -200
    5023:	bf a3 00 00 00 00 00 00	r3 = r10
    5024:	07 03 00 00 60 ff ff ff	r3 += -160
    5025:	18 01 00 00 00 00 00 00 00 00 00 00 00 00 00 00	r1 = 0 ll
    5027:	b4 04 00 00 01 00 00 00	w4 = 1
    5028:	85 00 00 00 02 00 00 00	call 2
    5029:	bc 07 00 00 00 00 00 00	w7 = w0
    5030:	b4 01 00 00 00 00 00 00	w1 = 0
    5031:	63 1a d8 fe 00 00 00 00	*(u32 *)(r10 - 296) = r1
    5032:	16 07 a6 08 00 00 00 00	if w7 == 0 goto +2214 <LBB1_221>
    5033:	bf a2 00 00 00 00 00 00	r2 = r10
    5034:	07 02 00 00 98 ff ff ff	r2 += -104
    5035:	18 01 00 00 00 00 00 00 00 00 00 00 00 00 00 00	r1 = 0 ll
    5037:	85 00 00 00 03 00 00 00	call 3

0000000000009d70 <LBB1_546>:
    5038:	04 08 00 00 01 00 00 00	w8 += 1
    5039:	bc 81 00 00 00 00 00 00	w1 = w8
    5040:	54 01 00 00 ff ff 00 00	w1 &= 65535
    5041:	34 01 00 00 ff 7f 00 00	w1 /= 32767
    5042:	0c 18 00 00 00 00 00 00	w8 += w1
    5043:	44 08 00 00 00 80 ff ff	w8 |= -32768
    5044:	bf 81 00 00 00 00 00 00	r1 = r8
    5045:	dc 01 00 00 10 00 00 00	r1 = be16 r1
    5046:	6b 1a b8 ff 00 00 00 00	*(u16 *)(r10 - 72) = r1
    5047:	6b 1a 90 ff 00 00 00 00	*(u16 *)(r10 - 112) = r1
    5048:	bf a2 00 00 00 00 00 00	r2 = r10
    5049:	07 02 00 00 98 ff ff ff	r2 += -104
    5050:	18 01 00 00 00 00 00 00 00 00 00 00 00 00 00 00	r1 = 0 ll
    5052:	85 00 00 00 01 00 00 00	call 1
    5053:	55 00 1f 00 00 00 00 00	if r0 != 0 goto +31 <LBB1_550>
    5054:	85 00 00 00 76 00 00 00	call 118
    5055:	77 00 00 00 08 00 00 00	r0 >>= 8
    5056:	7b 0a 60 ff 00 00 00 00	*(u64 *)(r10 - 160) = r0
    5057:	7b 0a c0 ff 00 00 00 00	*(u64 *)(r10 - 64) = r0
    5058:	bf a2 00 00 00 00 00 00	r2 = r10
    5059:	07 02 00 00 98 ff ff ff	r2 += -104
    5060:	bf a3 00 00 00 00 00 00	r3 = r10
    5061:	07 03 00 00 c0 ff ff ff	r3 += -64
    5062:	18 01 00 00 00 00 00 00 00 00 00 00 00 00 00 00	r1 = 0 ll
    5064:	b4 04 00 00 01 00 00 00	w4 = 1
    5065:	85 00 00 00 02 00 00 00	call 2
    5066:	bc 07 00 00 00 00 00 00	w7 = w0
    5067:	56 00 11 00 00 00 00 00	if w0 != 0 goto +17 <LBB1_550>
    5068:	bf a2 00 00 00 00 00 00	r2 = r10
    5069:	07 02 00 00 38 ff ff ff	r2 += -200
    5070:	bf a3 00 00 00 00 00 00	r3 = r10
    5071:	07 03 00 00 60 ff ff ff	r3 += -160
    5072:	18 01 00 00 00 00 00 00 00 00 00 00 00 00 00 00	r1 = 0 ll
    5074:	b4 04 00 00 01 00 00 00	w4 = 1
    5075:	85 00 00 00 02 00 00 00	call 2
    5076:	bc 07 00 00 00 00 00 00	w7 = w0
    5077:	b4 01 00 00 00 00 00 00	w1 = 0
    5078:	63 1a d8 fe 00 00 00 00	*(u32 *)(r10 - 296) = r1
    5079:	16 07 77 08 00 00 00 00	if w7 == 0 goto +2167 <LBB1_221>
    5080:	bf a2 00 00 00 00 00 00	r2 = r10
    5081:	07 02 00 00 98 ff ff ff	r2 += -104
    5082:	18 01 00 00 00 00 00 00 00 00 00 00 00 00 00 00	r1 = 0 ll
    5084:	85 00 00 00 03 00 00 00	call 3

0000000000009ee8 <LBB1_550>:
    5085:	04 08 00 00 01 00 00 00	w8 += 1
    5086:	bc 81 00 00 00 00 00 00	w1 = w8
    5087:	54 01 00 00 ff ff 00 00	w1 &= 65535
    5088:	34 01 00 00 ff 7f 00 00	w1 /= 32767
    5089:	0c 18 00 00 00 00 00 00	w8 += w1
    5090:	44 08 00 00 00 80 ff ff	w8 |= -32768
    5091:	bf 81 00 00 00 00 00 00	r1 = r8
    5092:	dc 01 00 00 10 00 00 00	r1 = be16 r1
    5093:	6b 1a b8 ff 00 00 00 00	*(u16 *)(r10 - 72) = r1
    5094:	6b 1a 90 ff 00 00 00 00	*(u16 *)(r10 - 112) = r1
    5095:	bf a2 00 00 00 00 00 00	r2 = r10
    5096:	07 02 00 00 98 ff ff ff	r2 += -104
    5097:	18 01 00 00 00 00 00 00 00 00 00 00 00 00 00 00	r1 = 0 ll
    5099:	85 00 00 00 01 00 00 00	call 1
    5100:	55 00 1f 00 00 00 00 00	if r0 != 0 goto +31 <LBB1_554>
    5101:	85 00 00 00 76 00 00 00	call 118
    5102:	77 00 00 00 08 00 00 00	r0 >>= 8
    5103:	7b 0a 60 ff 00 00 00 00	*(u64 *)(r10 - 160) = r0
    5104:	7b 0a c0 ff 00 00 00 00	*(u64 *)(r10 - 64) = r0
    5105:	bf a2 00 00 00 00 00 00	r2 = r10
    5106:	07 02 00 00 98 ff ff ff	r2 += -104
    5107:	bf a3 00 00 00 00 00 00	r3 = r10
    5108:	07 03 00 00 c0 ff ff ff	r3 += -64
    5109:	18 01 00 00 00 00 00 00 00 00 00 00 00 00 00 00	r1 = 0 ll
    5111:	b4 04 00 00 01 00 00 00	w4 = 1
    5112:	85 00 00 00 02 00 00 00	call 2
    5113:	bc 07 00 00 00 00 00 00	w7 = w0
    5114:	56 07 11 00 00 00 00 00	if w7 != 0 goto +17 <LBB1_554>
    5115:	bf a2 00 00 00 00 00 00	r2 = r10
    5116:	07 02 00 00 38 ff ff ff	r2 += -200
    5117:	bf a3 00 00 00 00 00 00	r3 = r10
    5118:	07 03 00 00 60 ff ff ff	r3 += -160
    5119:	18 01 00 00 00 00 00 00 00 00 00 00 00 00 00 00	r1 = 0 ll
    5121:	b4 04 00 00 01 00 00 00	w4 = 1
    5122:	85 00 00 00 02 00 00 00	call 2
    5123:	bc 07 00 00 00 00 00 00	w7 = w0
    5124:	b4 01 00 00 00 00 00 00	w1 = 0
    5125:	63 1a d8 fe 00 00 00 00	*(u32 *)(r10 - 296) = r1
    5126:	16 07 48 08 00 00 00 00	if w7 == 0 goto +2120 <LBB1_221>
    5127:	bf a2 00 00 00 00 00 00	r2 = r10
    5128:	07 02 00 00 98 ff ff ff	r2 += -104
    5129:	18 01 00 00 00 00 00 00 00 00 00 00 00 00 00 00	r1 = 0 ll
    5131:	85 00 00 00 03 00 00 00	call 3

000000000000a060 <LBB1_554>:
    5132:	04 08 00 00 01 00 00 00	w8 += 1
    5133:	bc 81 00 00 00 00 00 00	w1 = w8
    5134:	54 01 00 00 ff ff 00 00	w1 &= 65535
    5135:	34 01 00 00 ff 7f 00 00	w1 /= 32767
    5136:	0c 18 00 00 00 00 00 00	w8 += w1
    5137:	44 08 00 00 00 80 ff ff	w8 |= -32768
    5138:	bf 81 00 00 00 00 00 00	r1 = r8
    5139:	dc 01 00 00 10 00 00 00	r1 = be16 r1
    5140:	6b 1a b8 ff 00 00 00 00	*(u16 *)(r10 - 72) = r1
    5141:	6b 1a 90 ff 00 00 00 00	*(u16 *)(r10 - 112) = r1
    5142:	bf a2 00 00 00 00 00 00	r2 = r10
    5143:	07 02 00 00 98 ff ff ff	r2 += -104
    5144:	18 01 00 00 00 00 00 00 00 00 00 00 00 00 00 00	r1 = 0 ll
    5146:	85 00 00 00 01 00 00 00	call 1
    5147:	55 00 1f 00 00 00 00 00	if r0 != 0 goto +31 <LBB1_558>
    5148:	85 00 00 00 76 00 00 00	call 118
    5149:	77 00 00 00 08 00 00 00	r0 >>= 8
    5150:	7b 0a 60 ff 00 00 00 00	*(u64 *)(r10 - 160) = r0
    5151:	7b 0a c0 ff 00 00 00 00	*(u64 *)(r10 - 64) = r0
    5152:	bf a2 00 00 00 00 00 00	r2 = r10
    5153:	07 02 00 00 98 ff ff ff	r2 += -104
    5154:	bf a3 00 00 00 00 00 00	r3 = r10
    5155:	07 03 00 00 c0 ff ff ff	r3 += -64
    5156:	18 01 00 00 00 00 00 00 00 00 00 00 00 00 00 00	r1 = 0 ll
    5158:	b4 04 00 00 01 00 00 00	w4 = 1
    5159:	85 00 00 00 02 00 00 00	call 2
    5160:	bc 07 00 00 00 00 00 00	w7 = w0
    5161:	56 07 11 00 00 00 00 00	if w7 != 0 goto +17 <LBB1_558>
    5162:	bf a2 00 00 00 00 00 00	r2 = r10
    5163:	07 02 00 00 38 ff ff ff	r2 += -200
    5164:	bf a3 00 00 00 00 00 00	r3 = r10
    5165:	07 03 00 00 60 ff ff ff	r3 += -160
    5166:	18 01 00 00 00 00 00 00 00 00 00 00 00 00 00 00	r1 = 0 ll
    5168:	b4 04 00 00 01 00 00 00	w4 = 1
    5169:	85 00 00 00 02 00 00 00	call 2
    5170:	bc 07 00 00 00 00 00 00	w7 = w0
    5171:	b4 01 00 00 00 00 00 00	w1 = 0
    5172:	63 1a d8 fe 00 00 00 00	*(u32 *)(r10 - 296) = r1
    5173:	16 07 19 08 00 00 00 00	if w7 == 0 goto +2073 <LBB1_221>
    5174:	bf a2 00 00 00 00 00 00	r2 = r10
    5175:	07 02 00 00 98 ff ff ff	r2 += -104
    5176:	18 01 00 00 00 00 00 00 00 00 00 00 00 00 00 00	r1 = 0 ll
    5178:	85 00 00 00 03 00 00 00	call 3

000000000000a1d8 <LBB1_558>:
    5179:	04 08 00 00 01 00 00 00	w8 += 1
    5180:	bc 81 00 00 00 00 00 00	w1 = w8
    5181:	54 01 00 00 ff ff 00 00	w1 &= 65535
    5182:	34 01 00 00 ff 7f 00 00	w1 /= 32767
    5183:	0c 18 00 00 00 00 00 00	w8 += w1
    5184:	44 08 00 00 00 80 ff ff	w8 |= -32768
    5185:	bf 81 00 00 00 00 00 00	r1 = r8
    5186:	dc 01 00 00 10 00 00 00	r1 = be16 r1
    5187:	6b 1a b8 ff 00 00 00 00	*(u16 *)(r10 - 72) = r1
    5188:	6b 1a 90 ff 00 00 00 00	*(u16 *)(r10 - 112) = r1
    5189:	bf a2 00 00 00 00 00 00	r2 = r10
    5190:	07 02 00 00 98 ff ff ff	r2 += -104
    5191:	18 01 00 00 00 00 00 00 00 00 00 00 00 00 00 00	r1 = 0 ll
    5193:	85 00 00 00 01 00 00 00	call 1
