
./ebpf-samples/all/bpf_lxc.o:	file format elf64-bpf

Disassembly of section 2/1:

0000000000000000 <__send_drop_notify>:
       0:	bf 16 00 00 00 00 00 00	r6 = r1
       1:	61 67 00 00 00 00 00 00	r7 = *(u32 *)(r6 + 0)
       2:	85 00 00 00 22 00 00 00	call 34
       3:	61 61 34 00 00 00 00 00	r1 = *(u32 *)(r6 + 52)
       4:	b7 02 00 00 10 10 00 00	r2 = 4112
       5:	6b 2a e2 ff 00 00 00 00	*(u16 *)(r10 - 30) = r2
       6:	b7 02 00 00 01 00 00 00	r2 = 1
       7:	73 2a e0 ff 00 00 00 00	*(u8 *)(r10 - 32) = r2
       8:	63 0a e4 ff 00 00 00 00	*(u32 *)(r10 - 28) = r0
       9:	bf 12 00 00 00 00 00 00	r2 = r1
      10:	77 02 00 00 10 00 00 00	r2 >>= 16
      11:	63 2a f0 ff 00 00 00 00	*(u32 *)(r10 - 16) = r2
      12:	57 01 00 00 ff ff 00 00	r1 &= 65535
      13:	63 1a f4 ff 00 00 00 00	*(u32 *)(r10 - 12) = r1
      14:	63 7a e8 ff 00 00 00 00	*(u32 *)(r10 - 24) = r7
      15:	a5 07 01 00 80 00 00 00	if r7 < 128 goto +1 <LBB0_2>
      16:	b7 07 00 00 80 00 00 00	r7 = 128

0000000000000088 <LBB0_2>:
      17:	63 7a ec ff 00 00 00 00	*(u32 *)(r10 - 20) = r7
      18:	61 61 3c 00 00 00 00 00	r1 = *(u32 *)(r6 + 60)
      19:	63 1a f8 ff 00 00 00 00	*(u32 *)(r10 - 8) = r1
      20:	61 61 40 00 00 00 00 00	r1 = *(u32 *)(r6 + 64)
      21:	63 1a fc ff 00 00 00 00	*(u32 *)(r10 - 4) = r1
      22:	67 07 00 00 20 00 00 00	r7 <<= 32
      23:	18 01 00 00 ff ff ff ff 00 00 00 00 00 00 00 00	r1 = 4294967295 ll
      25:	4f 17 00 00 00 00 00 00	r7 |= r1
      26:	61 61 38 00 00 00 00 00	r1 = *(u32 *)(r6 + 56)
      27:	bf 12 00 00 00 00 00 00	r2 = r1
      28:	67 02 00 00 20 00 00 00	r2 <<= 32
      29:	c7 02 00 00 3f 00 00 00	r2 s>>= 63
      30:	0f 21 00 00 00 00 00 00	r1 += r2
      31:	af 21 00 00 00 00 00 00	r1 ^= r2
      32:	73 1a e1 ff 00 00 00 00	*(u8 *)(r10 - 31) = r1
      33:	bf a4 00 00 00 00 00 00	r4 = r10
      34:	07 04 00 00 e0 ff ff ff	r4 += -32
      35:	bf 61 00 00 00 00 00 00	r1 = r6
      36:	18 02 00 00 00 00 00 00 00 00 00 00 00 00 00 00	r2 = 0 ll
      38:	bf 73 00 00 00 00 00 00	r3 = r7
      39:	b7 05 00 00 20 00 00 00	r5 = 32
      40:	85 00 00 00 19 00 00 00	call 25
      41:	61 60 30 00 00 00 00 00	r0 = *(u32 *)(r6 + 48)
      42:	95 00 00 00 00 00 00 00	exit

Disassembly of section 2/3:

0000000000000000 <tail_icmp6_send_echo_reply>:
       0:	bf 16 00 00 00 00 00 00	r6 = r1
       1:	61 61 34 00 00 00 00 00	r1 = *(u32 *)(r6 + 52)
       2:	7b 1a 90 ff 00 00 00 00	*(u64 *)(r10 - 112) = r1
       3:	61 67 30 00 00 00 00 00	r7 = *(u32 *)(r6 + 48)
       4:	b7 08 00 00 00 00 00 00	r8 = 0
       5:	7b 8a a0 ff 00 00 00 00	*(u64 *)(r10 - 96) = r8
       6:	bf 61 00 00 00 00 00 00	r1 = r6
       7:	85 00 00 00 22 00 00 00	call 34
       8:	63 0a ec ff 00 00 00 00	*(u32 *)(r10 - 20) = r0
       9:	b7 01 00 00 02 0c 10 10	r1 = 269487106
      10:	63 1a e8 ff 00 00 00 00	*(u32 *)(r10 - 24) = r1
      11:	63 8a f4 ff 00 00 00 00	*(u32 *)(r10 - 12) = r8
      12:	63 8a f8 ff 00 00 00 00	*(u32 *)(r10 - 8) = r8
      13:	63 7a f0 ff 00 00 00 00	*(u32 *)(r10 - 16) = r7
      14:	bf a4 00 00 00 00 00 00	r4 = r10
      15:	07 04 00 00 e8 ff ff ff	r4 += -24
      16:	bf 61 00 00 00 00 00 00	r1 = r6
      17:	18 02 00 00 00 00 00 00 00 00 00 00 00 00 00 00	r2 = 0 ll
      19:	18 03 00 00 ff ff ff ff 00 00 00 00 00 00 00 00	r3 = 4294967295 ll
      21:	b7 05 00 00 14 00 00 00	r5 = 20
      22:	85 00 00 00 19 00 00 00	call 25
      23:	bf 78 00 00 00 00 00 00	r8 = r7
      24:	07 08 00 00 28 00 00 00	r8 += 40
      25:	bf a3 00 00 00 00 00 00	r3 = r10
      26:	07 03 00 00 98 ff ff ff	r3 += -104
      27:	bf 61 00 00 00 00 00 00	r1 = r6
      28:	bf 82 00 00 00 00 00 00	r2 = r8
      29:	b7 04 00 00 08 00 00 00	r4 = 8
      30:	85 00 00 00 1a 00 00 00	call 26
      31:	18 09 00 00 7a ff ff ff 00 00 00 00 00 00 00 00	r9 = 4294967162 ll
      33:	67 00 00 00 20 00 00 00	r0 <<= 32
      34:	c7 00 00 00 20 00 00 00	r0 s>>= 32
      35:	c5 00 c8 00 00 00 00 00	if r0 s< 0 goto +200 <LBB1_15>
      36:	b7 01 00 00 81 00 00 00	r1 = 129
      37:	6b 1a a0 ff 00 00 00 00	*(u16 *)(r10 - 96) = r1
      38:	69 a1 9a ff 00 00 00 00	r1 = *(u16 *)(r10 - 102)
      39:	6b 1a a2 ff 00 00 00 00	*(u16 *)(r10 - 94) = r1
      40:	69 a1 9c ff 00 00 00 00	r1 = *(u16 *)(r10 - 100)
      41:	6b 1a a4 ff 00 00 00 00	*(u16 *)(r10 - 92) = r1
      42:	69 a1 9e ff 00 00 00 00	r1 = *(u16 *)(r10 - 98)
      43:	6b 1a a6 ff 00 00 00 00	*(u16 *)(r10 - 90) = r1
      44:	bf a3 00 00 00 00 00 00	r3 = r10
      45:	07 03 00 00 a0 ff ff ff	r3 += -96
      46:	bf 61 00 00 00 00 00 00	r1 = r6
      47:	bf 82 00 00 00 00 00 00	r2 = r8
      48:	b7 04 00 00 08 00 00 00	r4 = 8
      49:	b7 05 00 00 00 00 00 00	r5 = 0
      50:	85 00 00 00 09 00 00 00	call 9
      51:	18 09 00 00 73 ff ff ff 00 00 00 00 00 00 00 00	r9 = 4294967155 ll
      53:	67 00 00 00 20 00 00 00	r0 <<= 32
      54:	c7 00 00 00 20 00 00 00	r0 s>>= 32
      55:	c5 00 b4 00 00 00 00 00	if r0 s< 0 goto +180 <LBB1_15>
      56:	bf 78 00 00 00 00 00 00	r8 = r7
      57:	07 08 00 00 2a 00 00 00	r8 += 42
      58:	bf a1 00 00 00 00 00 00	r1 = r10
      59:	07 01 00 00 98 ff ff ff	r1 += -104
      60:	bf a3 00 00 00 00 00 00	r3 = r10
      61:	07 03 00 00 a0 ff ff ff	r3 += -96
      62:	b7 02 00 00 08 00 00 00	r2 = 8
      63:	b7 04 00 00 08 00 00 00	r4 = 8
      64:	b7 05 00 00 00 00 00 00	r5 = 0
      65:	85 00 00 00 1c 00 00 00	call 28
      66:	bf 61 00 00 00 00 00 00	r1 = r6
      67:	bf 82 00 00 00 00 00 00	r2 = r8
      68:	b7 03 00 00 00 00 00 00	r3 = 0
      69:	bf 04 00 00 00 00 00 00	r4 = r0
      70:	b7 05 00 00 10 00 00 00	r5 = 16
      71:	85 00 00 00 0b 00 00 00	call 11
      72:	18 09 00 00 66 ff ff ff 00 00 00 00 00 00 00 00	r9 = 4294967142 ll
      74:	67 00 00 00 20 00 00 00	r0 <<= 32
      75:	c7 00 00 00 20 00 00 00	r0 s>>= 32
      76:	c5 00 9f 00 00 00 00 00	if r0 s< 0 goto +159 <LBB1_15>
      77:	7b 8a 88 ff 00 00 00 00	*(u64 *)(r10 - 120) = r8
      78:	18 01 00 00 de ad be ef 00 00 00 00 c0 de 00 00	r1 = 244920237338078 ll
      80:	7b 1a d8 ff 00 00 00 00	*(u64 *)(r10 - 40) = r1
      81:	bf 78 00 00 00 00 00 00	r8 = r7
      82:	07 08 00 00 08 00 00 00	r8 += 8
      83:	bf a3 00 00 00 00 00 00	r3 = r10
      84:	07 03 00 00 c8 ff ff ff	r3 += -56
      85:	bf 61 00 00 00 00 00 00	r1 = r6
      86:	bf 82 00 00 00 00 00 00	r2 = r8
      87:	b7 04 00 00 10 00 00 00	r4 = 16
      88:	85 00 00 00 1a 00 00 00	call 26
      89:	67 00 00 00 20 00 00 00	r0 <<= 32
      90:	c7 00 00 00 20 00 00 00	r0 s>>= 32
      91:	18 09 00 00 7a ff ff ff 00 00 00 00 00 00 00 00	r9 = 4294967162 ll
      93:	c5 00 8e 00 00 00 00 00	if r0 s< 0 goto +142 <LBB1_15>
      94:	07 07 00 00 18 00 00 00	r7 += 24
      95:	bf a3 00 00 00 00 00 00	r3 = r10
      96:	07 03 00 00 b8 ff ff ff	r3 += -72
      97:	bf 61 00 00 00 00 00 00	r1 = r6
      98:	bf 72 00 00 00 00 00 00	r2 = r7
      99:	b7 04 00 00 10 00 00 00	r4 = 16
     100:	85 00 00 00 1a 00 00 00	call 26
     101:	67 00 00 00 20 00 00 00	r0 <<= 32
     102:	c7 00 00 00 20 00 00 00	r0 s>>= 32
     103:	18 09 00 00 7a ff ff ff 00 00 00 00 00 00 00 00	r9 = 4294967162 ll
     105:	c5 00 82 00 00 00 00 00	if r0 s< 0 goto +130 <LBB1_15>
     106:	b7 01 00 00 be ef 00 00	r1 = 61374
     107:	7b 1a a8 ff 00 00 00 00	*(u64 *)(r10 - 88) = r1
     108:	18 01 00 00 00 00 00 01 00 00 00 00 00 01 00 00	r1 = 1099528404992 ll
     110:	7b 1a b0 ff 00 00 00 00	*(u64 *)(r10 - 80) = r1
     111:	bf a3 00 00 00 00 00 00	r3 = r10
     112:	07 03 00 00 a8 ff ff ff	r3 += -88
     113:	bf 61 00 00 00 00 00 00	r1 = r6
     114:	bf 82 00 00 00 00 00 00	r2 = r8
     115:	b7 04 00 00 10 00 00 00	r4 = 16
     116:	b7 05 00 00 00 00 00 00	r5 = 0
     117:	85 00 00 00 09 00 00 00	call 9
     118:	67 00 00 00 20 00 00 00	r0 <<= 32
     119:	c7 00 00 00 20 00 00 00	r0 s>>= 32
     120:	18 09 00 00 73 ff ff ff 00 00 00 00 00 00 00 00	r9 = 4294967155 ll
     122:	c5 00 71 00 00 00 00 00	if r0 s< 0 goto +113 <LBB1_15>
     123:	bf a3 00 00 00 00 00 00	r3 = r10
     124:	07 03 00 00 c8 ff ff ff	r3 += -56
     125:	bf 61 00 00 00 00 00 00	r1 = r6
     126:	bf 72 00 00 00 00 00 00	r2 = r7
     127:	b7 04 00 00 10 00 00 00	r4 = 16
     128:	b7 05 00 00 00 00 00 00	r5 = 0
     129:	85 00 00 00 09 00 00 00	call 9
     130:	67 00 00 00 20 00 00 00	r0 <<= 32
     131:	c7 00 00 00 20 00 00 00	r0 s>>= 32
     132:	18 09 00 00 73 ff ff ff 00 00 00 00 00 00 00 00	r9 = 4294967155 ll
     134:	c5 00 65 00 00 00 00 00	if r0 s< 0 goto +101 <LBB1_15>
     135:	bf a1 00 00 00 00 00 00	r1 = r10
     136:	07 01 00 00 c8 ff ff ff	r1 += -56
     137:	bf a3 00 00 00 00 00 00	r3 = r10
     138:	07 03 00 00 a8 ff ff ff	r3 += -88
     139:	b7 02 00 00 10 00 00 00	r2 = 16
     140:	b7 04 00 00 10 00 00 00	r4 = 16
     141:	b7 05 00 00 00 00 00 00	r5 = 0
     142:	85 00 00 00 1c 00 00 00	call 28
     143:	bf 61 00 00 00 00 00 00	r1 = r6
     144:	79 a2 88 ff 00 00 00 00	r2 = *(u64 *)(r10 - 120)
     145:	b7 03 00 00 00 00 00 00	r3 = 0
     146:	bf 04 00 00 00 00 00 00	r4 = r0
     147:	b7 05 00 00 10 00 00 00	r5 = 16
     148:	85 00 00 00 0b 00 00 00	call 11
     149:	18 09 00 00 66 ff ff ff 00 00 00 00 00 00 00 00	r9 = 4294967142 ll
     151:	67 00 00 00 20 00 00 00	r0 <<= 32
     152:	c7 00 00 00 20 00 00 00	r0 s>>= 32
     153:	c5 00 52 00 00 00 00 00	if r0 s< 0 goto +82 <LBB1_15>
     154:	bf a1 00 00 00 00 00 00	r1 = r10
     155:	07 01 00 00 b8 ff ff ff	r1 += -72
     156:	bf a3 00 00 00 00 00 00	r3 = r10
     157:	07 03 00 00 c8 ff ff ff	r3 += -56
     158:	b7 02 00 00 10 00 00 00	r2 = 16
     159:	b7 04 00 00 10 00 00 00	r4 = 16
     160:	b7 05 00 00 00 00 00 00	r5 = 0
     161:	85 00 00 00 1c 00 00 00	call 28
     162:	bf 61 00 00 00 00 00 00	r1 = r6
     163:	79 a2 88 ff 00 00 00 00	r2 = *(u64 *)(r10 - 120)
     164:	b7 03 00 00 00 00 00 00	r3 = 0
     165:	bf 04 00 00 00 00 00 00	r4 = r0
     166:	b7 05 00 00 10 00 00 00	r5 = 16
     167:	85 00 00 00 0b 00 00 00	call 11
     168:	67 00 00 00 20 00 00 00	r0 <<= 32
     169:	c7 00 00 00 20 00 00 00	r0 s>>= 32
     170:	c5 00 41 00 00 00 00 00	if r0 s< 0 goto +65 <LBB1_15>
     171:	bf a3 00 00 00 00 00 00	r3 = r10
     172:	07 03 00 00 e0 ff ff ff	r3 += -32
     173:	bf 61 00 00 00 00 00 00	r1 = r6
     174:	b7 02 00 00 06 00 00 00	r2 = 6
     175:	b7 04 00 00 06 00 00 00	r4 = 6
     176:	85 00 00 00 1a 00 00 00	call 26
     177:	67 00 00 00 20 00 00 00	r0 <<= 32
     178:	c7 00 00 00 20 00 00 00	r0 s>>= 32
     179:	18 09 00 00 7a ff ff ff 00 00 00 00 00 00 00 00	r9 = 4294967162 ll
     181:	c5 00 36 00 00 00 00 00	if r0 s< 0 goto +54 <LBB1_15>
     182:	bf a3 00 00 00 00 00 00	r3 = r10
     183:	07 03 00 00 e0 ff ff ff	r3 += -32
     184:	bf 61 00 00 00 00 00 00	r1 = r6
     185:	b7 02 00 00 00 00 00 00	r2 = 0
     186:	b7 04 00 00 06 00 00 00	r4 = 6
     187:	b7 05 00 00 00 00 00 00	r5 = 0
     188:	85 00 00 00 09 00 00 00	call 9
     189:	67 00 00 00 20 00 00 00	r0 <<= 32
     190:	c7 00 00 00 20 00 00 00	r0 s>>= 32
     191:	18 09 00 00 73 ff ff ff 00 00 00 00 00 00 00 00	r9 = 4294967155 ll
     193:	c5 00 2a 00 00 00 00 00	if r0 s< 0 goto +42 <LBB1_15>
     194:	bf a3 00 00 00 00 00 00	r3 = r10
     195:	07 03 00 00 d8 ff ff ff	r3 += -40
     196:	bf 61 00 00 00 00 00 00	r1 = r6
     197:	b7 02 00 00 06 00 00 00	r2 = 6
     198:	b7 04 00 00 06 00 00 00	r4 = 6
     199:	b7 05 00 00 00 00 00 00	r5 = 0
     200:	85 00 00 00 09 00 00 00	call 9
     201:	67 00 00 00 20 00 00 00	r0 <<= 32
     202:	c7 00 00 00 20 00 00 00	r0 s>>= 32
     203:	18 09 00 00 73 ff ff ff 00 00 00 00 00 00 00 00	r9 = 4294967155 ll
     205:	c5 00 1e 00 00 00 00 00	if r0 s< 0 goto +30 <LBB1_15>
     206:	61 67 00 00 00 00 00 00	r7 = *(u32 *)(r6 + 0)
     207:	61 68 28 00 00 00 00 00	r8 = *(u32 *)(r6 + 40)
     208:	bf 61 00 00 00 00 00 00	r1 = r6
     209:	85 00 00 00 22 00 00 00	call 34
     210:	63 0a ec ff 00 00 00 00	*(u32 *)(r10 - 20) = r0
     211:	b7 01 00 00 03 04 10 10	r1 = 269485059
     212:	63 1a e8 ff 00 00 00 00	*(u32 *)(r10 - 24) = r1
     213:	63 8a f8 ff 00 00 00 00	*(u32 *)(r10 - 8) = r8
     214:	63 7a f0 ff 00 00 00 00	*(u32 *)(r10 - 16) = r7
     215:	a5 07 01 00 80 00 00 00	if r7 < 128 goto +1 <LBB1_14>
     216:	b7 07 00 00 80 00 00 00	r7 = 128

00000000000006c8 <LBB1_14>:
     217:	63 7a f4 ff 00 00 00 00	*(u32 *)(r10 - 12) = r7
     218:	67 07 00 00 20 00 00 00	r7 <<= 32
     219:	18 01 00 00 ff ff ff ff 00 00 00 00 00 00 00 00	r1 = 4294967295 ll
     221:	4f 17 00 00 00 00 00 00	r7 |= r1
     222:	b7 01 00 00 00 00 00 00	r1 = 0
     223:	63 1a fc ff 00 00 00 00	*(u32 *)(r10 - 4) = r1
     224:	bf a4 00 00 00 00 00 00	r4 = r10
     225:	07 04 00 00 e8 ff ff ff	r4 += -24
     226:	bf 61 00 00 00 00 00 00	r1 = r6
     227:	18 02 00 00 00 00 00 00 00 00 00 00 00 00 00 00	r2 = 0 ll
     229:	bf 73 00 00 00 00 00 00	r3 = r7
     230:	b7 05 00 00 18 00 00 00	r5 = 24
     231:	85 00 00 00 19 00 00 00	call 25
     232:	61 61 28 00 00 00 00 00	r1 = *(u32 *)(r6 + 40)
     233:	b7 02 00 00 00 00 00 00	r2 = 0
     234:	85 00 00 00 17 00 00 00	call 23
     235:	bf 09 00 00 00 00 00 00	r9 = r0

0000000000000760 <LBB1_15>:
     236:	bf 91 00 00 00 00 00 00	r1 = r9
     237:	67 01 00 00 20 00 00 00	r1 <<= 32
     238:	77 01 00 00 20 00 00 00	r1 >>= 32
     239:	b7 02 00 00 01 00 00 00	r2 = 1
     240:	15 01 01 00 02 00 00 00	if r1 == 2 goto +1 <LBB1_17>
     241:	b7 02 00 00 00 00 00 00	r2 = 0

0000000000000790 <LBB1_17>:
     242:	77 01 00 00 1f 00 00 00	r1 >>= 31
     243:	4f 21 00 00 00 00 00 00	r1 |= r2
     244:	15 01 2e 00 00 00 00 00	if r1 == 0 goto +46 <LBB1_22>
     245:	b7 01 00 00 02 00 00 00	r1 = 2
     246:	63 16 30 00 00 00 00 00	*(u32 *)(r6 + 48) = r1
     247:	b7 01 00 00 00 00 00 00	r1 = 0
     248:	63 16 34 00 00 00 00 00	*(u32 *)(r6 + 52) = r1
     249:	63 96 38 00 00 00 00 00	*(u32 *)(r6 + 56) = r9
     250:	63 16 3c 00 00 00 00 00	*(u32 *)(r6 + 60) = r1
     251:	63 16 40 00 00 00 00 00	*(u32 *)(r6 + 64) = r1
     252:	61 67 00 00 00 00 00 00	r7 = *(u32 *)(r6 + 0)
     253:	7b 1a f0 ff 00 00 00 00	*(u64 *)(r10 - 16) = r1
     254:	7b 1a e8 ff 00 00 00 00	*(u64 *)(r10 - 24) = r1
     255:	7b 1a c8 ff 00 00 00 00	*(u64 *)(r10 - 56) = r1
     256:	79 a1 90 ff 00 00 00 00	r1 = *(u64 *)(r10 - 112)
     257:	57 01 00 00 03 00 00 00	r1 &= 3
     258:	73 1a c9 ff 00 00 00 00	*(u8 *)(r10 - 55) = r1
     259:	87 09 00 00 00 00 00 00	r9 = -r9
     260:	73 9a c8 ff 00 00 00 00	*(u8 *)(r10 - 56) = r9
     261:	bf a2 00 00 00 00 00 00	r2 = r10
     262:	07 02 00 00 c8 ff ff ff	r2 += -56
     263:	18 01 00 00 00 00 00 00 00 00 00 00 00 00 00 00	r1 = 0 ll
     265:	85 00 00 00 01 00 00 00	call 1
     266:	15 00 07 00 00 00 00 00	if r0 == 0 goto +7 <LBB1_20>
     267:	79 01 00 00 00 00 00 00	r1 = *(u64 *)(r0 + 0)
     268:	07 01 00 00 01 00 00 00	r1 += 1
     269:	7b 10 00 00 00 00 00 00	*(u64 *)(r0 + 0) = r1
     270:	79 01 08 00 00 00 00 00	r1 = *(u64 *)(r0 + 8)
     271:	0f 71 00 00 00 00 00 00	r1 += r7
     272:	7b 10 08 00 00 00 00 00	*(u64 *)(r0 + 8) = r1
     273:	05 00 0b 00 00 00 00 00	goto +11 <LBB1_21>

0000000000000890 <LBB1_20>:
     274:	7b 7a f0 ff 00 00 00 00	*(u64 *)(r10 - 16) = r7
     275:	b7 01 00 00 01 00 00 00	r1 = 1
     276:	7b 1a e8 ff 00 00 00 00	*(u64 *)(r10 - 24) = r1
     277:	bf a2 00 00 00 00 00 00	r2 = r10
     278:	07 02 00 00 c8 ff ff ff	r2 += -56
     279:	bf a3 00 00 00 00 00 00	r3 = r10
     280:	07 03 00 00 e8 ff ff ff	r3 += -24
     281:	18 01 00 00 00 00 00 00 00 00 00 00 00 00 00 00	r1 = 0 ll
     283:	b7 04 00 00 00 00 00 00	r4 = 0
     284:	85 00 00 00 02 00 00 00	call 2

00000000000008e8 <LBB1_21>:
     285:	bf 61 00 00 00 00 00 00	r1 = r6
     286:	18 02 00 00 00 00 00 00 00 00 00 00 00 00 00 00	r2 = 0 ll
     288:	b7 03 00 00 01 00 00 00	r3 = 1
     289:	85 00 00 00 0c 00 00 00	call 12
     290:	b7 09 00 00 02 00 00 00	r9 = 2

0000000000000918 <LBB1_22>:
     291:	bf 90 00 00 00 00 00 00	r0 = r9
     292:	95 00 00 00 00 00 00 00	exit

Disassembly of section 2/5:

0000000000000000 <tail_icmp6_send_time_exceeded>:
       0:	bf 16 00 00 00 00 00 00	r6 = r1
       1:	61 61 34 00 00 00 00 00	r1 = *(u32 *)(r6 + 52)
       2:	7b 1a 48 ff 00 00 00 00	*(u64 *)(r10 - 184) = r1
       3:	61 67 30 00 00 00 00 00	r7 = *(u32 *)(r6 + 48)
       4:	b7 08 00 00 00 00 00 00	r8 = 0
       5:	73 8a a7 ff 00 00 00 00	*(u8 *)(r10 - 89) = r8
       6:	73 8a a6 ff 00 00 00 00	*(u8 *)(r10 - 90) = r8
       7:	73 8a a5 ff 00 00 00 00	*(u8 *)(r10 - 91) = r8
       8:	73 8a a4 ff 00 00 00 00	*(u8 *)(r10 - 92) = r8
       9:	73 8a a3 ff 00 00 00 00	*(u8 *)(r10 - 93) = r8
      10:	73 8a a2 ff 00 00 00 00	*(u8 *)(r10 - 94) = r8
      11:	73 8a a1 ff 00 00 00 00	*(u8 *)(r10 - 95) = r8
      12:	73 8a a0 ff 00 00 00 00	*(u8 *)(r10 - 96) = r8
      13:	73 8a 9f ff 00 00 00 00	*(u8 *)(r10 - 97) = r8
      14:	73 8a 9e ff 00 00 00 00	*(u8 *)(r10 - 98) = r8
      15:	73 8a 9d ff 00 00 00 00	*(u8 *)(r10 - 99) = r8
      16:	73 8a 9c ff 00 00 00 00	*(u8 *)(r10 - 100) = r8
      17:	73 8a 9b ff 00 00 00 00	*(u8 *)(r10 - 101) = r8
      18:	73 8a 9a ff 00 00 00 00	*(u8 *)(r10 - 102) = r8
      19:	73 8a 99 ff 00 00 00 00	*(u8 *)(r10 - 103) = r8
      20:	73 8a 98 ff 00 00 00 00	*(u8 *)(r10 - 104) = r8
      21:	73 8a 97 ff 00 00 00 00	*(u8 *)(r10 - 105) = r8
      22:	73 8a 96 ff 00 00 00 00	*(u8 *)(r10 - 106) = r8
      23:	73 8a 95 ff 00 00 00 00	*(u8 *)(r10 - 107) = r8
      24:	73 8a 94 ff 00 00 00 00	*(u8 *)(r10 - 108) = r8
      25:	73 8a 93 ff 00 00 00 00	*(u8 *)(r10 - 109) = r8
      26:	73 8a 92 ff 00 00 00 00	*(u8 *)(r10 - 110) = r8
      27:	73 8a 91 ff 00 00 00 00	*(u8 *)(r10 - 111) = r8
      28:	73 8a 90 ff 00 00 00 00	*(u8 *)(r10 - 112) = r8
      29:	73 8a 8f ff 00 00 00 00	*(u8 *)(r10 - 113) = r8
      30:	73 8a 8e ff 00 00 00 00	*(u8 *)(r10 - 114) = r8
      31:	73 8a 8d ff 00 00 00 00	*(u8 *)(r10 - 115) = r8
      32:	73 8a 8c ff 00 00 00 00	*(u8 *)(r10 - 116) = r8
      33:	73 8a 8b ff 00 00 00 00	*(u8 *)(r10 - 117) = r8
      34:	73 8a 8a ff 00 00 00 00	*(u8 *)(r10 - 118) = r8
      35:	73 8a 89 ff 00 00 00 00	*(u8 *)(r10 - 119) = r8
      36:	73 8a 88 ff 00 00 00 00	*(u8 *)(r10 - 120) = r8
      37:	73 8a 87 ff 00 00 00 00	*(u8 *)(r10 - 121) = r8
      38:	73 8a 86 ff 00 00 00 00	*(u8 *)(r10 - 122) = r8
      39:	73 8a 85 ff 00 00 00 00	*(u8 *)(r10 - 123) = r8
      40:	73 8a 84 ff 00 00 00 00	*(u8 *)(r10 - 124) = r8
      41:	73 8a 83 ff 00 00 00 00	*(u8 *)(r10 - 125) = r8
      42:	73 8a 82 ff 00 00 00 00	*(u8 *)(r10 - 126) = r8
      43:	73 8a 81 ff 00 00 00 00	*(u8 *)(r10 - 127) = r8
      44:	73 8a 80 ff 00 00 00 00	*(u8 *)(r10 - 128) = r8
      45:	73 8a 7f ff 00 00 00 00	*(u8 *)(r10 - 129) = r8
      46:	73 8a 7e ff 00 00 00 00	*(u8 *)(r10 - 130) = r8
      47:	73 8a 7d ff 00 00 00 00	*(u8 *)(r10 - 131) = r8
      48:	73 8a 7c ff 00 00 00 00	*(u8 *)(r10 - 132) = r8
      49:	73 8a 7b ff 00 00 00 00	*(u8 *)(r10 - 133) = r8
      50:	73 8a 7a ff 00 00 00 00	*(u8 *)(r10 - 134) = r8
      51:	73 8a 79 ff 00 00 00 00	*(u8 *)(r10 - 135) = r8
      52:	73 8a 78 ff 00 00 00 00	*(u8 *)(r10 - 136) = r8
      53:	73 8a 77 ff 00 00 00 00	*(u8 *)(r10 - 137) = r8
      54:	73 8a 76 ff 00 00 00 00	*(u8 *)(r10 - 138) = r8
      55:	73 8a 75 ff 00 00 00 00	*(u8 *)(r10 - 139) = r8
      56:	73 8a 74 ff 00 00 00 00	*(u8 *)(r10 - 140) = r8
      57:	73 8a 73 ff 00 00 00 00	*(u8 *)(r10 - 141) = r8
      58:	73 8a 72 ff 00 00 00 00	*(u8 *)(r10 - 142) = r8
      59:	73 8a 71 ff 00 00 00 00	*(u8 *)(r10 - 143) = r8
      60:	73 8a 70 ff 00 00 00 00	*(u8 *)(r10 - 144) = r8
      61:	73 8a 6f ff 00 00 00 00	*(u8 *)(r10 - 145) = r8
      62:	73 8a 6e ff 00 00 00 00	*(u8 *)(r10 - 146) = r8
      63:	73 8a 6d ff 00 00 00 00	*(u8 *)(r10 - 147) = r8
      64:	73 8a 6c ff 00 00 00 00	*(u8 *)(r10 - 148) = r8
      65:	73 8a 6b ff 00 00 00 00	*(u8 *)(r10 - 149) = r8
      66:	73 8a 6a ff 00 00 00 00	*(u8 *)(r10 - 150) = r8
      67:	73 8a 69 ff 00 00 00 00	*(u8 *)(r10 - 151) = r8
      68:	73 8a 68 ff 00 00 00 00	*(u8 *)(r10 - 152) = r8
      69:	73 8a 67 ff 00 00 00 00	*(u8 *)(r10 - 153) = r8
      70:	73 8a 66 ff 00 00 00 00	*(u8 *)(r10 - 154) = r8
      71:	73 8a 65 ff 00 00 00 00	*(u8 *)(r10 - 155) = r8
      72:	73 8a 64 ff 00 00 00 00	*(u8 *)(r10 - 156) = r8
      73:	73 8a 63 ff 00 00 00 00	*(u8 *)(r10 - 157) = r8
      74:	73 8a 62 ff 00 00 00 00	*(u8 *)(r10 - 158) = r8
      75:	73 8a 61 ff 00 00 00 00	*(u8 *)(r10 - 159) = r8
      76:	73 8a 60 ff 00 00 00 00	*(u8 *)(r10 - 160) = r8
      77:	6b 8a 56 ff 00 00 00 00	*(u16 *)(r10 - 170) = r8
      78:	b7 01 00 00 3a 00 00 00	r1 = 58
      79:	73 1a 55 ff 00 00 00 00	*(u8 *)(r10 - 171) = r1
      80:	b7 01 00 00 03 00 00 00	r1 = 3
      81:	63 1a 58 ff 00 00 00 00	*(u32 *)(r10 - 168) = r1
      82:	63 8a 5c ff 00 00 00 00	*(u32 *)(r10 - 164) = r8
      83:	bf 61 00 00 00 00 00 00	r1 = r6
      84:	85 00 00 00 22 00 00 00	call 34
      85:	63 0a ec ff 00 00 00 00	*(u32 *)(r10 - 20) = r0
      86:	b7 01 00 00 02 0e 10 10	r1 = 269487618
      87:	63 1a e8 ff 00 00 00 00	*(u32 *)(r10 - 24) = r1
      88:	7b 8a f0 ff 00 00 00 00	*(u64 *)(r10 - 16) = r8
      89:	63 8a f8 ff 00 00 00 00	*(u32 *)(r10 - 8) = r8
      90:	bf a4 00 00 00 00 00 00	r4 = r10
      91:	07 04 00 00 e8 ff ff ff	r4 += -24
      92:	bf 61 00 00 00 00 00 00	r1 = r6
      93:	18 02 00 00 00 00 00 00 00 00 00 00 00 00 00 00	r2 = 0 ll
      95:	18 03 00 00 ff ff ff ff 00 00 00 00 00 00 00 00	r3 = 4294967295 ll
      97:	b7 05 00 00 14 00 00 00	r5 = 20
      98:	85 00 00 00 19 00 00 00	call 25
      99:	bf a3 00 00 00 00 00 00	r3 = r10
     100:	07 03 00 00 60 ff ff ff	r3 += -160
     101:	bf 61 00 00 00 00 00 00	r1 = r6
     102:	bf 72 00 00 00 00 00 00	r2 = r7
     103:	b7 04 00 00 28 00 00 00	r4 = 40
     104:	85 00 00 00 1a 00 00 00	call 26
     105:	18 09 00 00 7a ff ff ff 00 00 00 00 00 00 00 00	r9 = 4294967162 ll
     107:	67 00 00 00 20 00 00 00	r0 <<= 32
     108:	c7 00 00 00 20 00 00 00	r0 s>>= 32
     109:	c5 00 78 01 00 00 00 00	if r0 s< 0 goto +376 <LBB2_26>
     110:	bf 72 00 00 00 00 00 00	r2 = r7
     111:	07 02 00 00 06 00 00 00	r2 += 6
     112:	bf a3 00 00 00 00 00 00	r3 = r10
     113:	07 03 00 00 55 ff ff ff	r3 += -171
     114:	bf 61 00 00 00 00 00 00	r1 = r6
     115:	b7 04 00 00 01 00 00 00	r4 = 1
     116:	b7 05 00 00 00 00 00 00	r5 = 0
     117:	85 00 00 00 09 00 00 00	call 9
     118:	67 00 00 00 20 00 00 00	r0 <<= 32
     119:	c7 00 00 00 20 00 00 00	r0 s>>= 32
     120:	18 09 00 00 73 ff ff ff 00 00 00 00 00 00 00 00	r9 = 4294967155 ll
     122:	c5 00 6b 01 00 00 00 00	if r0 s< 0 goto +363 <LBB2_26>
     123:	bf a3 00 00 00 00 00 00	r3 = r10
     124:	07 03 00 00 88 ff ff ff	r3 += -120
     125:	71 a1 66 ff 00 00 00 00	r1 = *(u8 *)(r10 - 154)
     126:	15 01 60 00 06 00 00 00	if r1 == 6 goto +96 <LBB2_9>
     127:	15 01 03 00 3a 00 00 00	if r1 == 58 goto +3 <LBB2_5>
     128:	18 09 00 00 72 ff ff ff 00 00 00 00 00 00 00 00	r9 = 4294967154 ll
     130:	55 01 63 01 11 00 00 00	if r1 != 17 goto +355 <LBB2_26>

0000000000000418 <LBB2_5>:
     131:	bf 78 00 00 00 00 00 00	r8 = r7
     132:	07 08 00 00 28 00 00 00	r8 += 40
     133:	bf 61 00 00 00 00 00 00	r1 = r6
     134:	bf 82 00 00 00 00 00 00	r2 = r8
     135:	b7 04 00 00 08 00 00 00	r4 = 8
     136:	85 00 00 00 1a 00 00 00	call 26
     137:	67 00 00 00 20 00 00 00	r0 <<= 32
     138:	c7 00 00 00 20 00 00 00	r0 s>>= 32
     139:	18 09 00 00 7a ff ff ff 00 00 00 00 00 00 00 00	r9 = 4294967162 ll
     141:	c5 00 58 01 00 00 00 00	if r0 s< 0 goto +344 <LBB2_26>
     142:	bf a3 00 00 00 00 00 00	r3 = r10
     143:	07 03 00 00 58 ff ff ff	r3 += -168
     144:	b7 01 00 00 00 00 00 00	r1 = 0
     145:	b7 02 00 00 00 00 00 00	r2 = 0
     146:	b7 04 00 00 38 00 00 00	r4 = 56
     147:	b7 05 00 00 00 00 00 00	r5 = 0
     148:	85 00 00 00 1c 00 00 00	call 28
     149:	b7 01 00 00 00 00 00 38	r1 = 939524096
     150:	63 1a e8 ff 00 00 00 00	*(u32 *)(r10 - 24) = r1
     151:	b7 01 00 00 00 00 00 3a	r1 = 973078528
     152:	63 1a c8 ff 00 00 00 00	*(u32 *)(r10 - 56) = r1
     153:	bf a3 00 00 00 00 00 00	r3 = r10
     154:	07 03 00 00 68 ff ff ff	r3 += -152
     155:	b7 01 00 00 00 00 00 00	r1 = 0
     156:	b7 02 00 00 00 00 00 00	r2 = 0
     157:	b7 04 00 00 10 00 00 00	r4 = 16
     158:	bf 05 00 00 00 00 00 00	r5 = r0
     159:	85 00 00 00 1c 00 00 00	call 28
     160:	bf a3 00 00 00 00 00 00	r3 = r10
     161:	07 03 00 00 78 ff ff ff	r3 += -136
     162:	b7 01 00 00 00 00 00 00	r1 = 0
     163:	b7 02 00 00 00 00 00 00	r2 = 0
     164:	b7 04 00 00 10 00 00 00	r4 = 16
     165:	bf 05 00 00 00 00 00 00	r5 = r0
     166:	85 00 00 00 1c 00 00 00	call 28
     167:	bf a3 00 00 00 00 00 00	r3 = r10
     168:	07 03 00 00 e8 ff ff ff	r3 += -24
     169:	b7 01 00 00 00 00 00 00	r1 = 0
     170:	b7 02 00 00 00 00 00 00	r2 = 0
     171:	b7 04 00 00 04 00 00 00	r4 = 4
     172:	bf 05 00 00 00 00 00 00	r5 = r0
     173:	85 00 00 00 1c 00 00 00	call 28
     174:	bf a3 00 00 00 00 00 00	r3 = r10
     175:	07 03 00 00 c8 ff ff ff	r3 += -56
     176:	b7 01 00 00 00 00 00 00	r1 = 0
     177:	b7 02 00 00 00 00 00 00	r2 = 0
     178:	b7 04 00 00 04 00 00 00	r4 = 4
     179:	bf 05 00 00 00 00 00 00	r5 = r0
     180:	85 00 00 00 1c 00 00 00	call 28
     181:	7b 0a 40 ff 00 00 00 00	*(u64 *)(r10 - 192) = r0
     182:	b7 01 00 00 00 38 00 00	r1 = 14336
     183:	6b 1a 56 ff 00 00 00 00	*(u16 *)(r10 - 170) = r1
     184:	69 a1 64 ff 00 00 00 00	r1 = *(u16 *)(r10 - 156)
     185:	dc 01 00 00 10 00 00 00	r1 = be16 r1
     186:	61 62 00 00 00 00 00 00	r2 = *(u32 *)(r6 + 0)
     187:	07 02 00 00 38 00 00 00	r2 += 56
     188:	1f 12 00 00 00 00 00 00	r2 -= r1
     189:	bf 61 00 00 00 00 00 00	r1 = r6
     190:	b7 03 00 00 00 00 00 00	r3 = 0
     191:	85 00 00 00 26 00 00 00	call 38
     192:	67 00 00 00 20 00 00 00	r0 <<= 32
     193:	c7 00 00 00 20 00 00 00	r0 s>>= 32
     194:	18 09 00 00 73 ff ff ff 00 00 00 00 00 00 00 00	r9 = 4294967155 ll
     196:	c5 00 21 01 00 00 00 00	if r0 s< 0 goto +289 <LBB2_26>
     197:	bf a3 00 00 00 00 00 00	r3 = r10
     198:	07 03 00 00 58 ff ff ff	r3 += -168
     199:	bf 61 00 00 00 00 00 00	r1 = r6
     200:	bf 82 00 00 00 00 00 00	r2 = r8
     201:	b7 04 00 00 38 00 00 00	r4 = 56
     202:	b7 05 00 00 00 00 00 00	r5 = 0
     203:	85 00 00 00 09 00 00 00	call 9
     204:	67 00 00 00 20 00 00 00	r0 <<= 32
     205:	c7 00 00 00 20 00 00 00	r0 s>>= 32
     206:	18 09 00 00 73 ff ff ff 00 00 00 00 00 00 00 00	r9 = 4294967155 ll
     208:	c5 00 15 01 00 00 00 00	if r0 s< 0 goto +277 <LBB2_26>
     209:	bf 72 00 00 00 00 00 00	r2 = r7
     210:	07 02 00 00 04 00 00 00	r2 += 4
     211:	bf a3 00 00 00 00 00 00	r3 = r10
     212:	07 03 00 00 56 ff ff ff	r3 += -170
     213:	bf 61 00 00 00 00 00 00	r1 = r6
     214:	b7 04 00 00 02 00 00 00	r4 = 2
     215:	b7 05 00 00 00 00 00 00	r5 = 0
     216:	85 00 00 00 09 00 00 00	call 9
     217:	67 00 00 00 20 00 00 00	r0 <<= 32
     218:	c7 00 00 00 20 00 00 00	r0 s>>= 32
     219:	18 09 00 00 73 ff ff ff 00 00 00 00 00 00 00 00	r9 = 4294967155 ll
     221:	c5 00 08 01 00 00 00 00	if r0 s< 0 goto +264 <LBB2_26>
     222:	05 00 5b 00 00 00 00 00	goto +91 <LBB2_13>

00000000000006f8 <LBB2_9>:
     223:	bf 78 00 00 00 00 00 00	r8 = r7
     224:	07 08 00 00 28 00 00 00	r8 += 40
     225:	bf 61 00 00 00 00 00 00	r1 = r6
     226:	bf 82 00 00 00 00 00 00	r2 = r8
     227:	b7 04 00 00 14 00 00 00	r4 = 20
     228:	85 00 00 00 1a 00 00 00	call 26
     229:	67 00 00 00 20 00 00 00	r0 <<= 32
     230:	c7 00 00 00 20 00 00 00	r0 s>>= 32
     231:	18 09 00 00 7a ff ff ff 00 00 00 00 00 00 00 00	r9 = 4294967162 ll
     233:	c5 00 fc 00 00 00 00 00	if r0 s< 0 goto +252 <LBB2_26>
     234:	bf a3 00 00 00 00 00 00	r3 = r10
     235:	07 03 00 00 58 ff ff ff	r3 += -168
     236:	b7 01 00 00 00 00 00 00	r1 = 0
     237:	b7 02 00 00 00 00 00 00	r2 = 0
     238:	b7 04 00 00 44 00 00 00	r4 = 68
     239:	b7 05 00 00 00 00 00 00	r5 = 0
     240:	85 00 00 00 1c 00 00 00	call 28
     241:	b7 01 00 00 00 00 00 44	r1 = 1140850688
     242:	63 1a e8 ff 00 00 00 00	*(u32 *)(r10 - 24) = r1
     243:	b7 01 00 00 00 00 00 3a	r1 = 973078528
     244:	63 1a c8 ff 00 00 00 00	*(u32 *)(r10 - 56) = r1
     245:	bf a3 00 00 00 00 00 00	r3 = r10
     246:	07 03 00 00 68 ff ff ff	r3 += -152
     247:	b7 01 00 00 00 00 00 00	r1 = 0
     248:	b7 02 00 00 00 00 00 00	r2 = 0
     249:	b7 04 00 00 10 00 00 00	r4 = 16
     250:	bf 05 00 00 00 00 00 00	r5 = r0
     251:	85 00 00 00 1c 00 00 00	call 28
     252:	bf a3 00 00 00 00 00 00	r3 = r10
     253:	07 03 00 00 78 ff ff ff	r3 += -136
     254:	b7 01 00 00 00 00 00 00	r1 = 0
     255:	b7 02 00 00 00 00 00 00	r2 = 0
     256:	b7 04 00 00 10 00 00 00	r4 = 16
     257:	bf 05 00 00 00 00 00 00	r5 = r0
     258:	85 00 00 00 1c 00 00 00	call 28
     259:	bf a3 00 00 00 00 00 00	r3 = r10
     260:	07 03 00 00 e8 ff ff ff	r3 += -24
     261:	b7 01 00 00 00 00 00 00	r1 = 0
     262:	b7 02 00 00 00 00 00 00	r2 = 0
     263:	b7 04 00 00 04 00 00 00	r4 = 4
     264:	bf 05 00 00 00 00 00 00	r5 = r0
     265:	85 00 00 00 1c 00 00 00	call 28
     266:	bf a3 00 00 00 00 00 00	r3 = r10
     267:	07 03 00 00 c8 ff ff ff	r3 += -56
     268:	b7 01 00 00 00 00 00 00	r1 = 0
     269:	b7 02 00 00 00 00 00 00	r2 = 0
     270:	b7 04 00 00 04 00 00 00	r4 = 4
     271:	bf 05 00 00 00 00 00 00	r5 = r0
     272:	85 00 00 00 1c 00 00 00	call 28
     273:	7b 0a 40 ff 00 00 00 00	*(u64 *)(r10 - 192) = r0
     274:	b7 01 00 00 00 44 00 00	r1 = 17408
     275:	6b 1a 56 ff 00 00 00 00	*(u16 *)(r10 - 170) = r1
     276:	69 a1 64 ff 00 00 00 00	r1 = *(u16 *)(r10 - 156)
     277:	dc 01 00 00 10 00 00 00	r1 = be16 r1
     278:	61 62 00 00 00 00 00 00	r2 = *(u32 *)(r6 + 0)
     279:	07 02 00 00 44 00 00 00	r2 += 68
     280:	1f 12 00 00 00 00 00 00	r2 -= r1
     281:	bf 61 00 00 00 00 00 00	r1 = r6
     282:	b7 03 00 00 00 00 00 00	r3 = 0
     283:	85 00 00 00 26 00 00 00	call 38
     284:	67 00 00 00 20 00 00 00	r0 <<= 32
     285:	c7 00 00 00 20 00 00 00	r0 s>>= 32
     286:	18 09 00 00 73 ff ff ff 00 00 00 00 00 00 00 00	r9 = 4294967155 ll
     288:	c5 00 c5 00 00 00 00 00	if r0 s< 0 goto +197 <LBB2_26>
     289:	bf a3 00 00 00 00 00 00	r3 = r10
     290:	07 03 00 00 58 ff ff ff	r3 += -168
     291:	bf 61 00 00 00 00 00 00	r1 = r6
     292:	bf 82 00 00 00 00 00 00	r2 = r8
     293:	b7 04 00 00 44 00 00 00	r4 = 68
     294:	b7 05 00 00 00 00 00 00	r5 = 0
     295:	85 00 00 00 09 00 00 00	call 9
     296:	67 00 00 00 20 00 00 00	r0 <<= 32
     297:	c7 00 00 00 20 00 00 00	r0 s>>= 32
     298:	18 09 00 00 73 ff ff ff 00 00 00 00 00 00 00 00	r9 = 4294967155 ll
     300:	c5 00 b9 00 00 00 00 00	if r0 s< 0 goto +185 <LBB2_26>
     301:	bf 72 00 00 00 00 00 00	r2 = r7
     302:	07 02 00 00 04 00 00 00	r2 += 4
     303:	bf a3 00 00 00 00 00 00	r3 = r10
     304:	07 03 00 00 56 ff ff ff	r3 += -170
     305:	bf 61 00 00 00 00 00 00	r1 = r6
     306:	b7 04 00 00 02 00 00 00	r4 = 2
     307:	b7 05 00 00 00 00 00 00	r5 = 0
     308:	85 00 00 00 09 00 00 00	call 9
     309:	67 00 00 00 20 00 00 00	r0 <<= 32
     310:	c7 00 00 00 20 00 00 00	r0 s>>= 32
     311:	18 09 00 00 73 ff ff ff 00 00 00 00 00 00 00 00	r9 = 4294967155 ll
     313:	c5 00 ac 00 00 00 00 00	if r0 s< 0 goto +172 <LBB2_26>

00000000000009d0 <LBB2_13>:
     314:	bf 78 00 00 00 00 00 00	r8 = r7
     315:	07 08 00 00 2a 00 00 00	r8 += 42
     316:	bf 61 00 00 00 00 00 00	r1 = r6
     317:	bf 82 00 00 00 00 00 00	r2 = r8
     318:	b7 03 00 00 00 00 00 00	r3 = 0
     319:	79 a4 40 ff 00 00 00 00	r4 = *(u64 *)(r10 - 192)
     320:	b7 05 00 00 10 00 00 00	r5 = 16
     321:	85 00 00 00 0b 00 00 00	call 11
     322:	18 09 00 00 66 ff ff ff 00 00 00 00 00 00 00 00	r9 = 4294967142 ll
     324:	67 00 00 00 20 00 00 00	r0 <<= 32
     325:	c7 00 00 00 20 00 00 00	r0 s>>= 32
     326:	c5 00 9f 00 00 00 00 00	if r0 s< 0 goto +159 <LBB2_26>
     327:	7b 8a 40 ff 00 00 00 00	*(u64 *)(r10 - 192) = r8
     328:	18 01 00 00 de ad be ef 00 00 00 00 c0 de 00 00	r1 = 244920237338078 ll
     330:	7b 1a d8 ff 00 00 00 00	*(u64 *)(r10 - 40) = r1
     331:	bf 78 00 00 00 00 00 00	r8 = r7
     332:	07 08 00 00 08 00 00 00	r8 += 8
     333:	bf a3 00 00 00 00 00 00	r3 = r10
     334:	07 03 00 00 c8 ff ff ff	r3 += -56
     335:	bf 61 00 00 00 00 00 00	r1 = r6
     336:	bf 82 00 00 00 00 00 00	r2 = r8
     337:	b7 04 00 00 10 00 00 00	r4 = 16
     338:	85 00 00 00 1a 00 00 00	call 26
     339:	67 00 00 00 20 00 00 00	r0 <<= 32
     340:	c7 00 00 00 20 00 00 00	r0 s>>= 32
     341:	18 09 00 00 7a ff ff ff 00 00 00 00 00 00 00 00	r9 = 4294967162 ll
     343:	c5 00 8e 00 00 00 00 00	if r0 s< 0 goto +142 <LBB2_26>
     344:	07 07 00 00 18 00 00 00	r7 += 24
     345:	bf a3 00 00 00 00 00 00	r3 = r10
     346:	07 03 00 00 b8 ff ff ff	r3 += -72
     347:	bf 61 00 00 00 00 00 00	r1 = r6
     348:	bf 72 00 00 00 00 00 00	r2 = r7
     349:	b7 04 00 00 10 00 00 00	r4 = 16
     350:	85 00 00 00 1a 00 00 00	call 26
     351:	67 00 00 00 20 00 00 00	r0 <<= 32
     352:	c7 00 00 00 20 00 00 00	r0 s>>= 32
     353:	18 09 00 00 7a ff ff ff 00 00 00 00 00 00 00 00	r9 = 4294967162 ll
     355:	c5 00 82 00 00 00 00 00	if r0 s< 0 goto +130 <LBB2_26>
     356:	b7 01 00 00 be ef 00 00	r1 = 61374
     357:	7b 1a a8 ff 00 00 00 00	*(u64 *)(r10 - 88) = r1
     358:	18 01 00 00 00 00 00 01 00 00 00 00 00 01 00 00	r1 = 1099528404992 ll
     360:	7b 1a b0 ff 00 00 00 00	*(u64 *)(r10 - 80) = r1
     361:	bf a3 00 00 00 00 00 00	r3 = r10
     362:	07 03 00 00 a8 ff ff ff	r3 += -88
     363:	bf 61 00 00 00 00 00 00	r1 = r6
     364:	bf 82 00 00 00 00 00 00	r2 = r8
     365:	b7 04 00 00 10 00 00 00	r4 = 16
     366:	b7 05 00 00 00 00 00 00	r5 = 0
     367:	85 00 00 00 09 00 00 00	call 9
     368:	67 00 00 00 20 00 00 00	r0 <<= 32
     369:	c7 00 00 00 20 00 00 00	r0 s>>= 32
     370:	18 09 00 00 73 ff ff ff 00 00 00 00 00 00 00 00	r9 = 4294967155 ll
     372:	c5 00 71 00 00 00 00 00	if r0 s< 0 goto +113 <LBB2_26>
     373:	bf a3 00 00 00 00 00 00	r3 = r10
     374:	07 03 00 00 c8 ff ff ff	r3 += -56
     375:	bf 61 00 00 00 00 00 00	r1 = r6
     376:	bf 72 00 00 00 00 00 00	r2 = r7
     377:	b7 04 00 00 10 00 00 00	r4 = 16
     378:	b7 05 00 00 00 00 00 00	r5 = 0
     379:	85 00 00 00 09 00 00 00	call 9
     380:	67 00 00 00 20 00 00 00	r0 <<= 32
     381:	c7 00 00 00 20 00 00 00	r0 s>>= 32
     382:	18 09 00 00 73 ff ff ff 00 00 00 00 00 00 00 00	r9 = 4294967155 ll
     384:	c5 00 65 00 00 00 00 00	if r0 s< 0 goto +101 <LBB2_26>
     385:	bf a1 00 00 00 00 00 00	r1 = r10
     386:	07 01 00 00 c8 ff ff ff	r1 += -56
     387:	bf a3 00 00 00 00 00 00	r3 = r10
     388:	07 03 00 00 a8 ff ff ff	r3 += -88
     389:	b7 02 00 00 10 00 00 00	r2 = 16
     390:	b7 04 00 00 10 00 00 00	r4 = 16
     391:	b7 05 00 00 00 00 00 00	r5 = 0
     392:	85 00 00 00 1c 00 00 00	call 28
     393:	bf 61 00 00 00 00 00 00	r1 = r6
     394:	79 a2 40 ff 00 00 00 00	r2 = *(u64 *)(r10 - 192)
     395:	b7 03 00 00 00 00 00 00	r3 = 0
     396:	bf 04 00 00 00 00 00 00	r4 = r0
     397:	b7 05 00 00 10 00 00 00	r5 = 16
     398:	85 00 00 00 0b 00 00 00	call 11
     399:	18 09 00 00 66 ff ff ff 00 00 00 00 00 00 00 00	r9 = 4294967142 ll
     401:	67 00 00 00 20 00 00 00	r0 <<= 32
     402:	c7 00 00 00 20 00 00 00	r0 s>>= 32
     403:	c5 00 52 00 00 00 00 00	if r0 s< 0 goto +82 <LBB2_26>
     404:	bf a1 00 00 00 00 00 00	r1 = r10
     405:	07 01 00 00 b8 ff ff ff	r1 += -72
     406:	bf a3 00 00 00 00 00 00	r3 = r10
     407:	07 03 00 00 c8 ff ff ff	r3 += -56
     408:	b7 02 00 00 10 00 00 00	r2 = 16
     409:	b7 04 00 00 10 00 00 00	r4 = 16
     410:	b7 05 00 00 00 00 00 00	r5 = 0
     411:	85 00 00 00 1c 00 00 00	call 28
     412:	bf 61 00 00 00 00 00 00	r1 = r6
     413:	79 a2 40 ff 00 00 00 00	r2 = *(u64 *)(r10 - 192)
     414:	b7 03 00 00 00 00 00 00	r3 = 0
     415:	bf 04 00 00 00 00 00 00	r4 = r0
     416:	b7 05 00 00 10 00 00 00	r5 = 16
     417:	85 00 00 00 0b 00 00 00	call 11
     418:	67 00 00 00 20 00 00 00	r0 <<= 32
     419:	c7 00 00 00 20 00 00 00	r0 s>>= 32
     420:	c5 00 41 00 00 00 00 00	if r0 s< 0 goto +65 <LBB2_26>
     421:	bf a3 00 00 00 00 00 00	r3 = r10
     422:	07 03 00 00 e0 ff ff ff	r3 += -32
     423:	bf 61 00 00 00 00 00 00	r1 = r6
     424:	b7 02 00 00 06 00 00 00	r2 = 6
     425:	b7 04 00 00 06 00 00 00	r4 = 6
     426:	85 00 00 00 1a 00 00 00	call 26
     427:	67 00 00 00 20 00 00 00	r0 <<= 32
     428:	c7 00 00 00 20 00 00 00	r0 s>>= 32
     429:	18 09 00 00 7a ff ff ff 00 00 00 00 00 00 00 00	r9 = 4294967162 ll
     431:	c5 00 36 00 00 00 00 00	if r0 s< 0 goto +54 <LBB2_26>
     432:	bf a3 00 00 00 00 00 00	r3 = r10
     433:	07 03 00 00 e0 ff ff ff	r3 += -32
     434:	bf 61 00 00 00 00 00 00	r1 = r6
     435:	b7 02 00 00 00 00 00 00	r2 = 0
     436:	b7 04 00 00 06 00 00 00	r4 = 6
     437:	b7 05 00 00 00 00 00 00	r5 = 0
     438:	85 00 00 00 09 00 00 00	call 9
     439:	67 00 00 00 20 00 00 00	r0 <<= 32
     440:	c7 00 00 00 20 00 00 00	r0 s>>= 32
     441:	18 09 00 00 73 ff ff ff 00 00 00 00 00 00 00 00	r9 = 4294967155 ll
     443:	c5 00 2a 00 00 00 00 00	if r0 s< 0 goto +42 <LBB2_26>
     444:	bf a3 00 00 00 00 00 00	r3 = r10
     445:	07 03 00 00 d8 ff ff ff	r3 += -40
     446:	bf 61 00 00 00 00 00 00	r1 = r6
     447:	b7 02 00 00 06 00 00 00	r2 = 6
     448:	b7 04 00 00 06 00 00 00	r4 = 6
     449:	b7 05 00 00 00 00 00 00	r5 = 0
     450:	85 00 00 00 09 00 00 00	call 9
     451:	67 00 00 00 20 00 00 00	r0 <<= 32
     452:	c7 00 00 00 20 00 00 00	r0 s>>= 32
     453:	18 09 00 00 73 ff ff ff 00 00 00 00 00 00 00 00	r9 = 4294967155 ll
     455:	c5 00 1e 00 00 00 00 00	if r0 s< 0 goto +30 <LBB2_26>
     456:	61 67 00 00 00 00 00 00	r7 = *(u32 *)(r6 + 0)
     457:	61 68 28 00 00 00 00 00	r8 = *(u32 *)(r6 + 40)
     458:	bf 61 00 00 00 00 00 00	r1 = r6
     459:	85 00 00 00 22 00 00 00	call 34
     460:	63 0a ec ff 00 00 00 00	*(u32 *)(r10 - 20) = r0
     461:	b7 01 00 00 03 04 10 10	r1 = 269485059
     462:	63 1a e8 ff 00 00 00 00	*(u32 *)(r10 - 24) = r1
     463:	63 8a f8 ff 00 00 00 00	*(u32 *)(r10 - 8) = r8
     464:	63 7a f0 ff 00 00 00 00	*(u32 *)(r10 - 16) = r7
     465:	a5 07 01 00 80 00 00 00	if r7 < 128 goto +1 <LBB2_25>
     466:	b7 07 00 00 80 00 00 00	r7 = 128

0000000000000e98 <LBB2_25>:
     467:	63 7a f4 ff 00 00 00 00	*(u32 *)(r10 - 12) = r7
     468:	67 07 00 00 20 00 00 00	r7 <<= 32
     469:	18 01 00 00 ff ff ff ff 00 00 00 00 00 00 00 00	r1 = 4294967295 ll
     471:	4f 17 00 00 00 00 00 00	r7 |= r1
     472:	b7 01 00 00 00 00 00 00	r1 = 0
     473:	63 1a fc ff 00 00 00 00	*(u32 *)(r10 - 4) = r1
     474:	bf a4 00 00 00 00 00 00	r4 = r10
     475:	07 04 00 00 e8 ff ff ff	r4 += -24
     476:	bf 61 00 00 00 00 00 00	r1 = r6
     477:	18 02 00 00 00 00 00 00 00 00 00 00 00 00 00 00	r2 = 0 ll
     479:	bf 73 00 00 00 00 00 00	r3 = r7
     480:	b7 05 00 00 18 00 00 00	r5 = 24
     481:	85 00 00 00 19 00 00 00	call 25
     482:	61 61 28 00 00 00 00 00	r1 = *(u32 *)(r6 + 40)
     483:	b7 02 00 00 00 00 00 00	r2 = 0
     484:	85 00 00 00 17 00 00 00	call 23
     485:	bf 09 00 00 00 00 00 00	r9 = r0

0000000000000f30 <LBB2_26>:
     486:	bf 91 00 00 00 00 00 00	r1 = r9
     487:	67 01 00 00 20 00 00 00	r1 <<= 32
     488:	77 01 00 00 20 00 00 00	r1 >>= 32
     489:	b7 02 00 00 01 00 00 00	r2 = 1
     490:	15 01 01 00 02 00 00 00	if r1 == 2 goto +1 <LBB2_28>
     491:	b7 02 00 00 00 00 00 00	r2 = 0

0000000000000f60 <LBB2_28>:
     492:	77 01 00 00 1f 00 00 00	r1 >>= 31
     493:	4f 21 00 00 00 00 00 00	r1 |= r2
     494:	15 01 2e 00 00 00 00 00	if r1 == 0 goto +46 <LBB2_33>
     495:	b7 01 00 00 02 00 00 00	r1 = 2
     496:	63 16 30 00 00 00 00 00	*(u32 *)(r6 + 48) = r1
     497:	b7 01 00 00 00 00 00 00	r1 = 0
     498:	63 16 34 00 00 00 00 00	*(u32 *)(r6 + 52) = r1
     499:	63 96 38 00 00 00 00 00	*(u32 *)(r6 + 56) = r9
     500:	63 16 3c 00 00 00 00 00	*(u32 *)(r6 + 60) = r1
     501:	63 16 40 00 00 00 00 00	*(u32 *)(r6 + 64) = r1
     502:	61 67 00 00 00 00 00 00	r7 = *(u32 *)(r6 + 0)
     503:	7b 1a 60 ff 00 00 00 00	*(u64 *)(r10 - 160) = r1
     504:	7b 1a 58 ff 00 00 00 00	*(u64 *)(r10 - 168) = r1
     505:	7b 1a e8 ff 00 00 00 00	*(u64 *)(r10 - 24) = r1
     506:	79 a1 48 ff 00 00 00 00	r1 = *(u64 *)(r10 - 184)
     507:	57 01 00 00 03 00 00 00	r1 &= 3
     508:	73 1a e9 ff 00 00 00 00	*(u8 *)(r10 - 23) = r1
     509:	87 09 00 00 00 00 00 00	r9 = -r9
     510:	73 9a e8 ff 00 00 00 00	*(u8 *)(r10 - 24) = r9
     511:	bf a2 00 00 00 00 00 00	r2 = r10
     512:	07 02 00 00 e8 ff ff ff	r2 += -24
     513:	18 01 00 00 00 00 00 00 00 00 00 00 00 00 00 00	r1 = 0 ll
     515:	85 00 00 00 01 00 00 00	call 1
     516:	15 00 07 00 00 00 00 00	if r0 == 0 goto +7 <LBB2_31>
     517:	79 01 00 00 00 00 00 00	r1 = *(u64 *)(r0 + 0)
     518:	07 01 00 00 01 00 00 00	r1 += 1
     519:	7b 10 00 00 00 00 00 00	*(u64 *)(r0 + 0) = r1
     520:	79 01 08 00 00 00 00 00	r1 = *(u64 *)(r0 + 8)
     521:	0f 71 00 00 00 00 00 00	r1 += r7
     522:	7b 10 08 00 00 00 00 00	*(u64 *)(r0 + 8) = r1
     523:	05 00 0b 00 00 00 00 00	goto +11 <LBB2_32>

0000000000001060 <LBB2_31>:
     524:	7b 7a 60 ff 00 00 00 00	*(u64 *)(r10 - 160) = r7
     525:	b7 01 00 00 01 00 00 00	r1 = 1
     526:	7b 1a 58 ff 00 00 00 00	*(u64 *)(r10 - 168) = r1
     527:	bf a2 00 00 00 00 00 00	r2 = r10
     528:	07 02 00 00 e8 ff ff ff	r2 += -24
     529:	bf a3 00 00 00 00 00 00	r3 = r10
     530:	07 03 00 00 58 ff ff ff	r3 += -168
     531:	18 01 00 00 00 00 00 00 00 00 00 00 00 00 00 00	r1 = 0 ll
     533:	b7 04 00 00 00 00 00 00	r4 = 0
     534:	85 00 00 00 02 00 00 00	call 2

00000000000010b8 <LBB2_32>:
     535:	bf 61 00 00 00 00 00 00	r1 = r6
     536:	18 02 00 00 00 00 00 00 00 00 00 00 00 00 00 00	r2 = 0 ll
     538:	b7 03 00 00 01 00 00 00	r3 = 1
     539:	85 00 00 00 0c 00 00 00	call 12
     540:	b7 09 00 00 02 00 00 00	r9 = 2

00000000000010e8 <LBB2_33>:
     541:	bf 90 00 00 00 00 00 00	r0 = r9
     542:	95 00 00 00 00 00 00 00	exit

Disassembly of section 2/4:

0000000000000000 <tail_icmp6_handle_ns>:
       0:	bf 16 00 00 00 00 00 00	r6 = r1
       1:	61 61 34 00 00 00 00 00	r1 = *(u32 *)(r6 + 52)
       2:	7b 1a 70 ff 00 00 00 00	*(u64 *)(r10 - 144) = r1
       3:	61 67 30 00 00 00 00 00	r7 = *(u32 *)(r6 + 48)
       4:	bf 72 00 00 00 00 00 00	r2 = r7
       5:	07 02 00 00 30 00 00 00	r2 += 48
       6:	bf a3 00 00 00 00 00 00	r3 = r10
       7:	07 03 00 00 78 ff ff ff	r3 += -136
       8:	bf 61 00 00 00 00 00 00	r1 = r6
       9:	b7 04 00 00 10 00 00 00	r4 = 16
      10:	85 00 00 00 1a 00 00 00	call 26
      11:	18 09 00 00 7a ff ff ff 00 00 00 00 00 00 00 00	r9 = 4294967162 ll
      13:	67 00 00 00 20 00 00 00	r0 <<= 32
      14:	c7 00 00 00 20 00 00 00	r0 s>>= 32
      15:	c5 00 2c 01 00 00 00 00	if r0 s< 0 goto +300 <LBB3_23>
      16:	79 a8 80 ff 00 00 00 00	r8 = *(u64 *)(r10 - 128)
      17:	bf 61 00 00 00 00 00 00	r1 = r6
      18:	85 00 00 00 22 00 00 00	call 34
      19:	63 0a ec ff 00 00 00 00	*(u32 *)(r10 - 20) = r0
      20:	b7 01 00 00 02 0d 10 10	r1 = 269487362
      21:	63 1a e8 ff 00 00 00 00	*(u32 *)(r10 - 24) = r1
      22:	7b 8a f0 ff 00 00 00 00	*(u64 *)(r10 - 16) = r8
      23:	b7 01 00 00 00 00 00 00	r1 = 0
      24:	63 1a f8 ff 00 00 00 00	*(u32 *)(r10 - 8) = r1
      25:	bf a4 00 00 00 00 00 00	r4 = r10
      26:	07 04 00 00 e8 ff ff ff	r4 += -24
      27:	bf 61 00 00 00 00 00 00	r1 = r6
      28:	18 02 00 00 00 00 00 00 00 00 00 00 00 00 00 00	r2 = 0 ll
      30:	18 03 00 00 ff ff ff ff 00 00 00 00 00 00 00 00	r3 = 4294967295 ll
      32:	b7 05 00 00 14 00 00 00	r5 = 20
      33:	85 00 00 00 19 00 00 00	call 25
      34:	18 09 00 00 6a ff ff ff 00 00 00 00 00 00 00 00	r9 = 4294967146 ll
      36:	61 a1 78 ff 00 00 00 00	r1 = *(u32 *)(r10 - 136)
      37:	55 01 16 01 be ef 00 00	if r1 != 61374 goto +278 <LBB3_23>
      38:	61 a1 7c ff 00 00 00 00	r1 = *(u32 *)(r10 - 132)
      39:	55 01 14 01 00 00 00 00	if r1 != 0 goto +276 <LBB3_23>
      40:	61 a1 80 ff 00 00 00 00	r1 = *(u32 *)(r10 - 128)
      41:	55 01 12 01 00 00 00 01	if r1 != 16777216 goto +274 <LBB3_23>
      42:	61 a1 84 ff 00 00 00 00	r1 = *(u32 *)(r10 - 124)
      43:	55 01 10 01 00 01 00 00	if r1 != 256 goto +272 <LBB3_23>
      44:	b7 01 00 00 00 00 00 00	r1 = 0
      45:	7b 1a a0 ff 00 00 00 00	*(u64 *)(r10 - 96) = r1
      46:	bf 78 00 00 00 00 00 00	r8 = r7
      47:	07 08 00 00 28 00 00 00	r8 += 40
      48:	bf a3 00 00 00 00 00 00	r3 = r10
      49:	07 03 00 00 98 ff ff ff	r3 += -104
      50:	bf 61 00 00 00 00 00 00	r1 = r6
      51:	bf 82 00 00 00 00 00 00	r2 = r8
      52:	b7 04 00 00 08 00 00 00	r4 = 8
      53:	85 00 00 00 1a 00 00 00	call 26
      54:	67 00 00 00 20 00 00 00	r0 <<= 32
      55:	c7 00 00 00 20 00 00 00	r0 s>>= 32
      56:	18 09 00 00 7a ff ff ff 00 00 00 00 00 00 00 00	r9 = 4294967162 ll
      58:	c5 00 01 01 00 00 00 00	if r0 s< 0 goto +257 <LBB3_23>
      59:	b7 01 00 00 88 00 00 00	r1 = 136
      60:	6b 1a a0 ff 00 00 00 00	*(u16 *)(r10 - 96) = r1
      61:	69 a1 9a ff 00 00 00 00	r1 = *(u16 *)(r10 - 102)
      62:	6b 1a a2 ff 00 00 00 00	*(u16 *)(r10 - 94) = r1
      63:	b7 01 00 00 c0 00 00 00	r1 = 192
      64:	63 1a a4 ff 00 00 00 00	*(u32 *)(r10 - 92) = r1
      65:	bf a3 00 00 00 00 00 00	r3 = r10
      66:	07 03 00 00 a0 ff ff ff	r3 += -96
      67:	bf 61 00 00 00 00 00 00	r1 = r6
      68:	bf 82 00 00 00 00 00 00	r2 = r8
      69:	b7 04 00 00 08 00 00 00	r4 = 8
      70:	b7 05 00 00 00 00 00 00	r5 = 0
      71:	85 00 00 00 09 00 00 00	call 9
      72:	67 00 00 00 20 00 00 00	r0 <<= 32
      73:	c7 00 00 00 20 00 00 00	r0 s>>= 32
      74:	18 09 00 00 73 ff ff ff 00 00 00 00 00 00 00 00	r9 = 4294967155 ll
      76:	c5 00 ef 00 00 00 00 00	if r0 s< 0 goto +239 <LBB3_23>
      77:	bf 78 00 00 00 00 00 00	r8 = r7
      78:	07 08 00 00 2a 00 00 00	r8 += 42
      79:	bf a1 00 00 00 00 00 00	r1 = r10
      80:	07 01 00 00 98 ff ff ff	r1 += -104
      81:	bf a3 00 00 00 00 00 00	r3 = r10
      82:	07 03 00 00 a0 ff ff ff	r3 += -96
      83:	b7 02 00 00 08 00 00 00	r2 = 8
      84:	b7 04 00 00 08 00 00 00	r4 = 8
      85:	b7 05 00 00 00 00 00 00	r5 = 0
      86:	85 00 00 00 1c 00 00 00	call 28
      87:	bf 61 00 00 00 00 00 00	r1 = r6
      88:	7b 8a 68 ff 00 00 00 00	*(u64 *)(r10 - 152) = r8
      89:	bf 82 00 00 00 00 00 00	r2 = r8
      90:	b7 03 00 00 00 00 00 00	r3 = 0
      91:	bf 04 00 00 00 00 00 00	r4 = r0
      92:	b7 05 00 00 10 00 00 00	r5 = 16
      93:	85 00 00 00 0b 00 00 00	call 11
      94:	67 00 00 00 20 00 00 00	r0 <<= 32
      95:	c7 00 00 00 20 00 00 00	r0 s>>= 32
      96:	18 09 00 00 66 ff ff ff 00 00 00 00 00 00 00 00	r9 = 4294967142 ll
      98:	c5 00 d9 00 00 00 00 00	if r0 s< 0 goto +217 <LBB3_23>
      99:	bf 78 00 00 00 00 00 00	r8 = r7
     100:	07 08 00 00 40 00 00 00	r8 += 64
     101:	bf a3 00 00 00 00 00 00	r3 = r10
     102:	07 03 00 00 88 ff ff ff	r3 += -120
     103:	bf 61 00 00 00 00 00 00	r1 = r6
     104:	bf 82 00 00 00 00 00 00	r2 = r8
     105:	b7 04 00 00 08 00 00 00	r4 = 8
     106:	85 00 00 00 1a 00 00 00	call 26
     107:	67 00 00 00 20 00 00 00	r0 <<= 32
     108:	c7 00 00 00 20 00 00 00	r0 s>>= 32
     109:	18 09 00 00 7a ff ff ff 00 00 00 00 00 00 00 00	r9 = 4294967162 ll
     111:	c5 00 cc 00 00 00 00 00	if r0 s< 0 goto +204 <LBB3_23>
     112:	b7 01 00 00 01 00 00 00	r1 = 1
     113:	73 1a 91 ff 00 00 00 00	*(u8 *)(r10 - 111) = r1
     114:	b7 01 00 00 02 00 00 00	r1 = 2
     115:	73 1a 90 ff 00 00 00 00	*(u8 *)(r10 - 112) = r1
     116:	b7 01 00 00 ad 00 00 00	r1 = 173
     117:	73 1a 93 ff 00 00 00 00	*(u8 *)(r10 - 109) = r1
     118:	b7 01 00 00 be 00 00 00	r1 = 190
     119:	73 1a 94 ff 00 00 00 00	*(u8 *)(r10 - 108) = r1
     120:	b7 01 00 00 ef 00 00 00	r1 = 239
     121:	73 1a 95 ff 00 00 00 00	*(u8 *)(r10 - 107) = r1
     122:	b7 01 00 00 c0 00 00 00	r1 = 192
     123:	73 1a 96 ff 00 00 00 00	*(u8 *)(r10 - 106) = r1
     124:	b7 01 00 00 de 00 00 00	r1 = 222
     125:	73 1a 92 ff 00 00 00 00	*(u8 *)(r10 - 110) = r1
     126:	73 1a 97 ff 00 00 00 00	*(u8 *)(r10 - 105) = r1
     127:	bf a3 00 00 00 00 00 00	r3 = r10
     128:	07 03 00 00 90 ff ff ff	r3 += -112
     129:	bf 61 00 00 00 00 00 00	r1 = r6
     130:	bf 82 00 00 00 00 00 00	r2 = r8
     131:	b7 04 00 00 08 00 00 00	r4 = 8
     132:	b7 05 00 00 00 00 00 00	r5 = 0
     133:	85 00 00 00 09 00 00 00	call 9
     134:	67 00 00 00 20 00 00 00	r0 <<= 32
     135:	c7 00 00 00 20 00 00 00	r0 s>>= 32
     136:	18 09 00 00 73 ff ff ff 00 00 00 00 00 00 00 00	r9 = 4294967155 ll
     138:	c5 00 b1 00 00 00 00 00	if r0 s< 0 goto +177 <LBB3_23>
     139:	bf a1 00 00 00 00 00 00	r1 = r10
     140:	07 01 00 00 88 ff ff ff	r1 += -120
     141:	bf a3 00 00 00 00 00 00	r3 = r10
     142:	07 03 00 00 90 ff ff ff	r3 += -112
     143:	b7 02 00 00 08 00 00 00	r2 = 8
     144:	b7 04 00 00 08 00 00 00	r4 = 8
     145:	b7 05 00 00 00 00 00 00	r5 = 0
     146:	85 00 00 00 1c 00 00 00	call 28
     147:	bf 61 00 00 00 00 00 00	r1 = r6
     148:	79 a2 68 ff 00 00 00 00	r2 = *(u64 *)(r10 - 152)
     149:	b7 03 00 00 00 00 00 00	r3 = 0
     150:	bf 04 00 00 00 00 00 00	r4 = r0
     151:	b7 05 00 00 10 00 00 00	r5 = 16
     152:	85 00 00 00 0b 00 00 00	call 11
     153:	67 00 00 00 20 00 00 00	r0 <<= 32
     154:	c7 00 00 00 20 00 00 00	r0 s>>= 32
     155:	18 09 00 00 66 ff ff ff 00 00 00 00 00 00 00 00	r9 = 4294967142 ll
     157:	c5 00 9e 00 00 00 00 00	if r0 s< 0 goto +158 <LBB3_23>
     158:	18 01 00 00 de ad be ef 00 00 00 00 c0 de 00 00	r1 = 244920237338078 ll
     160:	7b 1a d8 ff 00 00 00 00	*(u64 *)(r10 - 40) = r1
     161:	bf 78 00 00 00 00 00 00	r8 = r7
     162:	07 08 00 00 08 00 00 00	r8 += 8
     163:	bf a3 00 00 00 00 00 00	r3 = r10
     164:	07 03 00 00 c8 ff ff ff	r3 += -56
     165:	bf 61 00 00 00 00 00 00	r1 = r6
     166:	bf 82 00 00 00 00 00 00	r2 = r8
     167:	b7 04 00 00 10 00 00 00	r4 = 16
     168:	85 00 00 00 1a 00 00 00	call 26
     169:	67 00 00 00 20 00 00 00	r0 <<= 32
     170:	c7 00 00 00 20 00 00 00	r0 s>>= 32
     171:	18 09 00 00 7a ff ff ff 00 00 00 00 00 00 00 00	r9 = 4294967162 ll
     173:	c5 00 8e 00 00 00 00 00	if r0 s< 0 goto +142 <LBB3_23>
     174:	07 07 00 00 18 00 00 00	r7 += 24
     175:	bf a3 00 00 00 00 00 00	r3 = r10
     176:	07 03 00 00 b8 ff ff ff	r3 += -72
     177:	bf 61 00 00 00 00 00 00	r1 = r6
     178:	bf 72 00 00 00 00 00 00	r2 = r7
     179:	b7 04 00 00 10 00 00 00	r4 = 16
     180:	85 00 00 00 1a 00 00 00	call 26
     181:	67 00 00 00 20 00 00 00	r0 <<= 32
     182:	c7 00 00 00 20 00 00 00	r0 s>>= 32
     183:	18 09 00 00 7a ff ff ff 00 00 00 00 00 00 00 00	r9 = 4294967162 ll
     185:	c5 00 82 00 00 00 00 00	if r0 s< 0 goto +130 <LBB3_23>
     186:	b7 01 00 00 be ef 00 00	r1 = 61374
     187:	7b 1a a8 ff 00 00 00 00	*(u64 *)(r10 - 88) = r1
     188:	18 01 00 00 00 00 00 01 00 00 00 00 00 01 00 00	r1 = 1099528404992 ll
     190:	7b 1a b0 ff 00 00 00 00	*(u64 *)(r10 - 80) = r1
     191:	bf a3 00 00 00 00 00 00	r3 = r10
     192:	07 03 00 00 a8 ff ff ff	r3 += -88
     193:	bf 61 00 00 00 00 00 00	r1 = r6
     194:	bf 82 00 00 00 00 00 00	r2 = r8
     195:	b7 04 00 00 10 00 00 00	r4 = 16
     196:	b7 05 00 00 00 00 00 00	r5 = 0
     197:	85 00 00 00 09 00 00 00	call 9
     198:	67 00 00 00 20 00 00 00	r0 <<= 32
     199:	c7 00 00 00 20 00 00 00	r0 s>>= 32
     200:	18 09 00 00 73 ff ff ff 00 00 00 00 00 00 00 00	r9 = 4294967155 ll
     202:	c5 00 71 00 00 00 00 00	if r0 s< 0 goto +113 <LBB3_23>
     203:	bf a3 00 00 00 00 00 00	r3 = r10
     204:	07 03 00 00 c8 ff ff ff	r3 += -56
     205:	bf 61 00 00 00 00 00 00	r1 = r6
     206:	bf 72 00 00 00 00 00 00	r2 = r7
     207:	b7 04 00 00 10 00 00 00	r4 = 16
     208:	b7 05 00 00 00 00 00 00	r5 = 0
     209:	85 00 00 00 09 00 00 00	call 9
     210:	67 00 00 00 20 00 00 00	r0 <<= 32
     211:	c7 00 00 00 20 00 00 00	r0 s>>= 32
     212:	18 09 00 00 73 ff ff ff 00 00 00 00 00 00 00 00	r9 = 4294967155 ll
     214:	c5 00 65 00 00 00 00 00	if r0 s< 0 goto +101 <LBB3_23>
     215:	bf a1 00 00 00 00 00 00	r1 = r10
     216:	07 01 00 00 c8 ff ff ff	r1 += -56
     217:	bf a3 00 00 00 00 00 00	r3 = r10
     218:	07 03 00 00 a8 ff ff ff	r3 += -88
     219:	b7 02 00 00 10 00 00 00	r2 = 16
     220:	b7 04 00 00 10 00 00 00	r4 = 16
     221:	b7 05 00 00 00 00 00 00	r5 = 0
     222:	85 00 00 00 1c 00 00 00	call 28
     223:	bf 61 00 00 00 00 00 00	r1 = r6
     224:	79 a2 68 ff 00 00 00 00	r2 = *(u64 *)(r10 - 152)
     225:	b7 03 00 00 00 00 00 00	r3 = 0
     226:	bf 04 00 00 00 00 00 00	r4 = r0
     227:	b7 05 00 00 10 00 00 00	r5 = 16
     228:	85 00 00 00 0b 00 00 00	call 11
     229:	18 09 00 00 66 ff ff ff 00 00 00 00 00 00 00 00	r9 = 4294967142 ll
     231:	67 00 00 00 20 00 00 00	r0 <<= 32
     232:	c7 00 00 00 20 00 00 00	r0 s>>= 32
     233:	c5 00 52 00 00 00 00 00	if r0 s< 0 goto +82 <LBB3_23>
     234:	bf a1 00 00 00 00 00 00	r1 = r10
     235:	07 01 00 00 b8 ff ff ff	r1 += -72
     236:	bf a3 00 00 00 00 00 00	r3 = r10
     237:	07 03 00 00 c8 ff ff ff	r3 += -56
     238:	b7 02 00 00 10 00 00 00	r2 = 16
     239:	b7 04 00 00 10 00 00 00	r4 = 16
     240:	b7 05 00 00 00 00 00 00	r5 = 0
     241:	85 00 00 00 1c 00 00 00	call 28
     242:	bf 61 00 00 00 00 00 00	r1 = r6
     243:	79 a2 68 ff 00 00 00 00	r2 = *(u64 *)(r10 - 152)
     244:	b7 03 00 00 00 00 00 00	r3 = 0
     245:	bf 04 00 00 00 00 00 00	r4 = r0
     246:	b7 05 00 00 10 00 00 00	r5 = 16
     247:	85 00 00 00 0b 00 00 00	call 11
     248:	67 00 00 00 20 00 00 00	r0 <<= 32
     249:	c7 00 00 00 20 00 00 00	r0 s>>= 32
     250:	c5 00 41 00 00 00 00 00	if r0 s< 0 goto +65 <LBB3_23>
     251:	bf a3 00 00 00 00 00 00	r3 = r10
     252:	07 03 00 00 e0 ff ff ff	r3 += -32
     253:	bf 61 00 00 00 00 00 00	r1 = r6
     254:	b7 02 00 00 06 00 00 00	r2 = 6
     255:	b7 04 00 00 06 00 00 00	r4 = 6
     256:	85 00 00 00 1a 00 00 00	call 26
     257:	67 00 00 00 20 00 00 00	r0 <<= 32
     258:	c7 00 00 00 20 00 00 00	r0 s>>= 32
     259:	18 09 00 00 7a ff ff ff 00 00 00 00 00 00 00 00	r9 = 4294967162 ll
     261:	c5 00 36 00 00 00 00 00	if r0 s< 0 goto +54 <LBB3_23>
     262:	bf a3 00 00 00 00 00 00	r3 = r10
     263:	07 03 00 00 e0 ff ff ff	r3 += -32
     264:	bf 61 00 00 00 00 00 00	r1 = r6
     265:	b7 02 00 00 00 00 00 00	r2 = 0
     266:	b7 04 00 00 06 00 00 00	r4 = 6
     267:	b7 05 00 00 00 00 00 00	r5 = 0
     268:	85 00 00 00 09 00 00 00	call 9
     269:	67 00 00 00 20 00 00 00	r0 <<= 32
     270:	c7 00 00 00 20 00 00 00	r0 s>>= 32
     271:	18 09 00 00 73 ff ff ff 00 00 00 00 00 00 00 00	r9 = 4294967155 ll
     273:	c5 00 2a 00 00 00 00 00	if r0 s< 0 goto +42 <LBB3_23>
     274:	bf a3 00 00 00 00 00 00	r3 = r10
     275:	07 03 00 00 d8 ff ff ff	r3 += -40
     276:	bf 61 00 00 00 00 00 00	r1 = r6
     277:	b7 02 00 00 06 00 00 00	r2 = 6
     278:	b7 04 00 00 06 00 00 00	r4 = 6
     279:	b7 05 00 00 00 00 00 00	r5 = 0
     280:	85 00 00 00 09 00 00 00	call 9
     281:	67 00 00 00 20 00 00 00	r0 <<= 32
     282:	c7 00 00 00 20 00 00 00	r0 s>>= 32
     283:	18 09 00 00 73 ff ff ff 00 00 00 00 00 00 00 00	r9 = 4294967155 ll
     285:	c5 00 1e 00 00 00 00 00	if r0 s< 0 goto +30 <LBB3_23>
     286:	61 67 00 00 00 00 00 00	r7 = *(u32 *)(r6 + 0)
     287:	61 68 28 00 00 00 00 00	r8 = *(u32 *)(r6 + 40)
     288:	bf 61 00 00 00 00 00 00	r1 = r6
     289:	85 00 00 00 22 00 00 00	call 34
     290:	63 0a ec ff 00 00 00 00	*(u32 *)(r10 - 20) = r0
     291:	b7 01 00 00 03 04 10 10	r1 = 269485059
     292:	63 1a e8 ff 00 00 00 00	*(u32 *)(r10 - 24) = r1
     293:	63 8a f8 ff 00 00 00 00	*(u32 *)(r10 - 8) = r8
     294:	63 7a f0 ff 00 00 00 00	*(u32 *)(r10 - 16) = r7
     295:	a5 07 01 00 80 00 00 00	if r7 < 128 goto +1 <LBB3_22>
     296:	b7 07 00 00 80 00 00 00	r7 = 128

0000000000000948 <LBB3_22>:
     297:	63 7a f4 ff 00 00 00 00	*(u32 *)(r10 - 12) = r7
     298:	67 07 00 00 20 00 00 00	r7 <<= 32
     299:	18 01 00 00 ff ff ff ff 00 00 00 00 00 00 00 00	r1 = 4294967295 ll
     301:	4f 17 00 00 00 00 00 00	r7 |= r1
     302:	b7 01 00 00 00 00 00 00	r1 = 0
     303:	63 1a fc ff 00 00 00 00	*(u32 *)(r10 - 4) = r1
     304:	bf a4 00 00 00 00 00 00	r4 = r10
     305:	07 04 00 00 e8 ff ff ff	r4 += -24
     306:	bf 61 00 00 00 00 00 00	r1 = r6
     307:	18 02 00 00 00 00 00 00 00 00 00 00 00 00 00 00	r2 = 0 ll
     309:	bf 73 00 00 00 00 00 00	r3 = r7
     310:	b7 05 00 00 18 00 00 00	r5 = 24
     311:	85 00 00 00 19 00 00 00	call 25
     312:	61 61 28 00 00 00 00 00	r1 = *(u32 *)(r6 + 40)
     313:	b7 02 00 00 00 00 00 00	r2 = 0
     314:	85 00 00 00 17 00 00 00	call 23
     315:	bf 09 00 00 00 00 00 00	r9 = r0

00000000000009e0 <LBB3_23>:
     316:	bf 91 00 00 00 00 00 00	r1 = r9
     317:	67 01 00 00 20 00 00 00	r1 <<= 32
     318:	77 01 00 00 20 00 00 00	r1 >>= 32
     319:	b7 02 00 00 01 00 00 00	r2 = 1
     320:	15 01 01 00 02 00 00 00	if r1 == 2 goto +1 <LBB3_25>
     321:	b7 02 00 00 00 00 00 00	r2 = 0

0000000000000a10 <LBB3_25>:
     322:	77 01 00 00 1f 00 00 00	r1 >>= 31
     323:	4f 21 00 00 00 00 00 00	r1 |= r2
     324:	15 01 2e 00 00 00 00 00	if r1 == 0 goto +46 <LBB3_30>
     325:	b7 01 00 00 02 00 00 00	r1 = 2
     326:	63 16 30 00 00 00 00 00	*(u32 *)(r6 + 48) = r1
     327:	b7 01 00 00 00 00 00 00	r1 = 0
     328:	63 16 34 00 00 00 00 00	*(u32 *)(r6 + 52) = r1
     329:	63 96 38 00 00 00 00 00	*(u32 *)(r6 + 56) = r9
     330:	63 16 3c 00 00 00 00 00	*(u32 *)(r6 + 60) = r1
     331:	63 16 40 00 00 00 00 00	*(u32 *)(r6 + 64) = r1
     332:	61 67 00 00 00 00 00 00	r7 = *(u32 *)(r6 + 0)
     333:	7b 1a f0 ff 00 00 00 00	*(u64 *)(r10 - 16) = r1
     334:	7b 1a e8 ff 00 00 00 00	*(u64 *)(r10 - 24) = r1
     335:	7b 1a c8 ff 00 00 00 00	*(u64 *)(r10 - 56) = r1
     336:	79 a1 70 ff 00 00 00 00	r1 = *(u64 *)(r10 - 144)
     337:	57 01 00 00 03 00 00 00	r1 &= 3
     338:	73 1a c9 ff 00 00 00 00	*(u8 *)(r10 - 55) = r1
     339:	87 09 00 00 00 00 00 00	r9 = -r9
     340:	73 9a c8 ff 00 00 00 00	*(u8 *)(r10 - 56) = r9
     341:	bf a2 00 00 00 00 00 00	r2 = r10
     342:	07 02 00 00 c8 ff ff ff	r2 += -56
     343:	18 01 00 00 00 00 00 00 00 00 00 00 00 00 00 00	r1 = 0 ll
     345:	85 00 00 00 01 00 00 00	call 1
     346:	15 00 07 00 00 00 00 00	if r0 == 0 goto +7 <LBB3_28>
     347:	79 01 00 00 00 00 00 00	r1 = *(u64 *)(r0 + 0)
     348:	07 01 00 00 01 00 00 00	r1 += 1
     349:	7b 10 00 00 00 00 00 00	*(u64 *)(r0 + 0) = r1
     350:	79 01 08 00 00 00 00 00	r1 = *(u64 *)(r0 + 8)
     351:	0f 71 00 00 00 00 00 00	r1 += r7
     352:	7b 10 08 00 00 00 00 00	*(u64 *)(r0 + 8) = r1
     353:	05 00 0b 00 00 00 00 00	goto +11 <LBB3_29>

0000000000000b10 <LBB3_28>:
     354:	7b 7a f0 ff 00 00 00 00	*(u64 *)(r10 - 16) = r7
     355:	b7 01 00 00 01 00 00 00	r1 = 1
     356:	7b 1a e8 ff 00 00 00 00	*(u64 *)(r10 - 24) = r1
     357:	bf a2 00 00 00 00 00 00	r2 = r10
     358:	07 02 00 00 c8 ff ff ff	r2 += -56
     359:	bf a3 00 00 00 00 00 00	r3 = r10
     360:	07 03 00 00 e8 ff ff ff	r3 += -24
     361:	18 01 00 00 00 00 00 00 00 00 00 00 00 00 00 00	r1 = 0 ll
     363:	b7 04 00 00 00 00 00 00	r4 = 0
     364:	85 00 00 00 02 00 00 00	call 2

0000000000000b68 <LBB3_29>:
     365:	bf 61 00 00 00 00 00 00	r1 = r6
     366:	18 02 00 00 00 00 00 00 00 00 00 00 00 00 00 00	r2 = 0 ll
     368:	b7 03 00 00 01 00 00 00	r3 = 1
     369:	85 00 00 00 0c 00 00 00	call 12
     370:	b7 09 00 00 02 00 00 00	r9 = 2

0000000000000b98 <LBB3_30>:
     371:	bf 90 00 00 00 00 00 00	r0 = r9
     372:	95 00 00 00 00 00 00 00	exit

Disassembly of section 2/10:

0000000000000000 <tail_handle_ipv6>:
       0:	bf 16 00 00 00 00 00 00	r6 = r1
       1:	18 07 00 00 7a ff ff ff 00 00 00 00 00 00 00 00	r7 = 4294967162 ll
       3:	b7 01 00 00 00 00 00 00	r1 = 0
       4:	6b 1a 3c ff 00 00 00 00	*(u16 *)(r10 - 196) = r1
       5:	63 1a 38 ff 00 00 00 00	*(u32 *)(r10 - 200) = r1
       6:	7b 1a 30 ff 00 00 00 00	*(u64 *)(r10 - 208) = r1
       7:	7b 1a 28 ff 00 00 00 00	*(u64 *)(r10 - 216) = r1
       8:	7b 1a 20 ff 00 00 00 00	*(u64 *)(r10 - 224) = r1
       9:	7b 1a 18 ff 00 00 00 00	*(u64 *)(r10 - 232) = r1
      10:	61 62 50 00 00 00 00 00	r2 = *(u32 *)(r6 + 80)
      11:	61 68 4c 00 00 00 00 00	r8 = *(u32 *)(r6 + 76)
      12:	bf 81 00 00 00 00 00 00	r1 = r8
      13:	07 01 00 00 36 00 00 00	r1 += 54
      14:	b7 09 00 00 00 00 00 00	r9 = 0
      15:	2d 21 18 0c 00 00 00 00	if r1 > r2 goto +3096 <LBB4_387>
      16:	71 81 14 00 00 00 00 00	r1 = *(u8 *)(r8 + 20)
      17:	55 01 3a 00 3a 00 00 00	if r1 != 58 goto +58 <LBB4_13>
      18:	bf 81 00 00 00 00 00 00	r1 = r8
      19:	07 01 00 00 3e 00 00 00	r1 += 62
      20:	b7 09 00 00 00 00 00 00	r9 = 0
      21:	2d 21 12 0c 00 00 00 00	if r1 > r2 goto +3090 <LBB4_387>
      22:	30 00 00 00 36 00 00 00	r0 = *(u8 *)skb[54]
      23:	bf 07 00 00 00 00 00 00	r7 = r0
      24:	bf 61 00 00 00 00 00 00	r1 = r6
      25:	85 00 00 00 22 00 00 00	call 34
      26:	63 0a a4 ff 00 00 00 00	*(u32 *)(r10 - 92) = r0
      27:	b7 01 00 00 02 0b 10 10	r1 = 269486850
      28:	63 1a a0 ff 00 00 00 00	*(u32 *)(r10 - 96) = r1
      29:	b7 01 00 00 00 00 00 00	r1 = 0
      30:	63 1a ac ff 00 00 00 00	*(u32 *)(r10 - 84) = r1
      31:	63 1a b0 ff 00 00 00 00	*(u32 *)(r10 - 80) = r1
      32:	57 07 00 00 ff 00 00 00	r7 &= 255
      33:	63 7a a8 ff 00 00 00 00	*(u32 *)(r10 - 88) = r7
      34:	bf a4 00 00 00 00 00 00	r4 = r10
      35:	07 04 00 00 a0 ff ff ff	r4 += -96
      36:	bf 61 00 00 00 00 00 00	r1 = r6
      37:	18 02 00 00 00 00 00 00 00 00 00 00 00 00 00 00	r2 = 0 ll
      39:	18 03 00 00 ff ff ff ff 00 00 00 00 00 00 00 00	r3 = 4294967295 ll
      41:	b7 05 00 00 14 00 00 00	r5 = 20
      42:	85 00 00 00 19 00 00 00	call 25
      43:	15 07 0e 00 80 00 00 00	if r7 == 128 goto +14 <LBB4_7>
      44:	55 07 1e 00 87 00 00 00	if r7 != 135 goto +30 <LBB4_12>
      45:	b7 01 00 00 02 00 00 00	r1 = 2
      46:	63 16 34 00 00 00 00 00	*(u32 *)(r6 + 52) = r1
      47:	b7 01 00 00 0e 00 00 00	r1 = 14
      48:	63 16 30 00 00 00 00 00	*(u32 *)(r6 + 48) = r1
      49:	bf 61 00 00 00 00 00 00	r1 = r6
      50:	18 02 00 00 00 00 00 00 00 00 00 00 00 00 00 00	r2 = 0 ll
      52:	b7 03 00 00 04 00 00 00	r3 = 4

00000000000001a8 <LBB4_6>:
      53:	85 00 00 00 0c 00 00 00	call 12
      54:	18 07 00 00 74 ff ff ff 00 00 00 00 00 00 00 00	r7 = 4294967156 ll
      56:	b7 09 00 00 00 00 00 00	r9 = 0
      57:	05 00 ee 0b 00 00 00 00	goto +3054 <LBB4_387>

00000000000001d0 <LBB4_7>:
      58:	61 81 26 00 00 00 00 00	r1 = *(u32 *)(r8 + 38)
      59:	55 01 0f 00 be ef 00 00	if r1 != 61374 goto +15 <LBB4_12>
      60:	61 81 2a 00 00 00 00 00	r1 = *(u32 *)(r8 + 42)
      61:	55 01 0d 00 00 00 00 00	if r1 != 0 goto +13 <LBB4_12>
      62:	61 81 2e 00 00 00 00 00	r1 = *(u32 *)(r8 + 46)
      63:	55 01 0b 00 00 00 00 01	if r1 != 16777216 goto +11 <LBB4_12>
      64:	61 81 32 00 00 00 00 00	r1 = *(u32 *)(r8 + 50)
      65:	55 01 09 00 00 01 00 00	if r1 != 256 goto +9 <LBB4_12>
      66:	b7 01 00 00 02 00 00 00	r1 = 2
      67:	63 16 34 00 00 00 00 00	*(u32 *)(r6 + 52) = r1
      68:	b7 01 00 00 0e 00 00 00	r1 = 14
      69:	63 16 30 00 00 00 00 00	*(u32 *)(r6 + 48) = r1
      70:	bf 61 00 00 00 00 00 00	r1 = r6
      71:	18 02 00 00 00 00 00 00 00 00 00 00 00 00 00 00	r2 = 0 ll
      73:	b7 03 00 00 03 00 00 00	r3 = 3
      74:	05 00 ea ff 00 00 00 00	goto -22 <LBB4_6>

0000000000000258 <LBB4_12>:
      75:	71 81 14 00 00 00 00 00	r1 = *(u8 *)(r8 + 20)

0000000000000260 <LBB4_13>:
      76:	73 1a 3c ff 00 00 00 00	*(u8 *)(r10 - 196) = r1
      77:	18 02 00 00 de ad be ef 00 00 00 00 c0 de 00 00	r2 = 244920237338078 ll
      79:	7b 2a 70 ff 00 00 00 00	*(u64 *)(r10 - 144) = r2
      80:	18 07 00 00 7e ff ff ff 00 00 00 00 00 00 00 00	r7 = 4294967166 ll
      82:	b7 09 00 00 00 00 00 00	r9 = 0
      83:	63 9a 68 ff 00 00 00 00	*(u32 *)(r10 - 152) = r9
      84:	7b 9a 60 ff 00 00 00 00	*(u64 *)(r10 - 160) = r9
      85:	7b 9a 58 ff 00 00 00 00	*(u64 *)(r10 - 168) = r9
      86:	61 82 06 00 00 00 00 00	r2 = *(u32 *)(r8 + 6)
      87:	18 03 00 00 aa bb cc dd 00 00 00 00 00 00 00 00	r3 = 3721182122 ll
      89:	5d 32 ce 0b 00 00 00 00	if r2 != r3 goto +3022 <LBB4_387>
      90:	69 82 0a 00 00 00 00 00	r2 = *(u16 *)(r8 + 10)
      91:	55 02 cc 0b ee ff 00 00	if r2 != 65518 goto +3020 <LBB4_387>
      92:	18 07 00 00 7d ff ff ff 00 00 00 00 00 00 00 00	r7 = 4294967165 ll
      94:	61 82 00 00 00 00 00 00	r2 = *(u32 *)(r8 + 0)
      95:	18 03 00 00 de ad be ef 00 00 00 00 00 00 00 00	r3 = 4022250974 ll
      97:	5d 32 c6 0b 00 00 00 00	if r2 != r3 goto +3014 <LBB4_387>
      98:	69 82 04 00 00 00 00 00	r2 = *(u16 *)(r8 + 4)
      99:	55 02 c4 0b c0 de 00 00	if r2 != 57024 goto +3012 <LBB4_387>
     100:	18 07 00 00 7c ff ff ff 00 00 00 00 00 00 00 00	r7 = 4294967164 ll
     102:	61 82 16 00 00 00 00 00	r2 = *(u32 *)(r8 + 22)
     103:	55 02 c0 0b be ef 00 00	if r2 != 61374 goto +3008 <LBB4_387>
     104:	61 82 1a 00 00 00 00 00	r2 = *(u32 *)(r8 + 26)
     105:	55 02 be 0b 00 00 00 00	if r2 != 0 goto +3006 <LBB4_387>
     106:	61 82 1e 00 00 00 00 00	r2 = *(u32 *)(r8 + 30)
     107:	55 02 bc 0b 00 00 00 01	if r2 != 16777216 goto +3004 <LBB4_387>
     108:	61 82 22 00 00 00 00 00	r2 = *(u32 *)(r8 + 34)
     109:	18 03 00 00 01 65 82 bc 00 00 00 00 00 00 00 00	r3 = 3162662145 ll
     111:	5d 32 b8 0b 00 00 00 00	if r2 != r3 goto +3000 <LBB4_387>
     112:	61 82 26 00 00 00 00 00	r2 = *(u32 *)(r8 + 38)
     113:	63 2a 18 ff 00 00 00 00	*(u32 *)(r10 - 232) = r2
     114:	61 82 2a 00 00 00 00 00	r2 = *(u32 *)(r8 + 42)
     115:	63 2a 1c ff 00 00 00 00	*(u32 *)(r10 - 228) = r2
     116:	61 82 2e 00 00 00 00 00	r2 = *(u32 *)(r8 + 46)
     117:	63 2a 20 ff 00 00 00 00	*(u32 *)(r10 - 224) = r2
     118:	61 82 32 00 00 00 00 00	r2 = *(u32 *)(r8 + 50)
     119:	63 2a 24 ff 00 00 00 00	*(u32 *)(r10 - 220) = r2
     120:	b7 02 00 00 be ef 00 00	r2 = 61374
     121:	7b 2a 28 ff 00 00 00 00	*(u64 *)(r10 - 216) = r2
     122:	18 02 00 00 00 00 00 01 00 00 00 00 01 65 82 bc	r2 = -4863213592620564480 ll
     124:	7b 2a 30 ff 00 00 00 00	*(u64 *)(r10 - 208) = r2
     125:	b7 05 00 00 28 00 00 00	r5 = 40
     126:	bf 12 00 00 00 00 00 00	r2 = r1
     127:	57 02 00 00 ff 00 00 00	r2 &= 255
     128:	25 02 6a 00 3c 00 00 00	if r2 > 60 goto +106 <LBB4_46>
     129:	b7 03 00 00 01 00 00 00	r3 = 1
     130:	6f 23 00 00 00 00 00 00	r3 <<= r2
     131:	18 04 00 00 01 00 00 00 00 00 00 00 00 08 08 10	r4 = 1155182100513554433 ll
     133:	5f 43 00 00 00 00 00 00	r3 &= r4
     134:	55 03 05 00 00 00 00 00	if r3 != 0 goto +5 <LBB4_25>
     135:	15 02 74 00 2c 00 00 00	if r2 == 44 goto +116 <LBB4_49>
     136:	18 07 00 00 64 ff ff ff 00 00 00 00 00 00 00 00	r7 = 4294967140 ll
     138:	15 02 9d 0b 3b 00 00 00	if r2 == 59 goto +2973 <LBB4_387>
     139:	05 00 5f 00 00 00 00 00	goto +95 <LBB4_46>

0000000000000460 <LBB4_25>:
     140:	bf a3 00 00 00 00 00 00	r3 = r10
     141:	07 03 00 00 a0 ff ff ff	r3 += -96
     142:	b7 08 00 00 02 00 00 00	r8 = 2
     143:	bf 61 00 00 00 00 00 00	r1 = r6
     144:	b7 02 00 00 36 00 00 00	r2 = 54
     145:	b7 04 00 00 02 00 00 00	r4 = 2
     146:	85 00 00 00 1a 00 00 00	call 26
     147:	18 07 00 00 7a ff ff ff 00 00 00 00 00 00 00 00	r7 = 4294967162 ll
     149:	67 00 00 00 20 00 00 00	r0 <<= 32
     150:	c7 00 00 00 20 00 00 00	r0 s>>= 32
     151:	c5 00 90 0b 00 00 00 00	if r0 s< 0 goto +2960 <LBB4_387>
     152:	71 a1 a0 ff 00 00 00 00	r1 = *(u8 *)(r10 - 96)
     153:	15 01 01 00 33 00 00 00	if r1 == 51 goto +1 <LBB4_28>
     154:	b7 08 00 00 03 00 00 00	r8 = 3

00000000000004d8 <LBB4_28>:
     155:	71 a4 a1 ff 00 00 00 00	r4 = *(u8 *)(r10 - 95)
     156:	6f 84 00 00 00 00 00 00	r4 <<= r8
     157:	bf 45 00 00 00 00 00 00	r5 = r4
     158:	07 05 00 00 30 00 00 00	r5 += 48
     159:	25 01 4b 00 3c 00 00 00	if r1 > 60 goto +75 <LBB4_46>
     160:	b7 02 00 00 01 00 00 00	r2 = 1
     161:	6f 12 00 00 00 00 00 00	r2 <<= r1
     162:	18 03 00 00 01 00 00 00 00 00 00 00 00 08 08 10	r3 = 1155182100513554433 ll
     164:	5f 32 00 00 00 00 00 00	r2 &= r3
     165:	55 02 05 00 00 00 00 00	if r2 != 0 goto +5 <LBB4_32>
     166:	15 01 55 00 2c 00 00 00	if r1 == 44 goto +85 <LBB4_49>
     167:	18 07 00 00 64 ff ff ff 00 00 00 00 00 00 00 00	r7 = 4294967140 ll
     169:	15 01 7e 0b 3b 00 00 00	if r1 == 59 goto +2942 <LBB4_387>
     170:	05 00 40 00 00 00 00 00	goto +64 <LBB4_46>

0000000000000558 <LBB4_32>:
     171:	bf 42 00 00 00 00 00 00	r2 = r4
     172:	07 02 00 00 3e 00 00 00	r2 += 62
     173:	bf a3 00 00 00 00 00 00	r3 = r10
     174:	07 03 00 00 a0 ff ff ff	r3 += -96
     175:	bf 61 00 00 00 00 00 00	r1 = r6
     176:	bf 48 00 00 00 00 00 00	r8 = r4
     177:	b7 04 00 00 02 00 00 00	r4 = 2
     178:	85 00 00 00 1a 00 00 00	call 26
     179:	67 00 00 00 20 00 00 00	r0 <<= 32
     180:	c7 00 00 00 20 00 00 00	r0 s>>= 32
     181:	c5 00 72 0b 00 00 00 00	if r0 s< 0 goto +2930 <LBB4_387>
     182:	71 a1 a0 ff 00 00 00 00	r1 = *(u8 *)(r10 - 96)
     183:	b7 03 00 00 02 00 00 00	r3 = 2
     184:	15 01 01 00 33 00 00 00	if r1 == 51 goto +1 <LBB4_35>
     185:	b7 03 00 00 03 00 00 00	r3 = 3

00000000000005d0 <LBB4_35>:
     186:	71 a2 a1 ff 00 00 00 00	r2 = *(u8 *)(r10 - 95)
     187:	6f 32 00 00 00 00 00 00	r2 <<= r3
     188:	0f 28 00 00 00 00 00 00	r8 += r2
     189:	07 08 00 00 38 00 00 00	r8 += 56
     190:	bf 85 00 00 00 00 00 00	r5 = r8
     191:	25 01 2b 00 3c 00 00 00	if r1 > 60 goto +43 <LBB4_46>
     192:	b7 02 00 00 01 00 00 00	r2 = 1
     193:	6f 12 00 00 00 00 00 00	r2 <<= r1
     194:	18 03 00 00 01 00 00 00 00 00 00 00 00 08 08 10	r3 = 1155182100513554433 ll
     196:	5f 32 00 00 00 00 00 00	r2 &= r3
     197:	55 02 06 00 00 00 00 00	if r2 != 0 goto +6 <LBB4_39>
     198:	15 01 35 00 2c 00 00 00	if r1 == 44 goto +53 <LBB4_49>
     199:	18 07 00 00 64 ff ff ff 00 00 00 00 00 00 00 00	r7 = 4294967140 ll
     201:	bf 85 00 00 00 00 00 00	r5 = r8
     202:	15 01 5d 0b 3b 00 00 00	if r1 == 59 goto +2909 <LBB4_387>
     203:	05 00 1f 00 00 00 00 00	goto +31 <LBB4_46>

0000000000000660 <LBB4_39>:
     204:	bf 82 00 00 00 00 00 00	r2 = r8
     205:	07 02 00 00 0e 00 00 00	r2 += 14
     206:	bf a3 00 00 00 00 00 00	r3 = r10
     207:	07 03 00 00 a0 ff ff ff	r3 += -96
     208:	bf 61 00 00 00 00 00 00	r1 = r6
     209:	b7 04 00 00 02 00 00 00	r4 = 2
     210:	85 00 00 00 1a 00 00 00	call 26
     211:	67 00 00 00 20 00 00 00	r0 <<= 32
     212:	c7 00 00 00 20 00 00 00	r0 s>>= 32
     213:	c5 00 52 0b 00 00 00 00	if r0 s< 0 goto +2898 <LBB4_387>
     214:	71 a1 a0 ff 00 00 00 00	r1 = *(u8 *)(r10 - 96)
     215:	b7 04 00 00 02 00 00 00	r4 = 2
     216:	15 01 01 00 33 00 00 00	if r1 == 51 goto +1 <LBB4_42>
     217:	b7 04 00 00 03 00 00 00	r4 = 3

00000000000006d0 <LBB4_42>:
     218:	71 a3 a1 ff 00 00 00 00	r3 = *(u8 *)(r10 - 95)
     219:	6f 43 00 00 00 00 00 00	r3 <<= r4
     220:	0f 38 00 00 00 00 00 00	r8 += r3
     221:	07 08 00 00 08 00 00 00	r8 += 8
     222:	bf 85 00 00 00 00 00 00	r5 = r8
     223:	25 01 0b 00 3c 00 00 00	if r1 > 60 goto +11 <LBB4_46>
     224:	b7 04 00 00 01 00 00 00	r4 = 1
     225:	6f 14 00 00 00 00 00 00	r4 <<= r1
     226:	18 03 00 00 01 00 00 00 00 00 00 00 00 08 08 10	r3 = 1155182100513554433 ll
     228:	5f 34 00 00 00 00 00 00	r4 &= r3
     229:	55 04 f7 00 00 00 00 00	if r4 != 0 goto +247 <LBB4_82>
     230:	15 01 15 00 2c 00 00 00	if r1 == 44 goto +21 <LBB4_49>
     231:	18 07 00 00 64 ff ff ff 00 00 00 00 00 00 00 00	r7 = 4294967140 ll
     233:	bf 85 00 00 00 00 00 00	r5 = r8
     234:	15 01 3d 0b 3b 00 00 00	if r1 == 59 goto +2877 <LBB4_387>

0000000000000758 <LBB4_46>:
     235:	73 1a 3c ff 00 00 00 00	*(u8 *)(r10 - 196) = r1
     236:	79 a2 18 ff 00 00 00 00	r2 = *(u64 *)(r10 - 232)
     237:	7b 2a 58 ff 00 00 00 00	*(u64 *)(r10 - 168) = r2
     238:	79 a2 20 ff 00 00 00 00	r2 = *(u64 *)(r10 - 224)
     239:	7b 2a 60 ff 00 00 00 00	*(u64 *)(r10 - 160) = r2
     240:	18 07 00 00 72 ff ff ff 00 00 00 00 00 00 00 00	r7 = 4294967154 ll
     242:	b7 09 00 00 00 00 00 00	r9 = 0
     243:	57 01 00 00 ff 00 00 00	r1 &= 255
     244:	7b 5a 10 ff 00 00 00 00	*(u64 *)(r10 - 240) = r5
     245:	65 01 09 00 10 00 00 00	if r1 s> 16 goto +9 <LBB4_50>
     246:	b7 08 00 00 00 00 00 00	r8 = 0
     247:	15 01 1f 00 01 00 00 00	if r1 == 1 goto +31 <LBB4_56>
     248:	b7 08 00 00 10 00 00 00	r8 = 16
     249:	b7 02 00 00 00 00 00 00	r2 = 0
     250:	15 01 09 00 06 00 00 00	if r1 == 6 goto +9 <LBB4_53>
     251:	05 00 1d 00 00 00 00 00	goto +29 <LBB4_57>

00000000000007e0 <LBB4_49>:
     252:	18 07 00 00 63 ff ff ff 00 00 00 00 00 00 00 00	r7 = 4294967139 ll
     254:	05 00 29 0b 00 00 00 00	goto +2857 <LBB4_387>

00000000000007f8 <LBB4_50>:
     255:	15 01 b7 00 3a 00 00 00	if r1 == 58 goto +183 <LBB4_78>
     256:	b7 02 00 00 00 00 00 00	r2 = 0
     257:	55 01 17 00 11 00 00 00	if r1 != 17 goto +23 <LBB4_57>
     258:	b7 09 00 00 20 00 00 00	r9 = 32
     259:	b7 08 00 00 06 00 00 00	r8 = 6

0000000000000820 <LBB4_53>:
     260:	bf 52 00 00 00 00 00 00	r2 = r5
     261:	07 02 00 00 10 00 00 00	r2 += 16
     262:	bf a3 00 00 00 00 00 00	r3 = r10
     263:	07 03 00 00 68 ff ff ff	r3 += -152
     264:	bf 61 00 00 00 00 00 00	r1 = r6
     265:	b7 04 00 00 02 00 00 00	r4 = 2
     266:	85 00 00 00 1a 00 00 00	call 26
     267:	bf 07 00 00 00 00 00 00	r7 = r0
     268:	bf 71 00 00 00 00 00 00	r1 = r7
     269:	67 01 00 00 20 00 00 00	r1 <<= 32
     270:	77 01 00 00 20 00 00 00	r1 >>= 32
     271:	b7 02 00 00 01 00 00 00	r2 = 1
     272:	15 01 01 00 02 00 00 00	if r1 == 2 goto +1 <LBB4_55>
     273:	b7 02 00 00 00 00 00 00	r2 = 0

0000000000000890 <LBB4_55>:
     274:	77 01 00 00 1f 00 00 00	r1 >>= 31
     275:	4f 21 00 00 00 00 00 00	r1 |= r2
     276:	bf 82 00 00 00 00 00 00	r2 = r8
     277:	79 a5 10 ff 00 00 00 00	r5 = *(u64 *)(r10 - 240)
     278:	55 01 02 00 00 00 00 00	if r1 != 0 goto +2 <LBB4_57>

00000000000008b8 <LBB4_56>:
     279:	b7 07 00 00 00 00 00 00	r7 = 0
     280:	bf 82 00 00 00 00 00 00	r2 = r8

00000000000008c8 <LBB4_57>:
     281:	7b 2a e0 fe 00 00 00 00	*(u64 *)(r10 - 288) = r2
     282:	bf 71 00 00 00 00 00 00	r1 = r7
     283:	67 01 00 00 20 00 00 00	r1 <<= 32
     284:	77 01 00 00 20 00 00 00	r1 >>= 32
     285:	b7 02 00 00 01 00 00 00	r2 = 1
     286:	15 01 01 00 02 00 00 00	if r1 == 2 goto +1 <LBB4_59>
     287:	b7 02 00 00 00 00 00 00	r2 = 0

0000000000000900 <LBB4_59>:
     288:	bf 53 00 00 00 00 00 00	r3 = r5
     289:	07 03 00 00 0e 00 00 00	r3 += 14
     290:	7b 3a 08 ff 00 00 00 00	*(u64 *)(r10 - 248) = r3
     291:	77 01 00 00 1f 00 00 00	r1 >>= 31
     292:	4f 21 00 00 00 00 00 00	r1 |= r2
     293:	7b 9a e8 fe 00 00 00 00	*(u64 *)(r10 - 280) = r9
     294:	15 01 0e 00 00 00 00 00	if r1 == 0 goto +14 <LBB4_61>
     295:	b7 01 00 00 00 00 00 00	r1 = 0
     296:	7b 1a d0 fe 00 00 00 00	*(u64 *)(r10 - 304) = r1
     297:	bf 71 00 00 00 00 00 00	r1 = r7
     298:	67 01 00 00 20 00 00 00	r1 <<= 32
     299:	77 01 00 00 20 00 00 00	r1 >>= 32
     300:	18 02 00 00 72 ff ff ff 00 00 00 00 00 00 00 00	r2 = 4294967154 ll
     302:	b7 03 00 00 00 00 00 00	r3 = 0
     303:	7b 3a f0 fe 00 00 00 00	*(u64 *)(r10 - 272) = r3
     304:	b7 03 00 00 00 00 00 00	r3 = 0
     305:	7b 3a f8 fe 00 00 00 00	*(u64 *)(r10 - 264) = r3
     306:	b7 09 00 00 00 00 00 00	r9 = 0
     307:	1d 21 a7 01 00 00 00 00	if r1 == r2 goto +423 <LBB4_113>
     308:	05 00 f3 0a 00 00 00 00	goto +2803 <LBB4_387>

00000000000009a8 <LBB4_61>:
     309:	69 a7 68 ff 00 00 00 00	r7 = *(u16 *)(r10 - 152)
     310:	15 07 1f 00 00 00 00 00	if r7 == 0 goto +31 <LBB4_65>
     311:	61 a8 64 ff 00 00 00 00	r8 = *(u32 *)(r10 - 156)
     312:	bf 61 00 00 00 00 00 00	r1 = r6
     313:	85 00 00 00 22 00 00 00	call 34
     314:	63 0a a4 ff 00 00 00 00	*(u32 *)(r10 - 92) = r0
     315:	b7 01 00 00 02 16 10 10	r1 = 269489666
     316:	63 1a a0 ff 00 00 00 00	*(u32 *)(r10 - 96) = r1
     317:	63 8a a8 ff 00 00 00 00	*(u32 *)(r10 - 88) = r8
     318:	63 7a ac ff 00 00 00 00	*(u32 *)(r10 - 84) = r7
     319:	b7 08 00 00 00 00 00 00	r8 = 0
     320:	63 8a b0 ff 00 00 00 00	*(u32 *)(r10 - 80) = r8
     321:	bf a4 00 00 00 00 00 00	r4 = r10
     322:	07 04 00 00 a0 ff ff ff	r4 += -96
     323:	bf 61 00 00 00 00 00 00	r1 = r6
     324:	18 02 00 00 00 00 00 00 00 00 00 00 00 00 00 00	r2 = 0 ll
     326:	18 03 00 00 ff ff ff ff 00 00 00 00 00 00 00 00	r3 = 4294967295 ll
     328:	b7 05 00 00 14 00 00 00	r5 = 20
     329:	85 00 00 00 19 00 00 00	call 25
     330:	bf a2 00 00 00 00 00 00	r2 = r10
     331:	07 02 00 00 58 ff ff ff	r2 += -168
     332:	18 01 00 00 00 00 00 00 00 00 00 00 00 00 00 00	r1 = 0 ll
     334:	85 00 00 00 01 00 00 00	call 1
     335:	15 00 05 00 00 00 00 00	if r0 == 0 goto +5 <LBB4_64>
     336:	71 01 12 00 00 00 00 00	r1 = *(u8 *)(r0 + 18)
     337:	71 02 13 00 00 00 00 00	r2 = *(u8 *)(r0 + 19)
     338:	67 02 00 00 08 00 00 00	r2 <<= 8
     339:	4f 12 00 00 00 00 00 00	r2 |= r1
     340:	55 02 3a 00 00 00 00 00	if r2 != 0 goto +58 <LBB4_68>

0000000000000aa8 <LBB4_64>:
     341:	6b 8a 68 ff 00 00 00 00	*(u16 *)(r10 - 152) = r8

0000000000000ab0 <LBB4_65>:
     342:	61 a7 64 ff 00 00 00 00	r7 = *(u32 *)(r10 - 156)
     343:	bf 61 00 00 00 00 00 00	r1 = r6
     344:	85 00 00 00 22 00 00 00	call 34
     345:	63 0a a4 ff 00 00 00 00	*(u32 *)(r10 - 92) = r0
     346:	b7 01 00 00 02 16 10 10	r1 = 269489666
     347:	63 1a a0 ff 00 00 00 00	*(u32 *)(r10 - 96) = r1
     348:	63 7a a8 ff 00 00 00 00	*(u32 *)(r10 - 88) = r7
     349:	b7 01 00 00 00 00 00 00	r1 = 0
     350:	63 1a ac ff 00 00 00 00	*(u32 *)(r10 - 84) = r1
     351:	63 1a b0 ff 00 00 00 00	*(u32 *)(r10 - 80) = r1
     352:	bf a4 00 00 00 00 00 00	r4 = r10
     353:	07 04 00 00 a0 ff ff ff	r4 += -96
     354:	bf 61 00 00 00 00 00 00	r1 = r6
     355:	18 02 00 00 00 00 00 00 00 00 00 00 00 00 00 00	r2 = 0 ll
     357:	18 03 00 00 ff ff ff ff 00 00 00 00 00 00 00 00	r3 = 4294967295 ll
     359:	b7 05 00 00 14 00 00 00	r5 = 20
     360:	85 00 00 00 19 00 00 00	call 25
     361:	bf a2 00 00 00 00 00 00	r2 = r10
     362:	07 02 00 00 58 ff ff ff	r2 += -168
     363:	18 01 00 00 00 00 00 00 00 00 00 00 00 00 00 00	r1 = 0 ll
     365:	85 00 00 00 01 00 00 00	call 1
     366:	15 00 05 00 00 00 00 00	if r0 == 0 goto +5 <LBB4_67>
     367:	71 01 12 00 00 00 00 00	r1 = *(u8 *)(r0 + 18)
     368:	71 02 13 00 00 00 00 00	r2 = *(u8 *)(r0 + 19)
     369:	67 02 00 00 08 00 00 00	r2 <<= 8
     370:	4f 12 00 00 00 00 00 00	r2 |= r1
     371:	55 02 1b 00 00 00 00 00	if r2 != 0 goto +27 <LBB4_68>

0000000000000ba0 <LBB4_67>:
     372:	b7 09 00 00 00 00 00 00	r9 = 0
     373:	61 a7 60 ff 00 00 00 00	r7 = *(u32 *)(r10 - 160)
     374:	61 a8 5c ff 00 00 00 00	r8 = *(u32 *)(r10 - 164)
     375:	bf 61 00 00 00 00 00 00	r1 = r6
     376:	85 00 00 00 22 00 00 00	call 34
     377:	63 0a a4 ff 00 00 00 00	*(u32 *)(r10 - 92) = r0
     378:	b7 01 00 00 02 17 10 10	r1 = 269489922
     379:	63 1a a0 ff 00 00 00 00	*(u32 *)(r10 - 96) = r1
     380:	63 8a a8 ff 00 00 00 00	*(u32 *)(r10 - 88) = r8
     381:	63 7a ac ff 00 00 00 00	*(u32 *)(r10 - 84) = r7
     382:	b7 01 00 00 00 00 00 00	r1 = 0
     383:	7b 1a d0 fe 00 00 00 00	*(u64 *)(r10 - 304) = r1
     384:	63 9a b0 ff 00 00 00 00	*(u32 *)(r10 - 80) = r9
     385:	bf a4 00 00 00 00 00 00	r4 = r10
     386:	07 04 00 00 a0 ff ff ff	r4 += -96
     387:	bf 61 00 00 00 00 00 00	r1 = r6
     388:	18 02 00 00 00 00 00 00 00 00 00 00 00 00 00 00	r2 = 0 ll
     390:	18 03 00 00 ff ff ff ff 00 00 00 00 00 00 00 00	r3 = 4294967295 ll
     392:	b7 05 00 00 14 00 00 00	r5 = 20
     393:	85 00 00 00 19 00 00 00	call 25
     394:	b7 01 00 00 00 00 00 00	r1 = 0
     395:	7b 1a f0 fe 00 00 00 00	*(u64 *)(r10 - 272) = r1
     396:	b7 01 00 00 00 00 00 00	r1 = 0
     397:	7b 1a f8 fe 00 00 00 00	*(u64 *)(r10 - 264) = r1
     398:	05 00 4c 01 00 00 00 00	goto +332 <LBB4_113>

0000000000000c78 <LBB4_68>:
     399:	71 a7 3d ff 00 00 00 00	r7 = *(u8 *)(r10 - 195)
     400:	71 a2 3c ff 00 00 00 00	r2 = *(u8 *)(r10 - 196)
     401:	b7 01 00 00 04 00 00 00	r1 = 4
     402:	73 1a 3d ff 00 00 00 00	*(u8 *)(r10 - 195) = r1
     403:	b7 01 00 00 00 00 00 00	r1 = 0
     404:	6b 1a 78 ff 00 00 00 00	*(u16 *)(r10 - 136) = r1
     405:	18 08 00 00 00 00 00 00 00 00 00 00 00 00 00 00	r8 = 0 ll
     407:	79 a1 10 ff 00 00 00 00	r1 = *(u64 *)(r10 - 240)
     408:	15 02 02 00 06 00 00 00	if r2 == 6 goto +2 <LBB4_70>
     409:	18 08 00 00 00 00 00 00 00 00 00 00 00 00 00 00	r8 = 0 ll

0000000000000cd8 <LBB4_70>:
     411:	15 02 1d 00 06 00 00 00	if r2 == 6 goto +29 <LBB4_79>
     412:	15 02 57 00 11 00 00 00	if r2 == 17 goto +87 <LBB4_86>
     413:	55 02 35 00 3a 00 00 00	if r2 != 58 goto +53 <LBB4_81>
     414:	7b 2a d0 fe 00 00 00 00	*(u64 *)(r10 - 304) = r2
     415:	7b 0a c0 fe 00 00 00 00	*(u64 *)(r10 - 320) = r0
     416:	bf a3 00 00 00 00 00 00	r3 = r10
     417:	07 03 00 00 a0 ff ff ff	r3 += -96
     418:	b7 01 00 00 01 00 00 00	r1 = 1
     419:	7b 1a 00 ff 00 00 00 00	*(u64 *)(r10 - 256) = r1
     420:	bf 61 00 00 00 00 00 00	r1 = r6
     421:	79 a2 08 ff 00 00 00 00	r2 = *(u64 *)(r10 - 248)
     422:	b7 04 00 00 01 00 00 00	r4 = 1
     423:	85 00 00 00 1a 00 00 00	call 26
     424:	67 00 00 00 20 00 00 00	r0 <<= 32
     425:	c7 00 00 00 20 00 00 00	r0 s>>= 32
     426:	c5 00 1d 01 00 00 00 00	if r0 s< 0 goto +285 <LBB4_107>
     427:	b7 01 00 00 00 00 00 00	r1 = 0
     428:	63 1a 38 ff 00 00 00 00	*(u32 *)(r10 - 200) = r1
     429:	71 a1 a0 ff 00 00 00 00	r1 = *(u8 *)(r10 - 96)
     430:	bf 12 00 00 00 00 00 00	r2 = r1
     431:	07 02 00 00 ff ff ff ff	r2 += -1
     432:	a5 02 3a 00 04 00 00 00	if r2 < 4 goto +58 <LBB4_83>
     433:	15 01 3f 00 80 00 00 00	if r1 == 128 goto +63 <LBB4_85>
     434:	15 01 01 00 81 00 00 00	if r1 == 129 goto +1 <LBB4_77>
     435:	05 00 4d 00 00 00 00 00	goto +77 <LBB4_87>

0000000000000da0 <LBB4_77>:
     436:	b7 01 00 00 80 00 00 00	r1 = 128
     437:	6b 1a 38 ff 00 00 00 00	*(u16 *)(r10 - 200) = r1
     438:	05 00 37 00 00 00 00 00	goto +55 <LBB4_84>

0000000000000db8 <LBB4_78>:
     439:	b7 08 00 00 02 00 00 00	r8 = 2
     440:	05 00 5e ff 00 00 00 00	goto -162 <LBB4_56>

0000000000000dc8 <LBB4_79>:
     441:	7b 2a d0 fe 00 00 00 00	*(u64 *)(r10 - 304) = r2
     442:	7b 0a c0 fe 00 00 00 00	*(u64 *)(r10 - 320) = r0
     443:	bf 12 00 00 00 00 00 00	r2 = r1
     444:	07 02 00 00 1a 00 00 00	r2 += 26
     445:	bf a3 00 00 00 00 00 00	r3 = r10
     446:	07 03 00 00 78 ff ff ff	r3 += -136
     447:	bf 61 00 00 00 00 00 00	r1 = r6
     448:	b7 04 00 00 02 00 00 00	r4 = 2
     449:	85 00 00 00 1a 00 00 00	call 26
     450:	67 00 00 00 20 00 00 00	r0 <<= 32
     451:	c7 00 00 00 20 00 00 00	r0 s>>= 32
     452:	c5 00 03 01 00 00 00 00	if r0 s< 0 goto +259 <LBB4_107>
     453:	71 a9 78 ff 00 00 00 00	r9 = *(u8 *)(r10 - 136)
     454:	bf a3 00 00 00 00 00 00	r3 = r10
     455:	07 03 00 00 38 ff ff ff	r3 += -200
     456:	bf 61 00 00 00 00 00 00	r1 = r6
     457:	79 a2 08 ff 00 00 00 00	r2 = *(u64 *)(r10 - 248)
     458:	b7 04 00 00 04 00 00 00	r4 = 4
     459:	85 00 00 00 1a 00 00 00	call 26
     460:	57 09 00 00 01 00 00 00	r9 &= 1
     461:	07 09 00 00 01 00 00 00	r9 += 1
     462:	7b 9a 00 ff 00 00 00 00	*(u64 *)(r10 - 256) = r9
     463:	67 00 00 00 20 00 00 00	r0 <<= 32
     464:	c7 00 00 00 20 00 00 00	r0 s>>= 32
     465:	c5 00 f6 00 00 00 00 00	if r0 s< 0 goto +246 <LBB4_107>
     466:	05 00 2e 00 00 00 00 00	goto +46 <LBB4_87>

0000000000000e98 <LBB4_81>:
     467:	b7 01 00 00 00 00 00 00	r1 = 0
     468:	63 1a a0 ff 00 00 00 00	*(u32 *)(r10 - 96) = r1
     469:	bf a3 00 00 00 00 00 00	r3 = r10
     470:	07 03 00 00 a0 ff ff ff	r3 += -96
     471:	b7 01 00 00 00 00 00 00	r1 = 0
     472:	b7 02 00 00 00 00 00 00	r2 = 0
     473:	b7 04 00 00 01 00 00 00	r4 = 1
     474:	b7 05 00 00 00 00 00 00	r5 = 0
     475:	85 00 00 00 1c 00 00 00	call 28
     476:	05 00 eb 00 00 00 00 00	goto +235 <LBB4_107>

0000000000000ee8 <LBB4_82>:
     477:	07 08 00 00 0e 00 00 00	r8 += 14
     478:	bf a3 00 00 00 00 00 00	r3 = r10
     479:	07 03 00 00 a0 ff ff ff	r3 += -96
     480:	bf 61 00 00 00 00 00 00	r1 = r6
     481:	bf 82 00 00 00 00 00 00	r2 = r8
     482:	b7 04 00 00 02 00 00 00	r4 = 2
     483:	85 00 00 00 1a 00 00 00	call 26
     484:	bf 07 00 00 00 00 00 00	r7 = r0
     485:	67 07 00 00 20 00 00 00	r7 <<= 32
     486:	c7 07 00 00 20 00 00 00	r7 s>>= 32
     487:	77 07 00 00 1f 00 00 00	r7 >>= 31
     488:	57 07 00 00 16 00 00 00	r7 &= 22
     489:	07 07 00 00 64 ff ff ff	r7 += -156
     490:	05 00 3d 0a 00 00 00 00	goto +2621 <LBB4_387>

0000000000000f58 <LBB4_83>:
     491:	71 a1 3d ff 00 00 00 00	r1 = *(u8 *)(r10 - 195)
     492:	47 01 00 00 02 00 00 00	r1 |= 2
     493:	73 1a 3d ff 00 00 00 00	*(u8 *)(r10 - 195) = r1

0000000000000f70 <LBB4_84>:
     494:	b7 01 00 00 00 00 00 00	r1 = 0
     495:	7b 1a 00 ff 00 00 00 00	*(u64 *)(r10 - 256) = r1
     496:	05 00 10 00 00 00 00 00	goto +16 <LBB4_87>

0000000000000f88 <LBB4_85>:
     497:	b7 01 00 00 80 00 00 00	r1 = 128
     498:	6b 1a 3a ff 00 00 00 00	*(u16 *)(r10 - 198) = r1
     499:	05 00 0d 00 00 00 00 00	goto +13 <LBB4_87>

0000000000000fa0 <LBB4_86>:
     500:	7b 2a d0 fe 00 00 00 00	*(u64 *)(r10 - 304) = r2
     501:	7b 0a c0 fe 00 00 00 00	*(u64 *)(r10 - 320) = r0
     502:	bf a3 00 00 00 00 00 00	r3 = r10
     503:	07 03 00 00 38 ff ff ff	r3 += -200
     504:	bf 61 00 00 00 00 00 00	r1 = r6
     505:	79 a2 08 ff 00 00 00 00	r2 = *(u64 *)(r10 - 248)
     506:	b7 04 00 00 04 00 00 00	r4 = 4
     507:	85 00 00 00 1a 00 00 00	call 26
     508:	b7 01 00 00 01 00 00 00	r1 = 1
     509:	7b 1a 00 ff 00 00 00 00	*(u64 *)(r10 - 256) = r1
     510:	67 00 00 00 20 00 00 00	r0 <<= 32
     511:	c7 00 00 00 20 00 00 00	r0 s>>= 32
     512:	c5 00 c7 00 00 00 00 00	if r0 s< 0 goto +199 <LBB4_107>

0000000000001008 <LBB4_87>:
     513:	7b 7a c8 fe 00 00 00 00	*(u64 *)(r10 - 312) = r7
     514:	7b 8a d8 fe 00 00 00 00	*(u64 *)(r10 - 296) = r8
     515:	69 a8 38 ff 00 00 00 00	r8 = *(u16 *)(r10 - 200)
     516:	69 a9 3a ff 00 00 00 00	r9 = *(u16 *)(r10 - 198)
     517:	61 a1 24 ff 00 00 00 00	r1 = *(u32 *)(r10 - 220)
     518:	7b 1a f8 fe 00 00 00 00	*(u64 *)(r10 - 264) = r1
     519:	61 a7 34 ff 00 00 00 00	r7 = *(u32 *)(r10 - 204)
     520:	bf 61 00 00 00 00 00 00	r1 = r6
     521:	85 00 00 00 22 00 00 00	call 34
     522:	63 0a a4 ff 00 00 00 00	*(u32 *)(r10 - 92) = r0
     523:	b7 01 00 00 02 2f 10 10	r1 = 269496066
     524:	63 1a a0 ff 00 00 00 00	*(u32 *)(r10 - 96) = r1
     525:	63 7a a8 ff 00 00 00 00	*(u32 *)(r10 - 88) = r7
     526:	79 a1 f8 fe 00 00 00 00	r1 = *(u64 *)(r10 - 264)
     527:	63 1a ac ff 00 00 00 00	*(u32 *)(r10 - 84) = r1
     528:	dc 09 00 00 20 00 00 00	r9 = be32 r9
     529:	18 01 00 00 00 00 ff ff 00 00 00 00 00 00 00 00	r1 = 4294901760 ll
     531:	5f 19 00 00 00 00 00 00	r9 &= r1
     532:	dc 08 00 00 10 00 00 00	r8 = be16 r8
     533:	4f 89 00 00 00 00 00 00	r9 |= r8
     534:	63 9a b0 ff 00 00 00 00	*(u32 *)(r10 - 80) = r9
     535:	bf a4 00 00 00 00 00 00	r4 = r10
     536:	07 04 00 00 a0 ff ff ff	r4 += -96
     537:	bf 61 00 00 00 00 00 00	r1 = r6
     538:	18 02 00 00 00 00 00 00 00 00 00 00 00 00 00 00	r2 = 0 ll
     540:	18 03 00 00 ff ff ff ff 00 00 00 00 00 00 00 00	r3 = 4294967295 ll
     542:	b7 05 00 00 14 00 00 00	r5 = 20
     543:	85 00 00 00 19 00 00 00	call 25
     544:	71 a7 3d ff 00 00 00 00	r7 = *(u8 *)(r10 - 195)
     545:	71 a8 3c ff 00 00 00 00	r8 = *(u8 *)(r10 - 196)
     546:	bf 61 00 00 00 00 00 00	r1 = r6
     547:	85 00 00 00 22 00 00 00	call 34
     548:	63 0a a4 ff 00 00 00 00	*(u32 *)(r10 - 92) = r0
     549:	b7 01 00 00 02 30 10 10	r1 = 269496322
     550:	63 1a a0 ff 00 00 00 00	*(u32 *)(r10 - 96) = r1
     551:	67 08 00 00 08 00 00 00	r8 <<= 8
     552:	4f 78 00 00 00 00 00 00	r8 |= r7
     553:	63 8a a8 ff 00 00 00 00	*(u32 *)(r10 - 88) = r8
     554:	b7 07 00 00 00 00 00 00	r7 = 0
     555:	63 7a ac ff 00 00 00 00	*(u32 *)(r10 - 84) = r7
     556:	63 7a b0 ff 00 00 00 00	*(u32 *)(r10 - 80) = r7
     557:	bf a4 00 00 00 00 00 00	r4 = r10
     558:	07 04 00 00 a0 ff ff ff	r4 += -96
     559:	bf 61 00 00 00 00 00 00	r1 = r6
     560:	18 02 00 00 00 00 00 00 00 00 00 00 00 00 00 00	r2 = 0 ll
     562:	18 03 00 00 ff ff ff ff 00 00 00 00 00 00 00 00	r3 = 4294967295 ll
     564:	b7 05 00 00 14 00 00 00	r5 = 20
     565:	85 00 00 00 19 00 00 00	call 25
     566:	71 a9 79 ff 00 00 00 00	r9 = *(u8 *)(r10 - 135)
     567:	71 a1 78 ff 00 00 00 00	r1 = *(u8 *)(r10 - 136)
     568:	7b 1a b8 fe 00 00 00 00	*(u64 *)(r10 - 328) = r1
     569:	bf a2 00 00 00 00 00 00	r2 = r10
     570:	07 02 00 00 18 ff ff ff	r2 += -232
     571:	79 a1 d8 fe 00 00 00 00	r1 = *(u64 *)(r10 - 296)
     572:	85 00 00 00 01 00 00 00	call 1
     573:	bf 08 00 00 00 00 00 00	r8 = r0
     574:	15 08 b4 02 00 00 00 00	if r8 == 0 goto +692 <LBB4_178>
     575:	7b 9a b0 fe 00 00 00 00	*(u64 *)(r10 - 336) = r9
     576:	69 87 26 00 00 00 00 00	r7 = *(u16 *)(r8 + 38)
     577:	61 89 20 00 00 00 00 00	r9 = *(u32 *)(r8 + 32)
     578:	bf 61 00 00 00 00 00 00	r1 = r6
     579:	85 00 00 00 22 00 00 00	call 34
     580:	63 0a a4 ff 00 00 00 00	*(u32 *)(r10 - 92) = r0
     581:	b7 01 00 00 02 08 10 10	r1 = 269486082
     582:	63 1a a0 ff 00 00 00 00	*(u32 *)(r10 - 96) = r1
     583:	63 9a a8 ff 00 00 00 00	*(u32 *)(r10 - 88) = r9
     584:	63 7a ac ff 00 00 00 00	*(u32 *)(r10 - 84) = r7
     585:	b7 01 00 00 00 00 00 00	r1 = 0
     586:	63 1a b0 ff 00 00 00 00	*(u32 *)(r10 - 80) = r1
     587:	bf a4 00 00 00 00 00 00	r4 = r10
     588:	07 04 00 00 a0 ff ff ff	r4 += -96
     589:	bf 61 00 00 00 00 00 00	r1 = r6
     590:	18 02 00 00 00 00 00 00 00 00 00 00 00 00 00 00	r2 = 0 ll
     592:	18 03 00 00 ff ff ff ff 00 00 00 00 00 00 00 00	r3 = 4294967295 ll
     594:	b7 05 00 00 14 00 00 00	r5 = 20
     595:	85 00 00 00 19 00 00 00	call 25
     596:	69 81 24 00 00 00 00 00	r1 = *(u16 *)(r8 + 36)
     597:	bf 12 00 00 00 00 00 00	r2 = r1
     598:	57 02 00 00 03 00 00 00	r2 &= 3
     599:	15 02 28 00 03 00 00 00	if r2 == 3 goto +40 <LBB4_95>
     600:	b7 09 00 00 3c 00 00 00	r9 = 60
     601:	79 a2 d0 fe 00 00 00 00	r2 = *(u64 *)(r10 - 304)
     602:	55 02 10 00 06 00 00 00	if r2 != 6 goto +16 <LBB4_92>
     603:	79 a2 b8 fe 00 00 00 00	r2 = *(u64 *)(r10 - 328)
     604:	a7 02 00 00 01 00 00 00	r2 ^= 1
     605:	57 02 00 00 ff 00 00 00	r2 &= 255
     606:	bf 13 00 00 00 00 00 00	r3 = r1
     607:	77 03 00 00 04 00 00 00	r3 >>= 4
     608:	4f 23 00 00 00 00 00 00	r3 |= r2
     609:	bf 32 00 00 00 00 00 00	r2 = r3
     610:	67 02 00 00 04 00 00 00	r2 <<= 4
     611:	57 02 00 00 10 00 00 00	r2 &= 16
     612:	57 01 00 00 ef ff 00 00	r1 &= 65519
     613:	4f 12 00 00 00 00 00 00	r2 |= r1
     614:	6b 28 24 00 00 00 00 00	*(u16 *)(r8 + 36) = r2
     615:	57 03 00 00 01 00 00 00	r3 &= 1
     616:	b7 09 00 00 3c 00 00 00	r9 = 60
     617:	15 03 01 00 00 00 00 00	if r3 == 0 goto +1 <LBB4_92>
     618:	b7 09 00 00 60 54 00 00	r9 = 21600

0000000000001358 <LBB4_92>:
     619:	85 00 00 00 05 00 00 00	call 5
     620:	37 00 00 00 00 ca 9a 3b	r0 /= 1000000000
     621:	0f 09 00 00 00 00 00 00	r9 += r0
     622:	63 98 20 00 00 00 00 00	*(u32 *)(r8 + 32) = r9
     623:	71 82 2a 00 00 00 00 00	r2 = *(u8 *)(r8 + 42)
     624:	bf 21 00 00 00 00 00 00	r1 = r2
     625:	79 a3 b0 fe 00 00 00 00	r3 = *(u64 *)(r10 - 336)
     626:	4f 31 00 00 00 00 00 00	r1 |= r3
     627:	bf 13 00 00 00 00 00 00	r3 = r1
     628:	57 03 00 00 ff 00 00 00	r3 &= 255
     629:	5d 32 08 00 00 00 00 00	if r2 != r3 goto +8 <LBB4_94>
     630:	61 82 30 00 00 00 00 00	r2 = *(u32 *)(r8 + 48)
     631:	07 02 00 00 05 00 00 00	r2 += 5
     632:	bf 03 00 00 00 00 00 00	r3 = r0
     633:	67 03 00 00 20 00 00 00	r3 <<= 32
     634:	77 03 00 00 20 00 00 00	r3 >>= 32
     635:	67 02 00 00 20 00 00 00	r2 <<= 32
     636:	77 02 00 00 20 00 00 00	r2 >>= 32
     637:	3d 32 02 00 00 00 00 00	if r2 >= r3 goto +2 <LBB4_95>

00000000000013f0 <LBB4_94>:
     638:	73 18 2a 00 00 00 00 00	*(u8 *)(r8 + 42) = r1
     639:	63 08 30 00 00 00 00 00	*(u32 *)(r8 + 48) = r0

0000000000001400 <LBB4_95>:
     640:	69 81 28 00 00 00 00 00	r1 = *(u16 *)(r8 + 40)
     641:	7b 1a f0 fe 00 00 00 00	*(u64 *)(r10 - 272) = r1
     642:	69 81 26 00 00 00 00 00	r1 = *(u16 *)(r8 + 38)
     643:	7b 1a f8 fe 00 00 00 00	*(u64 *)(r10 - 264) = r1
     644:	69 87 24 00 00 00 00 00	r7 = *(u16 *)(r8 + 36)
     645:	bf 71 00 00 00 00 00 00	r1 = r7
     646:	57 01 00 00 04 00 00 00	r1 &= 4
     647:	15 01 04 00 00 00 00 00	if r1 == 0 goto +4 <LBB4_98>
     648:	61 61 3c 00 00 00 00 00	r1 = *(u32 *)(r6 + 60)
     649:	55 01 02 00 00 00 00 00	if r1 != 0 goto +2 <LBB4_98>
     650:	b7 01 00 00 02 00 00 00	r1 = 2
     651:	63 16 3c 00 00 00 00 00	*(u32 *)(r6 + 60) = r1

0000000000001460 <LBB4_98>:
     652:	77 07 00 00 03 00 00 00	r7 >>= 3
     653:	b7 01 00 00 01 00 00 00	r1 = 1
     654:	db 18 10 00 00 00 00 00	lock *(u64 *)(r8 + 16) += r1
     655:	61 61 00 00 00 00 00 00	r1 = *(u32 *)(r6 + 0)
     656:	db 18 18 00 00 00 00 00	lock *(u64 *)(r8 + 24) += r1
     657:	79 a1 00 ff 00 00 00 00	r1 = *(u64 *)(r10 - 256)
     658:	15 01 67 02 02 00 00 00	if r1 == 2 goto +615 <LBB4_179>
     659:	67 01 00 00 20 00 00 00	r1 <<= 32
     660:	77 01 00 00 20 00 00 00	r1 >>= 32
     661:	55 01 7f 02 01 00 00 00	if r1 != 1 goto +639 <LBB4_183>
     662:	69 81 24 00 00 00 00 00	r1 = *(u16 *)(r8 + 36)
     663:	bf 12 00 00 00 00 00 00	r2 = r1
     664:	57 02 00 00 01 00 00 00	r2 &= 1
     665:	bf 13 00 00 00 00 00 00	r3 = r1
     666:	77 03 00 00 01 00 00 00	r3 >>= 1
     667:	57 03 00 00 01 00 00 00	r3 &= 1
     668:	87 03 00 00 00 00 00 00	r3 = -r3
     669:	1d 32 77 02 00 00 00 00	if r2 == r3 goto +631 <LBB4_183>
     670:	bf 12 00 00 00 00 00 00	r2 = r1
     671:	57 02 00 00 fc ff 00 00	r2 &= 65532
     672:	6b 28 24 00 00 00 00 00	*(u16 *)(r8 + 36) = r2
     673:	b7 09 00 00 3c 00 00 00	r9 = 60
     674:	79 a2 d0 fe 00 00 00 00	r2 = *(u64 *)(r10 - 304)
     675:	55 02 10 00 06 00 00 00	if r2 != 6 goto +16 <LBB4_104>
     676:	79 a3 b8 fe 00 00 00 00	r3 = *(u64 *)(r10 - 328)
     677:	a7 03 00 00 01 00 00 00	r3 ^= 1
     678:	57 03 00 00 ff 00 00 00	r3 &= 255
     679:	bf 12 00 00 00 00 00 00	r2 = r1
     680:	77 02 00 00 04 00 00 00	r2 >>= 4
     681:	4f 32 00 00 00 00 00 00	r2 |= r3
     682:	bf 23 00 00 00 00 00 00	r3 = r2
     683:	67 03 00 00 04 00 00 00	r3 <<= 4
     684:	57 03 00 00 10 00 00 00	r3 &= 16
     685:	57 01 00 00 ec ff 00 00	r1 &= 65516
     686:	4f 13 00 00 00 00 00 00	r3 |= r1
     687:	6b 38 24 00 00 00 00 00	*(u16 *)(r8 + 36) = r3
     688:	57 02 00 00 01 00 00 00	r2 &= 1
     689:	b7 09 00 00 3c 00 00 00	r9 = 60
     690:	15 02 01 00 00 00 00 00	if r2 == 0 goto +1 <LBB4_104>
     691:	b7 09 00 00 60 54 00 00	r9 = 21600

00000000000015a0 <LBB4_104>:
     692:	85 00 00 00 05 00 00 00	call 5
     693:	37 00 00 00 00 ca 9a 3b	r0 /= 1000000000
     694:	0f 09 00 00 00 00 00 00	r9 += r0
     695:	63 98 20 00 00 00 00 00	*(u32 *)(r8 + 32) = r9
     696:	71 82 2a 00 00 00 00 00	r2 = *(u8 *)(r8 + 42)
     697:	bf 21 00 00 00 00 00 00	r1 = r2
     698:	79 a3 b0 fe 00 00 00 00	r3 = *(u64 *)(r10 - 336)
     699:	4f 31 00 00 00 00 00 00	r1 |= r3
     700:	bf 13 00 00 00 00 00 00	r3 = r1
     701:	57 03 00 00 ff 00 00 00	r3 &= 255
     702:	5d 32 08 00 00 00 00 00	if r2 != r3 goto +8 <LBB4_106>
     703:	61 82 30 00 00 00 00 00	r2 = *(u32 *)(r8 + 48)
     704:	07 02 00 00 05 00 00 00	r2 += 5
     705:	bf 03 00 00 00 00 00 00	r3 = r0
     706:	67 03 00 00 20 00 00 00	r3 <<= 32
     707:	77 03 00 00 20 00 00 00	r3 >>= 32
     708:	67 02 00 00 20 00 00 00	r2 <<= 32
     709:	77 02 00 00 20 00 00 00	r2 >>= 32
     710:	3d 32 4e 02 00 00 00 00	if r2 >= r3 goto +590 <LBB4_183>

0000000000001638 <LBB4_106>:
     711:	05 00 4b 02 00 00 00 00	goto +587 <LBB4_182>

0000000000001640 <LBB4_107>:
     712:	b7 01 00 00 00 00 00 00	r1 = 0
     713:	7b 1a d0 fe 00 00 00 00	*(u64 *)(r10 - 304) = r1
     714:	b7 01 00 00 00 00 00 00	r1 = 0
     715:	7b 1a f0 fe 00 00 00 00	*(u64 *)(r10 - 272) = r1
     716:	b7 01 00 00 00 00 00 00	r1 = 0
     717:	7b 1a f8 fe 00 00 00 00	*(u64 *)(r10 - 264) = r1

0000000000001670 <LBB4_108>:
     718:	73 7a 3d ff 00 00 00 00	*(u8 *)(r10 - 195) = r7

0000000000001678 <LBB4_109>:
     719:	18 07 00 00 62 ff ff ff 00 00 00 00 00 00 00 00	r7 = 4294967138 ll

0000000000001688 <LBB4_110>:
     721:	bf 71 00 00 00 00 00 00	r1 = r7
     722:	67 01 00 00 20 00 00 00	r1 <<= 32
     723:	77 01 00 00 20 00 00 00	r1 >>= 32
     724:	b7 09 00 00 00 00 00 00	r9 = 0
     725:	b7 02 00 00 01 00 00 00	r2 = 1
     726:	15 01 01 00 02 00 00 00	if r1 == 2 goto +1 <LBB4_112>
     727:	b7 02 00 00 00 00 00 00	r2 = 0

00000000000016c0 <LBB4_112>:
     728:	77 01 00 00 1f 00 00 00	r1 >>= 31
     729:	4f 21 00 00 00 00 00 00	r1 |= r2
     730:	55 01 4d 09 00 00 00 00	if r1 != 0 goto +2381 <LBB4_387>

00000000000016d8 <LBB4_113>:
     731:	61 a4 24 ff 00 00 00 00	r4 = *(u32 *)(r10 - 220)
     732:	61 a9 20 ff 00 00 00 00	r9 = *(u32 *)(r10 - 224)
     733:	61 a2 1c ff 00 00 00 00	r2 = *(u32 *)(r10 - 228)
     734:	61 a7 18 ff 00 00 00 00	r7 = *(u32 *)(r10 - 232)
     735:	71 a3 3c ff 00 00 00 00	r3 = *(u8 *)(r10 - 196)
     736:	b7 01 00 00 01 00 00 00	r1 = 1
     737:	73 1a 3d ff 00 00 00 00	*(u8 *)(r10 - 195) = r1
     738:	b7 01 00 00 00 00 00 00	r1 = 0
     739:	6b 1a 78 ff 00 00 00 00	*(u16 *)(r10 - 136) = r1
     740:	18 08 00 00 00 00 00 00 00 00 00 00 00 00 00 00	r8 = 0 ll
     742:	15 03 02 00 06 00 00 00	if r3 == 6 goto +2 <LBB4_115>
     743:	18 08 00 00 00 00 00 00 00 00 00 00 00 00 00 00	r8 = 0 ll

0000000000001748 <LBB4_115>:
     745:	79 a1 10 ff 00 00 00 00	r1 = *(u64 *)(r10 - 240)
     746:	7b 4a 00 ff 00 00 00 00	*(u64 *)(r10 - 256) = r4
     747:	15 03 2f 00 06 00 00 00	if r3 == 6 goto +47 <LBB4_124>
     748:	15 03 1c 00 11 00 00 00	if r3 == 17 goto +28 <LBB4_123>
     749:	55 03 4b 00 3a 00 00 00	if r3 != 58 goto +75 <LBB4_126>
     750:	7b 3a b8 fe 00 00 00 00	*(u64 *)(r10 - 328) = r3
     751:	7b 2a a8 fe 00 00 00 00	*(u64 *)(r10 - 344) = r2
     752:	bf a3 00 00 00 00 00 00	r3 = r10
     753:	07 03 00 00 a0 ff ff ff	r3 += -96
     754:	b7 01 00 00 01 00 00 00	r1 = 1
     755:	7b 1a d8 fe 00 00 00 00	*(u64 *)(r10 - 296) = r1
     756:	bf 61 00 00 00 00 00 00	r1 = r6
     757:	79 a2 08 ff 00 00 00 00	r2 = *(u64 *)(r10 - 248)
     758:	b7 04 00 00 01 00 00 00	r4 = 1
     759:	85 00 00 00 1a 00 00 00	call 26
     760:	67 00 00 00 20 00 00 00	r0 <<= 32
     761:	c7 00 00 00 20 00 00 00	r0 s>>= 32
     762:	c5 00 4a 00 00 00 00 00	if r0 s< 0 goto +74 <LBB4_127>
     763:	b7 01 00 00 00 00 00 00	r1 = 0
     764:	63 1a 38 ff 00 00 00 00	*(u32 *)(r10 - 200) = r1
     765:	71 a1 a0 ff 00 00 00 00	r1 = *(u8 *)(r10 - 96)
     766:	bf 12 00 00 00 00 00 00	r2 = r1
     767:	07 02 00 00 ff ff ff ff	r2 += -1
     768:	7b 7a c0 fe 00 00 00 00	*(u64 *)(r10 - 320) = r7
     769:	7b 8a c8 fe 00 00 00 00	*(u64 *)(r10 - 312) = r8
     770:	a5 02 4e 00 04 00 00 00	if r2 < 4 goto +78 <LBB4_129>
     771:	15 01 93 06 80 00 00 00	if r1 == 128 goto +1683 <LBB4_278>
     772:	15 01 01 00 81 00 00 00	if r1 == 129 goto +1 <LBB4_122>
     773:	05 00 50 00 00 00 00 00	goto +80 <LBB4_131>

0000000000001830 <LBB4_122>:
     774:	b7 01 00 00 80 00 00 00	r1 = 128
     775:	6b 1a 38 ff 00 00 00 00	*(u16 *)(r10 - 200) = r1
     776:	05 00 4b 00 00 00 00 00	goto +75 <LBB4_130>

0000000000001848 <LBB4_123>:
     777:	7b 8a c8 fe 00 00 00 00	*(u64 *)(r10 - 312) = r8
     778:	7b 3a b8 fe 00 00 00 00	*(u64 *)(r10 - 328) = r3
     779:	7b 2a a8 fe 00 00 00 00	*(u64 *)(r10 - 344) = r2
     780:	7b 7a c0 fe 00 00 00 00	*(u64 *)(r10 - 320) = r7
     781:	bf a3 00 00 00 00 00 00	r3 = r10
     782:	07 03 00 00 38 ff ff ff	r3 += -200
     783:	bf 61 00 00 00 00 00 00	r1 = r6
     784:	79 a2 08 ff 00 00 00 00	r2 = *(u64 *)(r10 - 248)
     785:	b7 04 00 00 04 00 00 00	r4 = 4
     786:	85 00 00 00 1a 00 00 00	call 26
     787:	b7 01 00 00 01 00 00 00	r1 = 1
     788:	7b 1a d8 fe 00 00 00 00	*(u64 *)(r10 - 296) = r1
     789:	18 07 00 00 79 ff ff ff 00 00 00 00 00 00 00 00	r7 = 4294967161 ll
     791:	67 00 00 00 20 00 00 00	r0 <<= 32
     792:	c7 00 00 00 20 00 00 00	r0 s>>= 32
     793:	c5 00 2d 00 00 00 00 00	if r0 s< 0 goto +45 <LBB4_128>
     794:	05 00 3b 00 00 00 00 00	goto +59 <LBB4_131>

00000000000018d8 <LBB4_124>:
     795:	7b 8a c8 fe 00 00 00 00	*(u64 *)(r10 - 312) = r8
     796:	7b 3a b8 fe 00 00 00 00	*(u64 *)(r10 - 328) = r3
     797:	7b 2a a8 fe 00 00 00 00	*(u64 *)(r10 - 344) = r2
     798:	7b 7a c0 fe 00 00 00 00	*(u64 *)(r10 - 320) = r7
     799:	bf 12 00 00 00 00 00 00	r2 = r1
     800:	07 02 00 00 1a 00 00 00	r2 += 26
     801:	bf a3 00 00 00 00 00 00	r3 = r10
     802:	07 03 00 00 78 ff ff ff	r3 += -136
     803:	bf 61 00 00 00 00 00 00	r1 = r6
     804:	b7 04 00 00 02 00 00 00	r4 = 2
     805:	85 00 00 00 1a 00 00 00	call 26
     806:	18 07 00 00 79 ff ff ff 00 00 00 00 00 00 00 00	r7 = 4294967161 ll
     808:	67 00 00 00 20 00 00 00	r0 <<= 32
     809:	c7 00 00 00 20 00 00 00	r0 s>>= 32
     810:	c5 00 1c 00 00 00 00 00	if r0 s< 0 goto +28 <LBB4_128>
     811:	71 a8 78 ff 00 00 00 00	r8 = *(u8 *)(r10 - 136)
     812:	bf a3 00 00 00 00 00 00	r3 = r10
     813:	07 03 00 00 38 ff ff ff	r3 += -200
     814:	bf 61 00 00 00 00 00 00	r1 = r6
     815:	79 a2 08 ff 00 00 00 00	r2 = *(u64 *)(r10 - 248)
     816:	b7 04 00 00 04 00 00 00	r4 = 4
     817:	85 00 00 00 1a 00 00 00	call 26
     818:	57 08 00 00 01 00 00 00	r8 &= 1
     819:	07 08 00 00 01 00 00 00	r8 += 1
     820:	7b 8a d8 fe 00 00 00 00	*(u64 *)(r10 - 296) = r8
     821:	67 00 00 00 20 00 00 00	r0 <<= 32
     822:	c7 00 00 00 20 00 00 00	r0 s>>= 32
     823:	c5 00 0f 00 00 00 00 00	if r0 s< 0 goto +15 <LBB4_128>
     824:	05 00 1d 00 00 00 00 00	goto +29 <LBB4_131>

00000000000019c8 <LBB4_126>:
     825:	b7 01 00 00 00 00 00 00	r1 = 0
     826:	63 1a a0 ff 00 00 00 00	*(u32 *)(r10 - 96) = r1
     827:	bf a3 00 00 00 00 00 00	r3 = r10
     828:	07 03 00 00 a0 ff ff ff	r3 += -96
     829:	b7 01 00 00 00 00 00 00	r1 = 0
     830:	b7 02 00 00 00 00 00 00	r2 = 0
     831:	b7 04 00 00 01 00 00 00	r4 = 1
     832:	b7 05 00 00 00 00 00 00	r5 = 0
     833:	85 00 00 00 1c 00 00 00	call 28
     834:	18 07 00 00 77 ff ff ff 00 00 00 00 00 00 00 00	r7 = 4294967159 ll
     836:	05 00 02 00 00 00 00 00	goto +2 <LBB4_128>

0000000000001a28 <LBB4_127>:
     837:	18 07 00 00 79 ff ff ff 00 00 00 00 00 00 00 00	r7 = 4294967161 ll

0000000000001a38 <LBB4_128>:
     839:	b7 09 00 00 00 00 00 00	r9 = 0
     840:	63 9a a0 ff 00 00 00 00	*(u32 *)(r10 - 96) = r9
     841:	bf a3 00 00 00 00 00 00	r3 = r10
     842:	07 03 00 00 a0 ff ff ff	r3 += -96
     843:	b7 01 00 00 00 00 00 00	r1 = 0
     844:	b7 02 00 00 00 00 00 00	r2 = 0
     845:	b7 04 00 00 01 00 00 00	r4 = 1
     846:	b7 05 00 00 00 00 00 00	r5 = 0
     847:	85 00 00 00 1c 00 00 00	call 28
     848:	05 00 d7 08 00 00 00 00	goto +2263 <LBB4_387>

0000000000001a88 <LBB4_129>:
     849:	71 a1 3d ff 00 00 00 00	r1 = *(u8 *)(r10 - 195)
     850:	47 01 00 00 02 00 00 00	r1 |= 2
     851:	73 1a 3d ff 00 00 00 00	*(u8 *)(r10 - 195) = r1

0000000000001aa0 <LBB4_130>:
     852:	b7 01 00 00 00 00 00 00	r1 = 0
     853:	7b 1a d8 fe 00 00 00 00	*(u64 *)(r10 - 296) = r1

0000000000001ab0 <LBB4_131>:
     854:	7b 9a 98 fe 00 00 00 00	*(u64 *)(r10 - 360) = r9
     855:	79 a1 00 ff 00 00 00 00	r1 = *(u64 *)(r10 - 256)
     856:	69 a7 38 ff 00 00 00 00	r7 = *(u16 *)(r10 - 200)
     857:	69 a9 3a ff 00 00 00 00	r9 = *(u16 *)(r10 - 198)
     858:	61 a1 24 ff 00 00 00 00	r1 = *(u32 *)(r10 - 220)
     859:	7b 1a b0 fe 00 00 00 00	*(u64 *)(r10 - 336) = r1
     860:	61 a8 34 ff 00 00 00 00	r8 = *(u32 *)(r10 - 204)
     861:	bf 61 00 00 00 00 00 00	r1 = r6
     862:	85 00 00 00 22 00 00 00	call 34
     863:	63 0a a4 ff 00 00 00 00	*(u32 *)(r10 - 92) = r0
     864:	b7 01 00 00 02 2f 10 10	r1 = 269496066
     865:	63 1a a0 ff 00 00 00 00	*(u32 *)(r10 - 96) = r1
     866:	63 8a a8 ff 00 00 00 00	*(u32 *)(r10 - 88) = r8
     867:	79 a1 b0 fe 00 00 00 00	r1 = *(u64 *)(r10 - 336)
     868:	63 1a ac ff 00 00 00 00	*(u32 *)(r10 - 84) = r1
     869:	dc 09 00 00 20 00 00 00	r9 = be32 r9
     870:	18 01 00 00 00 00 ff ff 00 00 00 00 00 00 00 00	r1 = 4294901760 ll
     872:	5f 19 00 00 00 00 00 00	r9 &= r1
     873:	dc 07 00 00 10 00 00 00	r7 = be16 r7
     874:	4f 79 00 00 00 00 00 00	r9 |= r7
     875:	63 9a b0 ff 00 00 00 00	*(u32 *)(r10 - 80) = r9
     876:	bf a4 00 00 00 00 00 00	r4 = r10
     877:	07 04 00 00 a0 ff ff ff	r4 += -96
     878:	bf 61 00 00 00 00 00 00	r1 = r6
     879:	18 02 00 00 00 00 00 00 00 00 00 00 00 00 00 00	r2 = 0 ll
     881:	18 03 00 00 ff ff ff ff 00 00 00 00 00 00 00 00	r3 = 4294967295 ll
     883:	b7 05 00 00 14 00 00 00	r5 = 20
     884:	85 00 00 00 19 00 00 00	call 25
     885:	71 a7 3d ff 00 00 00 00	r7 = *(u8 *)(r10 - 195)
     886:	71 a8 3c ff 00 00 00 00	r8 = *(u8 *)(r10 - 196)
     887:	bf 61 00 00 00 00 00 00	r1 = r6
     888:	85 00 00 00 22 00 00 00	call 34
     889:	63 0a a4 ff 00 00 00 00	*(u32 *)(r10 - 92) = r0
     890:	b7 01 00 00 02 30 10 10	r1 = 269496322
     891:	63 1a a0 ff 00 00 00 00	*(u32 *)(r10 - 96) = r1
     892:	67 08 00 00 08 00 00 00	r8 <<= 8
     893:	4f 78 00 00 00 00 00 00	r8 |= r7
     894:	63 8a a8 ff 00 00 00 00	*(u32 *)(r10 - 88) = r8
     895:	b7 01 00 00 00 00 00 00	r1 = 0
     896:	63 1a ac ff 00 00 00 00	*(u32 *)(r10 - 84) = r1
     897:	63 1a b0 ff 00 00 00 00	*(u32 *)(r10 - 80) = r1
     898:	bf a4 00 00 00 00 00 00	r4 = r10
     899:	07 04 00 00 a0 ff ff ff	r4 += -96
     900:	bf 61 00 00 00 00 00 00	r1 = r6
     901:	18 02 00 00 00 00 00 00 00 00 00 00 00 00 00 00	r2 = 0 ll
     903:	18 03 00 00 ff ff ff ff 00 00 00 00 00 00 00 00	r3 = 4294967295 ll
     905:	b7 05 00 00 14 00 00 00	r5 = 20
     906:	85 00 00 00 19 00 00 00	call 25
     907:	71 a9 79 ff 00 00 00 00	r9 = *(u8 *)(r10 - 135)
     908:	71 a1 78 ff 00 00 00 00	r1 = *(u8 *)(r10 - 136)
     909:	7b 1a a0 fe 00 00 00 00	*(u64 *)(r10 - 352) = r1
     910:	bf a2 00 00 00 00 00 00	r2 = r10
     911:	07 02 00 00 18 ff ff ff	r2 += -232
     912:	79 a8 c8 fe 00 00 00 00	r8 = *(u64 *)(r10 - 312)
     913:	bf 81 00 00 00 00 00 00	r1 = r8
     914:	85 00 00 00 01 00 00 00	call 1
     915:	bf 07 00 00 00 00 00 00	r7 = r0
     916:	15 07 8b 00 00 00 00 00	if r7 == 0 goto +139 <LBB4_151>
     917:	69 78 26 00 00 00 00 00	r8 = *(u16 *)(r7 + 38)
     918:	7b 9a b0 fe 00 00 00 00	*(u64 *)(r10 - 336) = r9
     919:	61 79 20 00 00 00 00 00	r9 = *(u32 *)(r7 + 32)
     920:	bf 61 00 00 00 00 00 00	r1 = r6
     921:	85 00 00 00 22 00 00 00	call 34
     922:	63 0a a4 ff 00 00 00 00	*(u32 *)(r10 - 92) = r0
     923:	b7 01 00 00 02 08 10 10	r1 = 269486082
     924:	63 1a a0 ff 00 00 00 00	*(u32 *)(r10 - 96) = r1
     925:	63 9a a8 ff 00 00 00 00	*(u32 *)(r10 - 88) = r9
     926:	79 a9 b0 fe 00 00 00 00	r9 = *(u64 *)(r10 - 336)
     927:	63 8a ac ff 00 00 00 00	*(u32 *)(r10 - 84) = r8
     928:	b7 08 00 00 00 00 00 00	r8 = 0
     929:	63 8a b0 ff 00 00 00 00	*(u32 *)(r10 - 80) = r8
     930:	bf a4 00 00 00 00 00 00	r4 = r10
     931:	07 04 00 00 a0 ff ff ff	r4 += -96
     932:	bf 61 00 00 00 00 00 00	r1 = r6
     933:	18 02 00 00 00 00 00 00 00 00 00 00 00 00 00 00	r2 = 0 ll
     935:	18 03 00 00 ff ff ff ff 00 00 00 00 00 00 00 00	r3 = 4294967295 ll
     937:	b7 05 00 00 14 00 00 00	r5 = 20
     938:	85 00 00 00 19 00 00 00	call 25
     939:	69 71 24 00 00 00 00 00	r1 = *(u16 *)(r7 + 36)
     940:	bf 12 00 00 00 00 00 00	r2 = r1
     941:	57 02 00 00 03 00 00 00	r2 &= 3
     942:	15 02 29 00 03 00 00 00	if r2 == 3 goto +41 <LBB4_139>
     943:	b7 08 00 00 3c 00 00 00	r8 = 60
     944:	79 a2 b8 fe 00 00 00 00	r2 = *(u64 *)(r10 - 328)
     945:	55 02 10 00 06 00 00 00	if r2 != 6 goto +16 <LBB4_136>
     946:	79 a2 a0 fe 00 00 00 00	r2 = *(u64 *)(r10 - 352)
     947:	a7 02 00 00 01 00 00 00	r2 ^= 1
     948:	57 02 00 00 ff 00 00 00	r2 &= 255
     949:	bf 13 00 00 00 00 00 00	r3 = r1
     950:	77 03 00 00 04 00 00 00	r3 >>= 4
     951:	4f 23 00 00 00 00 00 00	r3 |= r2
     952:	bf 32 00 00 00 00 00 00	r2 = r3
     953:	67 02 00 00 04 00 00 00	r2 <<= 4
     954:	57 02 00 00 10 00 00 00	r2 &= 16
     955:	57 01 00 00 ef ff 00 00	r1 &= 65519
     956:	4f 12 00 00 00 00 00 00	r2 |= r1
     957:	6b 27 24 00 00 00 00 00	*(u16 *)(r7 + 36) = r2
     958:	57 03 00 00 01 00 00 00	r3 &= 1
     959:	b7 08 00 00 3c 00 00 00	r8 = 60
     960:	15 03 01 00 00 00 00 00	if r3 == 0 goto +1 <LBB4_136>
     961:	b7 08 00 00 60 54 00 00	r8 = 21600

0000000000001e10 <LBB4_136>:
     962:	85 00 00 00 05 00 00 00	call 5
     963:	37 00 00 00 00 ca 9a 3b	r0 /= 1000000000
     964:	0f 08 00 00 00 00 00 00	r8 += r0
     965:	63 87 20 00 00 00 00 00	*(u32 *)(r7 + 32) = r8
     966:	71 72 2a 00 00 00 00 00	r2 = *(u8 *)(r7 + 42)
     967:	bf 21 00 00 00 00 00 00	r1 = r2
     968:	4f 91 00 00 00 00 00 00	r1 |= r9
     969:	bf 13 00 00 00 00 00 00	r3 = r1
     970:	57 03 00 00 ff 00 00 00	r3 &= 255
     971:	b7 08 00 00 00 00 00 00	r8 = 0
     972:	5d 32 08 00 00 00 00 00	if r2 != r3 goto +8 <LBB4_138>
     973:	61 72 30 00 00 00 00 00	r2 = *(u32 *)(r7 + 48)
     974:	07 02 00 00 05 00 00 00	r2 += 5
     975:	bf 03 00 00 00 00 00 00	r3 = r0
     976:	67 03 00 00 20 00 00 00	r3 <<= 32
     977:	77 03 00 00 20 00 00 00	r3 >>= 32
     978:	67 02 00 00 20 00 00 00	r2 <<= 32
     979:	77 02 00 00 20 00 00 00	r2 >>= 32
     980:	3d 32 03 00 00 00 00 00	if r2 >= r3 goto +3 <LBB4_139>

0000000000001ea8 <LBB4_138>:
     981:	73 17 2a 00 00 00 00 00	*(u8 *)(r7 + 42) = r1
     982:	63 07 30 00 00 00 00 00	*(u32 *)(r7 + 48) = r0
     983:	b7 08 00 00 80 00 00 00	r8 = 128

0000000000001ec0 <LBB4_139>:
     984:	69 72 26 00 00 00 00 00	r2 = *(u16 *)(r7 + 38)
     985:	71 71 24 00 00 00 00 00	r1 = *(u8 *)(r7 + 36)
     986:	57 01 00 00 04 00 00 00	r1 &= 4
     987:	15 01 04 00 00 00 00 00	if r1 == 0 goto +4 <LBB4_142>
     988:	61 61 3c 00 00 00 00 00	r1 = *(u32 *)(r6 + 60)
     989:	55 01 02 00 00 00 00 00	if r1 != 0 goto +2 <LBB4_142>
     990:	b7 01 00 00 02 00 00 00	r1 = 2
     991:	63 16 3c 00 00 00 00 00	*(u32 *)(r6 + 60) = r1

0000000000001f00 <LBB4_142>:
     992:	7b 2a c8 fe 00 00 00 00	*(u64 *)(r10 - 312) = r2
     993:	b7 01 00 00 01 00 00 00	r1 = 1
     994:	db 17 10 00 00 00 00 00	lock *(u64 *)(r7 + 16) += r1
     995:	61 61 00 00 00 00 00 00	r1 = *(u32 *)(r6 + 0)
     996:	db 17 18 00 00 00 00 00	lock *(u64 *)(r7 + 24) += r1
     997:	79 a1 d8 fe 00 00 00 00	r1 = *(u64 *)(r10 - 296)
     998:	15 01 ec 00 02 00 00 00	if r1 == 2 goto +236 <LBB4_173>
     999:	67 01 00 00 20 00 00 00	r1 <<= 32
    1000:	77 01 00 00 20 00 00 00	r1 >>= 32
    1001:	55 01 04 01 01 00 00 00	if r1 != 1 goto +260 <LBB4_177>
    1002:	69 71 24 00 00 00 00 00	r1 = *(u16 *)(r7 + 36)
    1003:	bf 12 00 00 00 00 00 00	r2 = r1
    1004:	57 02 00 00 01 00 00 00	r2 &= 1
    1005:	bf 13 00 00 00 00 00 00	r3 = r1
    1006:	77 03 00 00 01 00 00 00	r3 >>= 1
    1007:	57 03 00 00 01 00 00 00	r3 &= 1
    1008:	87 03 00 00 00 00 00 00	r3 = -r3
    1009:	1d 32 fc 00 00 00 00 00	if r2 == r3 goto +252 <LBB4_177>
    1010:	bf 12 00 00 00 00 00 00	r2 = r1
    1011:	57 02 00 00 fc ff 00 00	r2 &= 65532
    1012:	6b 27 24 00 00 00 00 00	*(u16 *)(r7 + 36) = r2
    1013:	b7 08 00 00 3c 00 00 00	r8 = 60
    1014:	79 a2 b8 fe 00 00 00 00	r2 = *(u64 *)(r10 - 328)
    1015:	55 02 10 00 06 00 00 00	if r2 != 6 goto +16 <LBB4_148>
    1016:	79 a3 a0 fe 00 00 00 00	r3 = *(u64 *)(r10 - 352)
    1017:	a7 03 00 00 01 00 00 00	r3 ^= 1
    1018:	57 03 00 00 ff 00 00 00	r3 &= 255
    1019:	bf 12 00 00 00 00 00 00	r2 = r1
    1020:	77 02 00 00 04 00 00 00	r2 >>= 4
    1021:	4f 32 00 00 00 00 00 00	r2 |= r3
    1022:	bf 23 00 00 00 00 00 00	r3 = r2
    1023:	67 03 00 00 04 00 00 00	r3 <<= 4
    1024:	57 03 00 00 10 00 00 00	r3 &= 16
    1025:	57 01 00 00 ec ff 00 00	r1 &= 65516
    1026:	4f 13 00 00 00 00 00 00	r3 |= r1
    1027:	6b 37 24 00 00 00 00 00	*(u16 *)(r7 + 36) = r3
    1028:	57 02 00 00 01 00 00 00	r2 &= 1
    1029:	b7 08 00 00 3c 00 00 00	r8 = 60
    1030:	15 02 01 00 00 00 00 00	if r2 == 0 goto +1 <LBB4_148>
    1031:	b7 08 00 00 60 54 00 00	r8 = 21600

0000000000002040 <LBB4_148>:
    1032:	85 00 00 00 05 00 00 00	call 5
    1033:	37 00 00 00 00 ca 9a 3b	r0 /= 1000000000
    1034:	0f 08 00 00 00 00 00 00	r8 += r0
    1035:	63 87 20 00 00 00 00 00	*(u32 *)(r7 + 32) = r8
    1036:	71 72 2a 00 00 00 00 00	r2 = *(u8 *)(r7 + 42)
    1037:	bf 21 00 00 00 00 00 00	r1 = r2
    1038:	79 a3 b0 fe 00 00 00 00	r3 = *(u64 *)(r10 - 336)
    1039:	4f 31 00 00 00 00 00 00	r1 |= r3
    1040:	bf 13 00 00 00 00 00 00	r3 = r1
    1041:	57 03 00 00 ff 00 00 00	r3 &= 255
    1042:	5d 32 09 00 00 00 00 00	if r2 != r3 goto +9 <LBB4_150>
    1043:	b7 08 00 00 00 00 00 00	r8 = 0
    1044:	61 72 30 00 00 00 00 00	r2 = *(u32 *)(r7 + 48)
    1045:	07 02 00 00 05 00 00 00	r2 += 5
    1046:	bf 03 00 00 00 00 00 00	r3 = r0
    1047:	67 03 00 00 20 00 00 00	r3 <<= 32
    1048:	77 03 00 00 20 00 00 00	r3 >>= 32
    1049:	67 02 00 00 20 00 00 00	r2 <<= 32
    1050:	77 02 00 00 20 00 00 00	r2 >>= 32
    1051:	3d 32 d2 00 00 00 00 00	if r2 >= r3 goto +210 <LBB4_177>

00000000000020e0 <LBB4_150>:
    1052:	73 17 2a 00 00 00 00 00	*(u8 *)(r7 + 42) = r1
    1053:	63 07 30 00 00 00 00 00	*(u32 *)(r7 + 48) = r0
    1054:	b7 08 00 00 80 00 00 00	r8 = 128
    1055:	05 00 ce 00 00 00 00 00	goto +206 <LBB4_177>

0000000000002100 <LBB4_151>:
    1056:	71 a2 3d ff 00 00 00 00	r2 = *(u8 *)(r10 - 195)
    1057:	bf 21 00 00 00 00 00 00	r1 = r2
    1058:	47 01 00 00 01 00 00 00	r1 |= 1
    1059:	bf 23 00 00 00 00 00 00	r3 = r2
    1060:	57 03 00 00 01 00 00 00	r3 &= 1
    1061:	15 03 02 00 00 00 00 00	if r3 == 0 goto +2 <LBB4_153>
    1062:	57 02 00 00 fe 00 00 00	r2 &= 254
    1063:	bf 21 00 00 00 00 00 00	r1 = r2

0000000000002140 <LBB4_153>:
    1064:	79 a2 28 ff 00 00 00 00	r2 = *(u64 *)(r10 - 216)
    1065:	79 a3 18 ff 00 00 00 00	r3 = *(u64 *)(r10 - 232)
    1066:	7b 3a 28 ff 00 00 00 00	*(u64 *)(r10 - 216) = r3
    1067:	79 a3 20 ff 00 00 00 00	r3 = *(u64 *)(r10 - 224)
    1068:	79 a4 30 ff 00 00 00 00	r4 = *(u64 *)(r10 - 208)
    1069:	7b 4a 20 ff 00 00 00 00	*(u64 *)(r10 - 224) = r4
    1070:	7b 3a 30 ff 00 00 00 00	*(u64 *)(r10 - 208) = r3
    1071:	7b 2a 18 ff 00 00 00 00	*(u64 *)(r10 - 232) = r2
    1072:	69 a2 3a ff 00 00 00 00	r2 = *(u16 *)(r10 - 198)
    1073:	69 a3 38 ff 00 00 00 00	r3 = *(u16 *)(r10 - 200)
    1074:	6b 3a 3a ff 00 00 00 00	*(u16 *)(r10 - 198) = r3
    1075:	6b 2a 38 ff 00 00 00 00	*(u16 *)(r10 - 200) = r2
    1076:	73 1a 3d ff 00 00 00 00	*(u8 *)(r10 - 195) = r1
    1077:	71 a1 79 ff 00 00 00 00	r1 = *(u8 *)(r10 - 135)
    1078:	7b 1a b0 fe 00 00 00 00	*(u64 *)(r10 - 336) = r1
    1079:	71 a1 78 ff 00 00 00 00	r1 = *(u8 *)(r10 - 136)
    1080:	7b 1a a0 fe 00 00 00 00	*(u64 *)(r10 - 352) = r1
    1081:	bf a2 00 00 00 00 00 00	r2 = r10
    1082:	07 02 00 00 18 ff ff ff	r2 += -232
    1083:	bf 81 00 00 00 00 00 00	r1 = r8
    1084:	85 00 00 00 01 00 00 00	call 1
    1085:	bf 07 00 00 00 00 00 00	r7 = r0
    1086:	b7 08 00 00 80 00 00 00	r8 = 128
    1087:	b7 04 00 00 00 00 00 00	r4 = 0
    1088:	b7 01 00 00 00 00 00 00	r1 = 0
    1089:	7b 1a c8 fe 00 00 00 00	*(u64 *)(r10 - 312) = r1
    1090:	b7 09 00 00 00 00 00 00	r9 = 0
    1091:	15 07 b6 02 00 00 00 00	if r7 == 0 goto +694 <LBB4_220>
    1092:	69 78 26 00 00 00 00 00	r8 = *(u16 *)(r7 + 38)
    1093:	61 79 20 00 00 00 00 00	r9 = *(u32 *)(r7 + 32)
    1094:	bf 61 00 00 00 00 00 00	r1 = r6
    1095:	85 00 00 00 22 00 00 00	call 34
    1096:	63 0a a4 ff 00 00 00 00	*(u32 *)(r10 - 92) = r0
    1097:	b7 01 00 00 02 08 10 10	r1 = 269486082
    1098:	63 1a a0 ff 00 00 00 00	*(u32 *)(r10 - 96) = r1
    1099:	63 9a a8 ff 00 00 00 00	*(u32 *)(r10 - 88) = r9
    1100:	63 8a ac ff 00 00 00 00	*(u32 *)(r10 - 84) = r8
    1101:	b7 01 00 00 00 00 00 00	r1 = 0
    1102:	63 1a b0 ff 00 00 00 00	*(u32 *)(r10 - 80) = r1
    1103:	bf a4 00 00 00 00 00 00	r4 = r10
    1104:	07 04 00 00 a0 ff ff ff	r4 += -96
    1105:	bf 61 00 00 00 00 00 00	r1 = r6
    1106:	18 02 00 00 00 00 00 00 00 00 00 00 00 00 00 00	r2 = 0 ll
    1108:	18 03 00 00 ff ff ff ff 00 00 00 00 00 00 00 00	r3 = 4294967295 ll
    1110:	b7 05 00 00 14 00 00 00	r5 = 20
    1111:	85 00 00 00 19 00 00 00	call 25
    1112:	69 71 24 00 00 00 00 00	r1 = *(u16 *)(r7 + 36)
    1113:	bf 12 00 00 00 00 00 00	r2 = r1
    1114:	57 02 00 00 03 00 00 00	r2 &= 3
    1115:	b7 08 00 00 80 00 00 00	r8 = 128
    1116:	15 02 2a 00 03 00 00 00	if r2 == 3 goto +42 <LBB4_161>
    1117:	b7 08 00 00 3c 00 00 00	r8 = 60
    1118:	79 a2 b8 fe 00 00 00 00	r2 = *(u64 *)(r10 - 328)
    1119:	55 02 10 00 06 00 00 00	if r2 != 6 goto +16 <LBB4_158>
    1120:	79 a2 a0 fe 00 00 00 00	r2 = *(u64 *)(r10 - 352)
    1121:	a7 02 00 00 01 00 00 00	r2 ^= 1
    1122:	57 02 00 00 ff 00 00 00	r2 &= 255
    1123:	bf 13 00 00 00 00 00 00	r3 = r1
    1124:	77 03 00 00 04 00 00 00	r3 >>= 4
    1125:	4f 23 00 00 00 00 00 00	r3 |= r2
    1126:	bf 32 00 00 00 00 00 00	r2 = r3
    1127:	67 02 00 00 04 00 00 00	r2 <<= 4
    1128:	57 02 00 00 10 00 00 00	r2 &= 16
    1129:	57 01 00 00 ef ff 00 00	r1 &= 65519
    1130:	4f 12 00 00 00 00 00 00	r2 |= r1
    1131:	6b 27 24 00 00 00 00 00	*(u16 *)(r7 + 36) = r2
    1132:	57 03 00 00 01 00 00 00	r3 &= 1
    1133:	b7 08 00 00 3c 00 00 00	r8 = 60
    1134:	15 03 01 00 00 00 00 00	if r3 == 0 goto +1 <LBB4_158>
    1135:	b7 08 00 00 60 54 00 00	r8 = 21600

0000000000002380 <LBB4_158>:
    1136:	85 00 00 00 05 00 00 00	call 5
    1137:	37 00 00 00 00 ca 9a 3b	r0 /= 1000000000
    1138:	0f 08 00 00 00 00 00 00	r8 += r0
    1139:	63 87 20 00 00 00 00 00	*(u32 *)(r7 + 32) = r8
    1140:	71 72 2a 00 00 00 00 00	r2 = *(u8 *)(r7 + 42)
    1141:	bf 21 00 00 00 00 00 00	r1 = r2
    1142:	79 a3 b0 fe 00 00 00 00	r3 = *(u64 *)(r10 - 336)
    1143:	4f 31 00 00 00 00 00 00	r1 |= r3
    1144:	bf 13 00 00 00 00 00 00	r3 = r1
    1145:	57 03 00 00 ff 00 00 00	r3 &= 255
    1146:	5d 32 09 00 00 00 00 00	if r2 != r3 goto +9 <LBB4_160>
    1147:	b7 08 00 00 00 00 00 00	r8 = 0
    1148:	61 72 30 00 00 00 00 00	r2 = *(u32 *)(r7 + 48)
    1149:	07 02 00 00 05 00 00 00	r2 += 5
    1150:	bf 03 00 00 00 00 00 00	r3 = r0
    1151:	67 03 00 00 20 00 00 00	r3 <<= 32
    1152:	77 03 00 00 20 00 00 00	r3 >>= 32
    1153:	67 02 00 00 20 00 00 00	r2 <<= 32
    1154:	77 02 00 00 20 00 00 00	r2 >>= 32
    1155:	3d 32 03 00 00 00 00 00	if r2 >= r3 goto +3 <LBB4_161>

0000000000002420 <LBB4_160>:
    1156:	73 17 2a 00 00 00 00 00	*(u8 *)(r7 + 42) = r1
    1157:	63 07 30 00 00 00 00 00	*(u32 *)(r7 + 48) = r0
    1158:	b7 08 00 00 80 00 00 00	r8 = 128

0000000000002438 <LBB4_161>:
    1159:	69 72 26 00 00 00 00 00	r2 = *(u16 *)(r7 + 38)
    1160:	71 71 24 00 00 00 00 00	r1 = *(u8 *)(r7 + 36)
    1161:	57 01 00 00 04 00 00 00	r1 &= 4
    1162:	15 01 04 00 00 00 00 00	if r1 == 0 goto +4 <LBB4_164>
    1163:	61 61 3c 00 00 00 00 00	r1 = *(u32 *)(r6 + 60)
    1164:	55 01 02 00 00 00 00 00	if r1 != 0 goto +2 <LBB4_164>
    1165:	b7 01 00 00 02 00 00 00	r1 = 2
    1166:	63 16 3c 00 00 00 00 00	*(u32 *)(r6 + 60) = r1

0000000000002478 <LBB4_164>:
    1167:	7b 2a c8 fe 00 00 00 00	*(u64 *)(r10 - 312) = r2
    1168:	b7 09 00 00 01 00 00 00	r9 = 1
    1169:	b7 01 00 00 01 00 00 00	r1 = 1
    1170:	db 17 10 00 00 00 00 00	lock *(u64 *)(r7 + 16) += r1
    1171:	61 61 00 00 00 00 00 00	r1 = *(u32 *)(r6 + 0)
    1172:	db 17 18 00 00 00 00 00	lock *(u64 *)(r7 + 24) += r1
    1173:	79 a1 d8 fe 00 00 00 00	r1 = *(u64 *)(r10 - 296)
    1174:	b7 04 00 00 00 00 00 00	r4 = 0
    1175:	15 01 45 02 02 00 00 00	if r1 == 2 goto +581 <LBB4_216>
    1176:	67 01 00 00 20 00 00 00	r1 <<= 32
    1177:	77 01 00 00 20 00 00 00	r1 >>= 32
    1178:	55 01 5f 02 01 00 00 00	if r1 != 1 goto +607 <LBB4_220>
    1179:	69 71 24 00 00 00 00 00	r1 = *(u16 *)(r7 + 36)
    1180:	bf 12 00 00 00 00 00 00	r2 = r1
    1181:	57 02 00 00 01 00 00 00	r2 &= 1
    1182:	bf 13 00 00 00 00 00 00	r3 = r1
    1183:	77 03 00 00 01 00 00 00	r3 >>= 1
    1184:	57 03 00 00 01 00 00 00	r3 &= 1
    1185:	87 03 00 00 00 00 00 00	r3 = -r3
    1186:	1d 32 57 02 00 00 00 00	if r2 == r3 goto +599 <LBB4_220>
    1187:	bf 12 00 00 00 00 00 00	r2 = r1
    1188:	57 02 00 00 fc ff 00 00	r2 &= 65532
    1189:	6b 27 24 00 00 00 00 00	*(u16 *)(r7 + 36) = r2
    1190:	b7 08 00 00 3c 00 00 00	r8 = 60
    1191:	79 a2 b8 fe 00 00 00 00	r2 = *(u64 *)(r10 - 328)
    1192:	55 02 10 00 06 00 00 00	if r2 != 6 goto +16 <LBB4_170>
    1193:	79 a3 a0 fe 00 00 00 00	r3 = *(u64 *)(r10 - 352)
    1194:	a7 03 00 00 01 00 00 00	r3 ^= 1
    1195:	57 03 00 00 ff 00 00 00	r3 &= 255
    1196:	bf 12 00 00 00 00 00 00	r2 = r1
    1197:	77 02 00 00 04 00 00 00	r2 >>= 4
    1198:	4f 32 00 00 00 00 00 00	r2 |= r3
    1199:	bf 23 00 00 00 00 00 00	r3 = r2
    1200:	67 03 00 00 04 00 00 00	r3 <<= 4
    1201:	57 03 00 00 10 00 00 00	r3 &= 16
    1202:	57 01 00 00 ec ff 00 00	r1 &= 65516
    1203:	4f 13 00 00 00 00 00 00	r3 |= r1
    1204:	6b 37 24 00 00 00 00 00	*(u16 *)(r7 + 36) = r3
    1205:	57 02 00 00 01 00 00 00	r2 &= 1
    1206:	b7 08 00 00 3c 00 00 00	r8 = 60
    1207:	15 02 01 00 00 00 00 00	if r2 == 0 goto +1 <LBB4_170>
    1208:	b7 08 00 00 60 54 00 00	r8 = 21600

00000000000025c8 <LBB4_170>:
    1209:	85 00 00 00 05 00 00 00	call 5
    1210:	37 00 00 00 00 ca 9a 3b	r0 /= 1000000000
    1211:	0f 08 00 00 00 00 00 00	r8 += r0
    1212:	63 87 20 00 00 00 00 00	*(u32 *)(r7 + 32) = r8
    1213:	71 72 2a 00 00 00 00 00	r2 = *(u8 *)(r7 + 42)
    1214:	bf 21 00 00 00 00 00 00	r1 = r2
    1215:	79 a3 b0 fe 00 00 00 00	r3 = *(u64 *)(r10 - 336)
    1216:	4f 31 00 00 00 00 00 00	r1 |= r3
    1217:	bf 13 00 00 00 00 00 00	r3 = r1
    1218:	57 03 00 00 ff 00 00 00	r3 &= 255
    1219:	b7 09 00 00 01 00 00 00	r9 = 1
    1220:	b7 04 00 00 00 00 00 00	r4 = 0
    1221:	5d 32 09 00 00 00 00 00	if r2 != r3 goto +9 <LBB4_172>
    1222:	b7 08 00 00 00 00 00 00	r8 = 0
    1223:	61 72 30 00 00 00 00 00	r2 = *(u32 *)(r7 + 48)
    1224:	07 02 00 00 05 00 00 00	r2 += 5
    1225:	bf 03 00 00 00 00 00 00	r3 = r0
    1226:	67 03 00 00 20 00 00 00	r3 <<= 32
    1227:	77 03 00 00 20 00 00 00	r3 >>= 32
    1228:	67 02 00 00 20 00 00 00	r2 <<= 32
    1229:	77 02 00 00 20 00 00 00	r2 >>= 32
    1230:	3d 32 2b 02 00 00 00 00	if r2 >= r3 goto +555 <LBB4_220>

0000000000002678 <LBB4_172>:
    1231:	73 17 2a 00 00 00 00 00	*(u8 *)(r7 + 42) = r1
    1232:	63 07 30 00 00 00 00 00	*(u32 *)(r7 + 48) = r0
    1233:	b7 08 00 00 80 00 00 00	r8 = 128
    1234:	05 00 27 02 00 00 00 00	goto +551 <LBB4_220>

0000000000002698 <LBB4_173>:
    1235:	69 71 24 00 00 00 00 00	r1 = *(u16 *)(r7 + 36)
    1236:	47 01 00 00 02 00 00 00	r1 |= 2
    1237:	6b 17 24 00 00 00 00 00	*(u16 *)(r7 + 36) = r1
    1238:	b7 08 00 00 80 00 00 00	r8 = 128
    1239:	57 01 00 00 03 00 00 00	r1 &= 3
    1240:	55 01 15 00 03 00 00 00	if r1 != 3 goto +21 <LBB4_177>
    1241:	85 00 00 00 05 00 00 00	call 5
    1242:	37 00 00 00 00 ca 9a 3b	r0 /= 1000000000
    1243:	bf 01 00 00 00 00 00 00	r1 = r0
    1244:	07 01 00 00 0a 00 00 00	r1 += 10
    1245:	63 17 20 00 00 00 00 00	*(u32 *)(r7 + 32) = r1
    1246:	71 72 2a 00 00 00 00 00	r2 = *(u8 *)(r7 + 42)
    1247:	bf 21 00 00 00 00 00 00	r1 = r2
    1248:	4f 91 00 00 00 00 00 00	r1 |= r9
    1249:	bf 13 00 00 00 00 00 00	r3 = r1
    1250:	57 03 00 00 ff 00 00 00	r3 &= 255
    1251:	5d 32 08 00 00 00 00 00	if r2 != r3 goto +8 <LBB4_176>
    1252:	61 72 30 00 00 00 00 00	r2 = *(u32 *)(r7 + 48)
    1253:	07 02 00 00 05 00 00 00	r2 += 5
    1254:	bf 03 00 00 00 00 00 00	r3 = r0
    1255:	67 03 00 00 20 00 00 00	r3 <<= 32
    1256:	77 03 00 00 20 00 00 00	r3 >>= 32
    1257:	67 02 00 00 20 00 00 00	r2 <<= 32
    1258:	77 02 00 00 20 00 00 00	r2 >>= 32
    1259:	3d 32 02 00 00 00 00 00	if r2 >= r3 goto +2 <LBB4_177>

0000000000002760 <LBB4_176>:
    1260:	73 17 2a 00 00 00 00 00	*(u8 *)(r7 + 42) = r1
    1261:	63 07 30 00 00 00 00 00	*(u32 *)(r7 + 48) = r0

0000000000002770 <LBB4_177>:
    1262:	71 a9 3d ff 00 00 00 00	r9 = *(u8 *)(r10 - 195)
    1263:	77 09 00 00 01 00 00 00	r9 >>= 1
    1264:	57 09 00 00 01 00 00 00	r9 &= 1
    1265:	47 09 00 00 02 00 00 00	r9 |= 2
    1266:	05 00 08 02 00 00 00 00	goto +520 <LBB4_221>

0000000000002798 <LBB4_178>:
    1267:	63 76 3c 00 00 00 00 00	*(u32 *)(r6 + 60) = r7
    1268:	b7 01 00 00 00 00 00 00	r1 = 0
    1269:	7b 1a f0 fe 00 00 00 00	*(u64 *)(r10 - 272) = r1
    1270:	b7 01 00 00 00 00 00 00	r1 = 0
    1271:	7b 1a f8 fe 00 00 00 00	*(u64 *)(r10 - 264) = r1
    1272:	b7 09 00 00 00 00 00 00	r9 = 0
    1273:	05 00 20 00 00 00 00 00	goto +32 <LBB4_184>

00000000000027d0 <LBB4_179>:
    1274:	69 81 24 00 00 00 00 00	r1 = *(u16 *)(r8 + 36)
    1275:	47 01 00 00 02 00 00 00	r1 |= 2
    1276:	6b 18 24 00 00 00 00 00	*(u16 *)(r8 + 36) = r1
    1277:	57 01 00 00 03 00 00 00	r1 &= 3
    1278:	55 01 16 00 03 00 00 00	if r1 != 3 goto +22 <LBB4_183>
    1279:	85 00 00 00 05 00 00 00	call 5
    1280:	37 00 00 00 00 ca 9a 3b	r0 /= 1000000000
    1281:	bf 01 00 00 00 00 00 00	r1 = r0
    1282:	07 01 00 00 0a 00 00 00	r1 += 10
    1283:	63 18 20 00 00 00 00 00	*(u32 *)(r8 + 32) = r1
    1284:	71 82 2a 00 00 00 00 00	r2 = *(u8 *)(r8 + 42)
    1285:	bf 21 00 00 00 00 00 00	r1 = r2
    1286:	79 a3 b0 fe 00 00 00 00	r3 = *(u64 *)(r10 - 336)
    1287:	4f 31 00 00 00 00 00 00	r1 |= r3
    1288:	bf 13 00 00 00 00 00 00	r3 = r1
    1289:	57 03 00 00 ff 00 00 00	r3 &= 255
    1290:	5d 32 08 00 00 00 00 00	if r2 != r3 goto +8 <LBB4_182>
    1291:	61 82 30 00 00 00 00 00	r2 = *(u32 *)(r8 + 48)
    1292:	07 02 00 00 05 00 00 00	r2 += 5
    1293:	bf 03 00 00 00 00 00 00	r3 = r0
    1294:	67 03 00 00 20 00 00 00	r3 <<= 32
    1295:	77 03 00 00 20 00 00 00	r3 >>= 32
    1296:	67 02 00 00 20 00 00 00	r2 <<= 32
    1297:	77 02 00 00 20 00 00 00	r2 >>= 32
    1298:	3d 32 02 00 00 00 00 00	if r2 >= r3 goto +2 <LBB4_183>

0000000000002898 <LBB4_182>:
    1299:	73 18 2a 00 00 00 00 00	*(u8 *)(r8 + 42) = r1
    1300:	63 08 30 00 00 00 00 00	*(u32 *)(r8 + 48) = r0

00000000000028a8 <LBB4_183>:
    1301:	57 07 00 00 01 00 00 00	r7 &= 1
    1302:	71 a9 3d ff 00 00 00 00	r9 = *(u8 *)(r10 - 195)
    1303:	77 09 00 00 01 00 00 00	r9 >>= 1
    1304:	57 09 00 00 01 00 00 00	r9 &= 1
    1305:	47 09 00 00 02 00 00 00	r9 |= 2

00000000000028d0 <LBB4_184>:
    1306:	bf 61 00 00 00 00 00 00	r1 = r6
    1307:	85 00 00 00 22 00 00 00	call 34
    1308:	63 0a a4 ff 00 00 00 00	*(u32 *)(r10 - 92) = r0
    1309:	b7 01 00 00 02 0f 10 10	r1 = 269487874
    1310:	63 1a a0 ff 00 00 00 00	*(u32 *)(r10 - 96) = r1
    1311:	63 9a a8 ff 00 00 00 00	*(u32 *)(r10 - 88) = r9
    1312:	b7 08 00 00 00 00 00 00	r8 = 0
    1313:	63 8a b0 ff 00 00 00 00	*(u32 *)(r10 - 80) = r8
    1314:	79 a1 f8 fe 00 00 00 00	r1 = *(u64 *)(r10 - 264)
    1315:	57 01 00 00 ff ff 00 00	r1 &= 65535
    1316:	7b 1a 00 ff 00 00 00 00	*(u64 *)(r10 - 256) = r1
    1317:	63 1a ac ff 00 00 00 00	*(u32 *)(r10 - 84) = r1
    1318:	bf a4 00 00 00 00 00 00	r4 = r10
    1319:	07 04 00 00 a0 ff ff ff	r4 += -96
    1320:	bf 61 00 00 00 00 00 00	r1 = r6
    1321:	18 02 00 00 00 00 00 00 00 00 00 00 00 00 00 00	r2 = 0 ll
    1323:	18 03 00 00 ff ff ff ff 00 00 00 00 00 00 00 00	r3 = 4294967295 ll
    1325:	b7 05 00 00 14 00 00 00	r5 = 20
    1326:	85 00 00 00 19 00 00 00	call 25
    1327:	69 a1 38 ff 00 00 00 00	r1 = *(u16 *)(r10 - 200)
    1328:	55 01 08 00 00 35 00 00	if r1 != 13568 goto +8 <LBB4_186>
    1329:	63 8a a0 ff 00 00 00 00	*(u32 *)(r10 - 96) = r8
    1330:	bf a3 00 00 00 00 00 00	r3 = r10
    1331:	07 03 00 00 a0 ff ff ff	r3 += -96
    1332:	b7 01 00 00 00 00 00 00	r1 = 0
    1333:	b7 02 00 00 00 00 00 00	r2 = 0
    1334:	b7 04 00 00 01 00 00 00	r4 = 1
    1335:	b7 05 00 00 00 00 00 00	r5 = 0
    1336:	85 00 00 00 1c 00 00 00	call 28

00000000000029c8 <LBB4_186>:
    1337:	7b 7a d0 fe 00 00 00 00	*(u64 *)(r10 - 304) = r7
    1338:	57 09 00 00 ff 00 00 00	r9 &= 255
    1339:	bf 91 00 00 00 00 00 00	r1 = r9
    1340:	07 01 00 00 ff ff ff ff	r1 += -1
    1341:	a5 01 01 00 03 00 00 00	if r1 < 3 goto +1 <LBB4_187>
    1342:	05 00 a7 00 00 00 00 00	goto +167 <LBB4_200>

00000000000029f8 <LBB4_187>:
    1343:	79 a8 f0 fe 00 00 00 00	r8 = *(u64 *)(r10 - 272)
    1344:	6b 8a 6a ff 00 00 00 00	*(u16 *)(r10 - 150) = r8
    1345:	69 a7 68 ff 00 00 00 00	r7 = *(u16 *)(r10 - 152)
    1346:	bf 61 00 00 00 00 00 00	r1 = r6
    1347:	85 00 00 00 22 00 00 00	call 34
    1348:	63 0a a4 ff 00 00 00 00	*(u32 *)(r10 - 92) = r0
    1349:	b7 01 00 00 02 18 10 10	r1 = 269490178
    1350:	63 1a a0 ff 00 00 00 00	*(u32 *)(r10 - 96) = r1
    1351:	bf 81 00 00 00 00 00 00	r1 = r8
    1352:	57 01 00 00 ff ff 00 00	r1 &= 65535
    1353:	63 1a a8 ff 00 00 00 00	*(u32 *)(r10 - 88) = r1
    1354:	63 7a ac ff 00 00 00 00	*(u32 *)(r10 - 84) = r7
    1355:	b7 01 00 00 00 00 00 00	r1 = 0
    1356:	63 1a b0 ff 00 00 00 00	*(u32 *)(r10 - 80) = r1
    1357:	bf a4 00 00 00 00 00 00	r4 = r10
    1358:	07 04 00 00 a0 ff ff ff	r4 += -96
    1359:	bf 61 00 00 00 00 00 00	r1 = r6
    1360:	18 02 00 00 00 00 00 00 00 00 00 00 00 00 00 00	r2 = 0 ll
    1362:	18 03 00 00 ff ff ff ff 00 00 00 00 00 00 00 00	r3 = 4294967295 ll
    1364:	b7 05 00 00 14 00 00 00	r5 = 20
    1365:	85 00 00 00 19 00 00 00	call 25
    1366:	bf a2 00 00 00 00 00 00	r2 = r10
    1367:	07 02 00 00 58 ff ff ff	r2 += -168
    1368:	18 01 00 00 00 00 00 00 00 00 00 00 00 00 00 00	r1 = 0 ll
    1370:	85 00 00 00 01 00 00 00	call 1
    1371:	15 00 fa 00 00 00 00 00	if r0 == 0 goto +250 <LBB4_207>
    1372:	71 07 11 00 00 00 00 00	r7 = *(u8 *)(r0 + 17)
    1373:	67 07 00 00 08 00 00 00	r7 <<= 8
    1374:	71 01 10 00 00 00 00 00	r1 = *(u8 *)(r0 + 16)
    1375:	4f 17 00 00 00 00 00 00	r7 |= r1
    1376:	71 01 0e 00 00 00 00 00	r1 = *(u8 *)(r0 + 14)
    1377:	7b 1a f8 fe 00 00 00 00	*(u64 *)(r10 - 264) = r1
    1378:	71 09 0f 00 00 00 00 00	r9 = *(u8 *)(r0 + 15)
    1379:	71 01 0c 00 00 00 00 00	r1 = *(u8 *)(r0 + 12)
    1380:	7b 1a d8 fe 00 00 00 00	*(u64 *)(r10 - 296) = r1
    1381:	7b 0a 00 ff 00 00 00 00	*(u64 *)(r10 - 256) = r0
    1382:	79 a1 00 ff 00 00 00 00	r1 = *(u64 *)(r10 - 256)
    1383:	71 18 0d 00 00 00 00 00	r8 = *(u8 *)(r1 + 13)
    1384:	bf 61 00 00 00 00 00 00	r1 = r6
    1385:	85 00 00 00 22 00 00 00	call 34
    1386:	63 0a a4 ff 00 00 00 00	*(u32 *)(r10 - 92) = r0
    1387:	b7 01 00 00 02 19 10 10	r1 = 269490434
    1388:	63 1a a0 ff 00 00 00 00	*(u32 *)(r10 - 96) = r1
    1389:	63 7a ac ff 00 00 00 00	*(u32 *)(r10 - 84) = r7
    1390:	b7 01 00 00 00 00 00 00	r1 = 0
    1391:	63 1a b0 ff 00 00 00 00	*(u32 *)(r10 - 80) = r1
    1392:	67 08 00 00 08 00 00 00	r8 <<= 8
    1393:	79 a1 d8 fe 00 00 00 00	r1 = *(u64 *)(r10 - 296)
    1394:	4f 18 00 00 00 00 00 00	r8 |= r1
    1395:	67 09 00 00 08 00 00 00	r9 <<= 8
    1396:	79 a1 f8 fe 00 00 00 00	r1 = *(u64 *)(r10 - 264)
    1397:	4f 19 00 00 00 00 00 00	r9 |= r1
    1398:	67 09 00 00 10 00 00 00	r9 <<= 16
    1399:	4f 89 00 00 00 00 00 00	r9 |= r8
    1400:	79 a8 00 ff 00 00 00 00	r8 = *(u64 *)(r10 - 256)
    1401:	63 9a a8 ff 00 00 00 00	*(u32 *)(r10 - 88) = r9
    1402:	bf a4 00 00 00 00 00 00	r4 = r10
    1403:	07 04 00 00 a0 ff ff ff	r4 += -96
    1404:	bf 61 00 00 00 00 00 00	r1 = r6
    1405:	18 02 00 00 00 00 00 00 00 00 00 00 00 00 00 00	r2 = 0 ll
    1407:	18 03 00 00 ff ff ff ff 00 00 00 00 00 00 00 00	r3 = 4294967295 ll
    1409:	b7 05 00 00 14 00 00 00	r5 = 20
    1410:	85 00 00 00 19 00 00 00	call 25

0000000000002c18 <LBB4_189>:
    1411:	79 a1 c8 fe 00 00 00 00	r1 = *(u64 *)(r10 - 312)
    1412:	73 1a 3d ff 00 00 00 00	*(u8 *)(r10 - 195) = r1
    1413:	61 81 00 00 00 00 00 00	r1 = *(u32 *)(r8 + 0)
    1414:	63 1a 18 ff 00 00 00 00	*(u32 *)(r10 - 232) = r1
    1415:	61 81 04 00 00 00 00 00	r1 = *(u32 *)(r8 + 4)
    1416:	63 1a 1c ff 00 00 00 00	*(u32 *)(r10 - 228) = r1
    1417:	61 81 08 00 00 00 00 00	r1 = *(u32 *)(r8 + 8)
    1418:	63 1a 20 ff 00 00 00 00	*(u32 *)(r10 - 224) = r1
    1419:	61 81 0c 00 00 00 00 00	r1 = *(u32 *)(r8 + 12)
    1420:	63 1a 24 ff 00 00 00 00	*(u32 *)(r10 - 220) = r1
    1421:	71 81 14 00 00 00 00 00	r1 = *(u8 *)(r8 + 20)
    1422:	7b 1a f8 fe 00 00 00 00	*(u64 *)(r10 - 264) = r1
    1423:	7b 8a 00 ff 00 00 00 00	*(u64 *)(r10 - 256) = r8
    1424:	71 88 15 00 00 00 00 00	r8 = *(u8 *)(r8 + 21)
    1425:	71 a1 3c ff 00 00 00 00	r1 = *(u8 *)(r10 - 196)
    1426:	7b 1a d8 fe 00 00 00 00	*(u64 *)(r10 - 296) = r1
    1427:	bf a7 00 00 00 00 00 00	r7 = r10
    1428:	07 07 00 00 18 ff ff ff	r7 += -232
    1429:	bf 61 00 00 00 00 00 00	r1 = r6
    1430:	b7 02 00 00 26 00 00 00	r2 = 38
    1431:	bf 73 00 00 00 00 00 00	r3 = r7
    1432:	b7 04 00 00 10 00 00 00	r4 = 16
    1433:	b7 05 00 00 00 00 00 00	r5 = 0
    1434:	85 00 00 00 09 00 00 00	call 9
    1435:	bf a1 00 00 00 00 00 00	r1 = r10
    1436:	07 01 00 00 58 ff ff ff	r1 += -168
    1437:	b7 02 00 00 10 00 00 00	r2 = 16
    1438:	bf 73 00 00 00 00 00 00	r3 = r7
    1439:	b7 04 00 00 10 00 00 00	r4 = 16
    1440:	b7 05 00 00 00 00 00 00	r5 = 0
    1441:	85 00 00 00 1c 00 00 00	call 28
    1442:	79 a1 e0 fe 00 00 00 00	r1 = *(u64 *)(r10 - 288)
    1443:	57 01 00 00 ff ff 00 00	r1 &= 65535
    1444:	79 a9 08 ff 00 00 00 00	r9 = *(u64 *)(r10 - 248)
    1445:	0f 19 00 00 00 00 00 00	r9 += r1
    1446:	79 a5 e8 fe 00 00 00 00	r5 = *(u64 *)(r10 - 280)
    1447:	47 05 00 00 10 00 00 00	r5 |= 16
    1448:	57 05 00 00 ff ff 00 00	r5 &= 65535
    1449:	bf 61 00 00 00 00 00 00	r1 = r6
    1450:	bf 92 00 00 00 00 00 00	r2 = r9
    1451:	b7 03 00 00 00 00 00 00	r3 = 0
    1452:	bf 04 00 00 00 00 00 00	r4 = r0
    1453:	85 00 00 00 0b 00 00 00	call 11
    1454:	67 08 00 00 08 00 00 00	r8 <<= 8
    1455:	79 a1 f8 fe 00 00 00 00	r1 = *(u64 *)(r10 - 264)
    1456:	4f 18 00 00 00 00 00 00	r8 |= r1
    1457:	7b 8a f8 fe 00 00 00 00	*(u64 *)(r10 - 264) = r8
    1458:	18 07 00 00 66 ff ff ff 00 00 00 00 00 00 00 00	r7 = 4294967142 ll
    1460:	67 00 00 00 20 00 00 00	r0 <<= 32
    1461:	c7 00 00 00 20 00 00 00	r0 s>>= 32
    1462:	c5 00 1a fd 00 00 00 00	if r0 s< 0 goto -742 <LBB4_110>
    1463:	79 a2 00 ff 00 00 00 00	r2 = *(u64 *)(r10 - 256)
    1464:	71 21 10 00 00 00 00 00	r1 = *(u8 *)(r2 + 16)
    1465:	71 24 11 00 00 00 00 00	r4 = *(u8 *)(r2 + 17)
    1466:	67 04 00 00 08 00 00 00	r4 <<= 8
    1467:	4f 14 00 00 00 00 00 00	r4 |= r1
    1468:	15 04 27 00 00 00 00 00	if r4 == 0 goto +39 <LBB4_199>
    1469:	69 a3 68 ff 00 00 00 00	r3 = *(u16 *)(r10 - 152)
    1470:	1d 43 25 00 00 00 00 00	if r3 == r4 goto +37 <LBB4_199>
    1471:	79 a1 d8 fe 00 00 00 00	r1 = *(u64 *)(r10 - 296)
    1472:	15 01 02 00 11 00 00 00	if r1 == 17 goto +2 <LBB4_194>
    1473:	79 a1 d8 fe 00 00 00 00	r1 = *(u64 *)(r10 - 296)
    1474:	55 01 21 00 06 00 00 00	if r1 != 6 goto +33 <LBB4_199>

0000000000002e18 <LBB4_194>:
    1475:	6b 4a a0 ff 00 00 00 00	*(u16 *)(r10 - 96) = r4
    1476:	79 a5 e8 fe 00 00 00 00	r5 = *(u64 *)(r10 - 280)
    1477:	47 05 00 00 02 00 00 00	r5 |= 2
    1478:	57 05 00 00 ff ff 00 00	r5 &= 65535
    1479:	bf 61 00 00 00 00 00 00	r1 = r6
    1480:	bf 92 00 00 00 00 00 00	r2 = r9
    1481:	85 00 00 00 0b 00 00 00	call 11
    1482:	18 07 00 00 66 ff ff ff 00 00 00 00 00 00 00 00	r7 = 4294967142 ll
    1484:	67 00 00 00 20 00 00 00	r0 <<= 32
    1485:	c7 00 00 00 20 00 00 00	r0 s>>= 32
    1486:	c5 00 0c 00 00 00 00 00	if r0 s< 0 goto +12 <LBB4_196>
    1487:	79 a2 10 ff 00 00 00 00	r2 = *(u64 *)(r10 - 240)
    1488:	07 02 00 00 10 00 00 00	r2 += 16
    1489:	bf a3 00 00 00 00 00 00	r3 = r10
    1490:	07 03 00 00 a0 ff ff ff	r3 += -96
    1491:	bf 61 00 00 00 00 00 00	r1 = r6
    1492:	b7 04 00 00 02 00 00 00	r4 = 2
    1493:	b7 05 00 00 00 00 00 00	r5 = 0
    1494:	85 00 00 00 09 00 00 00	call 9
    1495:	bf 07 00 00 00 00 00 00	r7 = r0
    1496:	67 07 00 00 20 00 00 00	r7 <<= 32
    1497:	c7 07 00 00 3f 00 00 00	r7 s>>= 63
    1498:	57 07 00 00 73 ff ff ff	r7 &= -141

0000000000002ed8 <LBB4_196>:
    1499:	bf 71 00 00 00 00 00 00	r1 = r7
    1500:	67 01 00 00 20 00 00 00	r1 <<= 32
    1501:	77 01 00 00 20 00 00 00	r1 >>= 32
    1502:	b7 02 00 00 01 00 00 00	r2 = 1
    1503:	15 01 01 00 02 00 00 00	if r1 == 2 goto +1 <LBB4_198>
    1504:	b7 02 00 00 00 00 00 00	r2 = 0

0000000000002f08 <LBB4_198>:
    1505:	77 01 00 00 1f 00 00 00	r1 >>= 31
    1506:	4f 21 00 00 00 00 00 00	r1 |= r2
    1507:	55 01 ed fc 00 00 00 00	if r1 != 0 goto -787 <LBB4_110>

0000000000002f20 <LBB4_199>:
    1508:	b7 07 00 00 00 00 00 00	r7 = 0
    1509:	05 00 eb fc 00 00 00 00	goto -789 <LBB4_110>

0000000000002f30 <LBB4_200>:
    1510:	79 a7 c8 fe 00 00 00 00	r7 = *(u64 *)(r10 - 312)
    1511:	55 09 e6 fc 00 00 00 00	if r9 != 0 goto -794 <LBB4_108>
    1512:	79 a1 c0 fe 00 00 00 00	r1 = *(u64 *)(r10 - 320)
    1513:	71 18 12 00 00 00 00 00	r8 = *(u8 *)(r1 + 18)
    1514:	71 19 13 00 00 00 00 00	r9 = *(u8 *)(r1 + 19)
    1515:	bf a7 00 00 00 00 00 00	r7 = r10
    1516:	07 07 00 00 a0 ff ff ff	r7 += -96
    1517:	bf 61 00 00 00 00 00 00	r1 = r6
    1518:	b7 02 00 00 00 00 00 00	r2 = 0
    1519:	bf 73 00 00 00 00 00 00	r3 = r7
    1520:	b7 04 00 00 04 00 00 00	r4 = 4
    1521:	85 00 00 00 1a 00 00 00	call 26
    1522:	bf 61 00 00 00 00 00 00	r1 = r6
    1523:	b7 02 00 00 00 00 00 00	r2 = 0
    1524:	bf 73 00 00 00 00 00 00	r3 = r7
    1525:	b7 04 00 00 04 00 00 00	r4 = 4
    1526:	b7 05 00 00 02 00 00 00	r5 = 2
    1527:	85 00 00 00 09 00 00 00	call 9
    1528:	67 09 00 00 08 00 00 00	r9 <<= 8
    1529:	4f 89 00 00 00 00 00 00	r9 |= r8
    1530:	bf 61 00 00 00 00 00 00	r1 = r6
    1531:	85 00 00 00 22 00 00 00	call 34
    1532:	bf 07 00 00 00 00 00 00	r7 = r0
    1533:	bf 61 00 00 00 00 00 00	r1 = r6
    1534:	85 00 00 00 22 00 00 00	call 34
    1535:	63 0a a4 ff 00 00 00 00	*(u32 *)(r10 - 92) = r0
    1536:	b7 01 00 00 02 15 10 10	r1 = 269489410
    1537:	63 1a a0 ff 00 00 00 00	*(u32 *)(r10 - 96) = r1
    1538:	63 7a a8 ff 00 00 00 00	*(u32 *)(r10 - 88) = r7
    1539:	67 07 00 00 20 00 00 00	r7 <<= 32
    1540:	77 07 00 00 20 00 00 00	r7 >>= 32
    1541:	bf 71 00 00 00 00 00 00	r1 = r7
    1542:	3f 91 00 00 00 00 00 00	r1 /= r9
    1543:	2f 91 00 00 00 00 00 00	r1 *= r9
    1544:	1f 17 00 00 00 00 00 00	r7 -= r1
    1545:	b7 01 00 00 00 00 00 00	r1 = 0
    1546:	63 1a b0 ff 00 00 00 00	*(u32 *)(r10 - 80) = r1
    1547:	07 07 00 00 01 00 00 00	r7 += 1
    1548:	63 7a ac ff 00 00 00 00	*(u32 *)(r10 - 84) = r7
    1549:	bf a4 00 00 00 00 00 00	r4 = r10
    1550:	07 04 00 00 a0 ff ff ff	r4 += -96
    1551:	bf 61 00 00 00 00 00 00	r1 = r6
    1552:	18 02 00 00 00 00 00 00 00 00 00 00 00 00 00 00	r2 = 0 ll
    1554:	18 03 00 00 ff ff ff ff 00 00 00 00 00 00 00 00	r3 = 4294967295 ll
    1556:	b7 05 00 00 14 00 00 00	r5 = 20
    1557:	85 00 00 00 19 00 00 00	call 25
    1558:	b7 01 00 00 00 00 00 00	r1 = 0
    1559:	7b 1a c0 ff 00 00 00 00	*(u64 *)(r10 - 64) = r1
    1560:	7b 1a c8 ff 00 00 00 00	*(u64 *)(r10 - 56) = r1
    1561:	7b 1a d0 ff 00 00 00 00	*(u64 *)(r10 - 48) = r1
    1562:	7b 1a b8 ff 00 00 00 00	*(u64 *)(r10 - 72) = r1
    1563:	7b 1a b0 ff 00 00 00 00	*(u64 *)(r10 - 80) = r1
    1564:	7b 1a a8 ff 00 00 00 00	*(u64 *)(r10 - 88) = r1
    1565:	7b 1a a0 ff 00 00 00 00	*(u64 *)(r10 - 96) = r1
    1566:	79 a1 f8 fe 00 00 00 00	r1 = *(u64 *)(r10 - 264)
    1567:	6b 1a c6 ff 00 00 00 00	*(u16 *)(r10 - 58) = r1
    1568:	79 a1 d0 fe 00 00 00 00	r1 = *(u64 *)(r10 - 304)
    1569:	67 01 00 00 03 00 00 00	r1 <<= 3
    1570:	6b 1a c4 ff 00 00 00 00	*(u16 *)(r10 - 60) = r1
    1571:	7b 7a f0 fe 00 00 00 00	*(u64 *)(r10 - 272) = r7
    1572:	6b 7a c8 ff 00 00 00 00	*(u16 *)(r10 - 56) = r7
    1573:	71 a2 3c ff 00 00 00 00	r2 = *(u8 *)(r10 - 196)
    1574:	55 02 01 00 06 00 00 00	if r2 != 6 goto +1 <LBB4_203>
    1575:	6b 1a c4 ff 00 00 00 00	*(u16 *)(r10 - 60) = r1

0000000000003140 <LBB4_203>:
    1576:	85 00 00 00 05 00 00 00	call 5
    1577:	37 00 00 00 00 ca 9a 3b	r0 /= 1000000000
    1578:	bf 01 00 00 00 00 00 00	r1 = r0
    1579:	07 01 00 00 3c 00 00 00	r1 += 60
    1580:	63 1a c0 ff 00 00 00 00	*(u32 *)(r10 - 64) = r1
    1581:	bf 01 00 00 00 00 00 00	r1 = r0
    1582:	67 01 00 00 20 00 00 00	r1 <<= 32
    1583:	77 01 00 00 20 00 00 00	r1 >>= 32
    1584:	a5 01 01 00 06 00 00 00	if r1 < 6 goto +1 <LBB4_205>
    1585:	63 0a d0 ff 00 00 00 00	*(u32 *)(r10 - 48) = r0

0000000000003190 <LBB4_205>:
    1586:	b7 01 00 00 01 00 00 00	r1 = 1
    1587:	7b 1a b0 ff 00 00 00 00	*(u64 *)(r10 - 80) = r1
    1588:	61 61 00 00 00 00 00 00	r1 = *(u32 *)(r6 + 0)
    1589:	7b 1a b8 ff 00 00 00 00	*(u64 *)(r10 - 72) = r1
    1590:	bf 61 00 00 00 00 00 00	r1 = r6
    1591:	85 00 00 00 22 00 00 00	call 34
    1592:	63 0a 7c ff 00 00 00 00	*(u32 *)(r10 - 132) = r0
    1593:	b7 01 00 00 02 31 10 10	r1 = 269496578
    1594:	63 1a 78 ff 00 00 00 00	*(u32 *)(r10 - 136) = r1
    1595:	79 a1 00 ff 00 00 00 00	r1 = *(u64 *)(r10 - 256)
    1596:	63 1a 80 ff 00 00 00 00	*(u32 *)(r10 - 128) = r1
    1597:	b7 07 00 00 00 00 00 00	r7 = 0
    1598:	63 7a 84 ff 00 00 00 00	*(u32 *)(r10 - 124) = r7
    1599:	63 7a 88 ff 00 00 00 00	*(u32 *)(r10 - 120) = r7
    1600:	bf a4 00 00 00 00 00 00	r4 = r10
    1601:	07 04 00 00 78 ff ff ff	r4 += -136
    1602:	bf 61 00 00 00 00 00 00	r1 = r6
    1603:	18 02 00 00 00 00 00 00 00 00 00 00 00 00 00 00	r2 = 0 ll
    1605:	18 03 00 00 ff ff ff ff 00 00 00 00 00 00 00 00	r3 = 4294967295 ll
    1607:	b7 05 00 00 14 00 00 00	r5 = 20
    1608:	85 00 00 00 19 00 00 00	call 25
    1609:	63 7a cc ff 00 00 00 00	*(u32 *)(r10 - 52) = r7
    1610:	bf a2 00 00 00 00 00 00	r2 = r10
    1611:	07 02 00 00 18 ff ff ff	r2 += -232
    1612:	bf a3 00 00 00 00 00 00	r3 = r10
    1613:	07 03 00 00 a0 ff ff ff	r3 += -96
    1614:	79 a8 d8 fe 00 00 00 00	r8 = *(u64 *)(r10 - 296)
    1615:	bf 81 00 00 00 00 00 00	r1 = r8
    1616:	b7 04 00 00 00 00 00 00	r4 = 0
    1617:	85 00 00 00 02 00 00 00	call 2
    1618:	67 00 00 00 20 00 00 00	r0 <<= 32
    1619:	c7 00 00 00 20 00 00 00	r0 s>>= 32
    1620:	65 00 02 02 ff ff ff ff	if r0 s> -1 goto +514 <LBB4_250>
    1621:	05 00 1c 02 00 00 00 00	goto +540 <LBB4_251>

00000000000032b0 <LBB4_207>:
    1622:	69 a7 68 ff 00 00 00 00	r7 = *(u16 *)(r10 - 152)
    1623:	15 07 20 00 00 00 00 00	if r7 == 0 goto +32 <LBB4_211>
    1624:	61 a8 64 ff 00 00 00 00	r8 = *(u32 *)(r10 - 156)
    1625:	bf 61 00 00 00 00 00 00	r1 = r6
    1626:	85 00 00 00 22 00 00 00	call 34
    1627:	63 0a a4 ff 00 00 00 00	*(u32 *)(r10 - 92) = r0
    1628:	b7 01 00 00 02 16 10 10	r1 = 269489666
    1629:	63 1a a0 ff 00 00 00 00	*(u32 *)(r10 - 96) = r1
    1630:	63 8a a8 ff 00 00 00 00	*(u32 *)(r10 - 88) = r8
    1631:	63 7a ac ff 00 00 00 00	*(u32 *)(r10 - 84) = r7
    1632:	b7 07 00 00 00 00 00 00	r7 = 0
    1633:	63 7a b0 ff 00 00 00 00	*(u32 *)(r10 - 80) = r7
    1634:	bf a4 00 00 00 00 00 00	r4 = r10
    1635:	07 04 00 00 a0 ff ff ff	r4 += -96
    1636:	bf 61 00 00 00 00 00 00	r1 = r6
    1637:	18 02 00 00 00 00 00 00 00 00 00 00 00 00 00 00	r2 = 0 ll
    1639:	18 03 00 00 ff ff ff ff 00 00 00 00 00 00 00 00	r3 = 4294967295 ll
    1641:	b7 05 00 00 14 00 00 00	r5 = 20
    1642:	85 00 00 00 19 00 00 00	call 25
    1643:	bf a2 00 00 00 00 00 00	r2 = r10
    1644:	07 02 00 00 58 ff ff ff	r2 += -168
    1645:	18 01 00 00 00 00 00 00 00 00 00 00 00 00 00 00	r1 = 0 ll
    1647:	85 00 00 00 01 00 00 00	call 1
    1648:	bf 08 00 00 00 00 00 00	r8 = r0
    1649:	15 08 05 00 00 00 00 00	if r8 == 0 goto +5 <LBB4_210>
    1650:	71 81 12 00 00 00 00 00	r1 = *(u8 *)(r8 + 18)
    1651:	71 89 13 00 00 00 00 00	r9 = *(u8 *)(r8 + 19)
    1652:	67 09 00 00 08 00 00 00	r9 <<= 8
    1653:	4f 19 00 00 00 00 00 00	r9 |= r1
    1654:	55 09 34 00 00 00 00 00	if r9 != 0 goto +52 <LBB4_214>

00000000000033b8 <LBB4_210>:
    1655:	6b 7a 68 ff 00 00 00 00	*(u16 *)(r10 - 152) = r7

00000000000033c0 <LBB4_211>:
    1656:	61 a7 64 ff 00 00 00 00	r7 = *(u32 *)(r10 - 156)
    1657:	bf 61 00 00 00 00 00 00	r1 = r6
    1658:	85 00 00 00 22 00 00 00	call 34
    1659:	63 0a a4 ff 00 00 00 00	*(u32 *)(r10 - 92) = r0
    1660:	b7 01 00 00 02 16 10 10	r1 = 269489666
    1661:	63 1a a0 ff 00 00 00 00	*(u32 *)(r10 - 96) = r1
    1662:	63 7a a8 ff 00 00 00 00	*(u32 *)(r10 - 88) = r7
    1663:	b7 07 00 00 00 00 00 00	r7 = 0
    1664:	63 7a ac ff 00 00 00 00	*(u32 *)(r10 - 84) = r7
    1665:	63 7a b0 ff 00 00 00 00	*(u32 *)(r10 - 80) = r7
    1666:	bf a4 00 00 00 00 00 00	r4 = r10
    1667:	07 04 00 00 a0 ff ff ff	r4 += -96
    1668:	bf 61 00 00 00 00 00 00	r1 = r6
    1669:	18 02 00 00 00 00 00 00 00 00 00 00 00 00 00 00	r2 = 0 ll
    1671:	18 03 00 00 ff ff ff ff 00 00 00 00 00 00 00 00	r3 = 4294967295 ll
    1673:	b7 05 00 00 14 00 00 00	r5 = 20
    1674:	85 00 00 00 19 00 00 00	call 25
    1675:	bf a2 00 00 00 00 00 00	r2 = r10
    1676:	07 02 00 00 58 ff ff ff	r2 += -168
    1677:	18 01 00 00 00 00 00 00 00 00 00 00 00 00 00 00	r1 = 0 ll
    1679:	85 00 00 00 01 00 00 00	call 1
    1680:	bf 08 00 00 00 00 00 00	r8 = r0
    1681:	15 08 05 00 00 00 00 00	if r8 == 0 goto +5 <LBB4_213>
    1682:	71 81 12 00 00 00 00 00	r1 = *(u8 *)(r8 + 18)
    1683:	71 89 13 00 00 00 00 00	r9 = *(u8 *)(r8 + 19)
    1684:	67 09 00 00 08 00 00 00	r9 <<= 8
    1685:	4f 19 00 00 00 00 00 00	r9 |= r1
    1686:	55 09 14 00 00 00 00 00	if r9 != 0 goto +20 <LBB4_214>

00000000000034b8 <LBB4_213>:
    1687:	61 a8 60 ff 00 00 00 00	r8 = *(u32 *)(r10 - 160)
    1688:	61 a9 5c ff 00 00 00 00	r9 = *(u32 *)(r10 - 164)
    1689:	bf 61 00 00 00 00 00 00	r1 = r6
    1690:	85 00 00 00 22 00 00 00	call 34
    1691:	63 0a a4 ff 00 00 00 00	*(u32 *)(r10 - 92) = r0
    1692:	b7 01 00 00 02 17 10 10	r1 = 269489922
    1693:	63 1a a0 ff 00 00 00 00	*(u32 *)(r10 - 96) = r1
    1694:	63 9a a8 ff 00 00 00 00	*(u32 *)(r10 - 88) = r9
    1695:	63 8a ac ff 00 00 00 00	*(u32 *)(r10 - 84) = r8
    1696:	63 7a b0 ff 00 00 00 00	*(u32 *)(r10 - 80) = r7
    1697:	bf a4 00 00 00 00 00 00	r4 = r10
    1698:	07 04 00 00 a0 ff ff ff	r4 += -96
    1699:	bf 61 00 00 00 00 00 00	r1 = r6
    1700:	18 02 00 00 00 00 00 00 00 00 00 00 00 00 00 00	r2 = 0 ll
    1702:	18 03 00 00 ff ff ff ff 00 00 00 00 00 00 00 00	r3 = 4294967295 ll
    1704:	b7 05 00 00 14 00 00 00	r5 = 20
    1705:	85 00 00 00 19 00 00 00	call 25
    1706:	05 00 c7 01 00 00 00 00	goto +455 <LBB4_251>

0000000000003558 <LBB4_214>:
    1707:	bf a7 00 00 00 00 00 00	r7 = r10
    1708:	07 07 00 00 a0 ff ff ff	r7 += -96
    1709:	bf 61 00 00 00 00 00 00	r1 = r6
    1710:	b7 02 00 00 00 00 00 00	r2 = 0
    1711:	bf 73 00 00 00 00 00 00	r3 = r7
    1712:	b7 04 00 00 04 00 00 00	r4 = 4
    1713:	85 00 00 00 1a 00 00 00	call 26
    1714:	bf 61 00 00 00 00 00 00	r1 = r6
    1715:	b7 02 00 00 00 00 00 00	r2 = 0
    1716:	bf 73 00 00 00 00 00 00	r3 = r7
    1717:	b7 04 00 00 04 00 00 00	r4 = 4
    1718:	b7 05 00 00 02 00 00 00	r5 = 2
    1719:	85 00 00 00 09 00 00 00	call 9
    1720:	bf 61 00 00 00 00 00 00	r1 = r6
    1721:	85 00 00 00 22 00 00 00	call 34
    1722:	bf 07 00 00 00 00 00 00	r7 = r0
    1723:	bf 61 00 00 00 00 00 00	r1 = r6
    1724:	85 00 00 00 22 00 00 00	call 34
    1725:	63 0a a4 ff 00 00 00 00	*(u32 *)(r10 - 92) = r0
    1726:	b7 01 00 00 02 15 10 10	r1 = 269489410
    1727:	63 1a a0 ff 00 00 00 00	*(u32 *)(r10 - 96) = r1
    1728:	b7 01 00 00 00 00 00 00	r1 = 0
    1729:	63 1a b0 ff 00 00 00 00	*(u32 *)(r10 - 80) = r1
    1730:	63 7a a8 ff 00 00 00 00	*(u32 *)(r10 - 88) = r7
    1731:	67 07 00 00 20 00 00 00	r7 <<= 32
    1732:	77 07 00 00 20 00 00 00	r7 >>= 32
    1733:	bf 71 00 00 00 00 00 00	r1 = r7
    1734:	3f 91 00 00 00 00 00 00	r1 /= r9
    1735:	2f 91 00 00 00 00 00 00	r1 *= r9
    1736:	1f 17 00 00 00 00 00 00	r7 -= r1
    1737:	07 07 00 00 01 00 00 00	r7 += 1
    1738:	7b 7a f0 fe 00 00 00 00	*(u64 *)(r10 - 272) = r7
    1739:	63 7a ac ff 00 00 00 00	*(u32 *)(r10 - 84) = r7
    1740:	bf a4 00 00 00 00 00 00	r4 = r10
    1741:	07 04 00 00 a0 ff ff ff	r4 += -96
    1742:	bf 61 00 00 00 00 00 00	r1 = r6
    1743:	18 02 00 00 00 00 00 00 00 00 00 00 00 00 00 00	r2 = 0 ll
    1745:	18 03 00 00 ff ff ff ff 00 00 00 00 00 00 00 00	r3 = 4294967295 ll
    1747:	b7 05 00 00 14 00 00 00	r5 = 20
    1748:	85 00 00 00 19 00 00 00	call 25
    1749:	bf a2 00 00 00 00 00 00	r2 = r10
    1750:	07 02 00 00 18 ff ff ff	r2 += -232
    1751:	79 a1 d8 fe 00 00 00 00	r1 = *(u64 *)(r10 - 296)
    1752:	85 00 00 00 01 00 00 00	call 1
    1753:	15 00 a9 fe 00 00 00 00	if r0 == 0 goto -343 <LBB4_189>
    1754:	79 a1 f0 fe 00 00 00 00	r1 = *(u64 *)(r10 - 272)
    1755:	6b 10 28 00 00 00 00 00	*(u16 *)(r0 + 40) = r1
    1756:	05 00 a6 fe 00 00 00 00	goto -346 <LBB4_189>

00000000000036e8 <LBB4_216>:
    1757:	69 71 24 00 00 00 00 00	r1 = *(u16 *)(r7 + 36)
    1758:	47 01 00 00 02 00 00 00	r1 |= 2
    1759:	6b 17 24 00 00 00 00 00	*(u16 *)(r7 + 36) = r1
    1760:	b7 08 00 00 80 00 00 00	r8 = 128
    1761:	57 01 00 00 03 00 00 00	r1 &= 3
    1762:	55 01 17 00 03 00 00 00	if r1 != 3 goto +23 <LBB4_220>
    1763:	85 00 00 00 05 00 00 00	call 5
    1764:	b7 04 00 00 00 00 00 00	r4 = 0
    1765:	37 00 00 00 00 ca 9a 3b	r0 /= 1000000000
    1766:	bf 01 00 00 00 00 00 00	r1 = r0
    1767:	07 01 00 00 0a 00 00 00	r1 += 10
    1768:	63 17 20 00 00 00 00 00	*(u32 *)(r7 + 32) = r1
    1769:	71 72 2a 00 00 00 00 00	r2 = *(u8 *)(r7 + 42)
    1770:	bf 21 00 00 00 00 00 00	r1 = r2
    1771:	79 a3 b0 fe 00 00 00 00	r3 = *(u64 *)(r10 - 336)
    1772:	4f 31 00 00 00 00 00 00	r1 |= r3
    1773:	bf 13 00 00 00 00 00 00	r3 = r1
    1774:	57 03 00 00 ff 00 00 00	r3 &= 255
    1775:	5d 32 08 00 00 00 00 00	if r2 != r3 goto +8 <LBB4_219>
    1776:	61 72 30 00 00 00 00 00	r2 = *(u32 *)(r7 + 48)
    1777:	07 02 00 00 05 00 00 00	r2 += 5
    1778:	bf 03 00 00 00 00 00 00	r3 = r0
    1779:	67 03 00 00 20 00 00 00	r3 <<= 32
    1780:	77 03 00 00 20 00 00 00	r3 >>= 32
    1781:	67 02 00 00 20 00 00 00	r2 <<= 32
    1782:	77 02 00 00 20 00 00 00	r2 >>= 32
    1783:	3d 32 02 00 00 00 00 00	if r2 >= r3 goto +2 <LBB4_220>

00000000000037c0 <LBB4_219>:
    1784:	73 17 2a 00 00 00 00 00	*(u8 *)(r7 + 42) = r1
    1785:	63 07 30 00 00 00 00 00	*(u32 *)(r7 + 48) = r0

00000000000037d0 <LBB4_220>:
    1786:	63 46 3c 00 00 00 00 00	*(u32 *)(r6 + 60) = r4

00000000000037d8 <LBB4_221>:
    1787:	bf 61 00 00 00 00 00 00	r1 = r6
    1788:	85 00 00 00 22 00 00 00	call 34
    1789:	63 0a a4 ff 00 00 00 00	*(u32 *)(r10 - 92) = r0
    1790:	b7 01 00 00 02 0f 10 10	r1 = 269487874
    1791:	63 1a a0 ff 00 00 00 00	*(u32 *)(r10 - 96) = r1
    1792:	7b 9a d8 fe 00 00 00 00	*(u64 *)(r10 - 296) = r9
    1793:	63 9a a8 ff 00 00 00 00	*(u32 *)(r10 - 88) = r9
    1794:	b7 09 00 00 00 00 00 00	r9 = 0
    1795:	63 9a b0 ff 00 00 00 00	*(u32 *)(r10 - 80) = r9
    1796:	79 a1 c8 fe 00 00 00 00	r1 = *(u64 *)(r10 - 312)
    1797:	57 01 00 00 ff ff 00 00	r1 &= 65535
    1798:	7b 1a b0 fe 00 00 00 00	*(u64 *)(r10 - 336) = r1
    1799:	63 1a ac ff 00 00 00 00	*(u32 *)(r10 - 84) = r1
    1800:	bf a4 00 00 00 00 00 00	r4 = r10
    1801:	07 04 00 00 a0 ff ff ff	r4 += -96
    1802:	bf 61 00 00 00 00 00 00	r1 = r6
    1803:	18 02 00 00 00 00 00 00 00 00 00 00 00 00 00 00	r2 = 0 ll
    1805:	18 03 00 00 ff ff ff ff 00 00 00 00 00 00 00 00	r3 = 4294967295 ll
    1807:	b7 05 00 00 14 00 00 00	r5 = 20
    1808:	85 00 00 00 19 00 00 00	call 25
    1809:	69 a1 38 ff 00 00 00 00	r1 = *(u16 *)(r10 - 200)
    1810:	55 01 0a 00 00 35 00 00	if r1 != 13568 goto +10 <LBB4_223>
    1811:	b7 01 00 00 00 00 00 00	r1 = 0
    1812:	63 1a a0 ff 00 00 00 00	*(u32 *)(r10 - 96) = r1
    1813:	bf a3 00 00 00 00 00 00	r3 = r10
    1814:	07 03 00 00 a0 ff ff ff	r3 += -96
    1815:	b7 01 00 00 00 00 00 00	r1 = 0
    1816:	b7 02 00 00 00 00 00 00	r2 = 0
    1817:	b7 04 00 00 01 00 00 00	r4 = 1
    1818:	b7 05 00 00 00 00 00 00	r5 = 0
    1819:	85 00 00 00 1c 00 00 00	call 28
    1820:	b7 08 00 00 dc 05 00 00	r8 = 1500

00000000000038e8 <LBB4_223>:
    1821:	7b 8a b8 fe 00 00 00 00	*(u64 *)(r10 - 328) = r8
    1822:	18 07 00 00 7a ff ff ff 00 00 00 00 00 00 00 00	r7 = 4294967162 ll
    1824:	61 61 50 00 00 00 00 00	r1 = *(u32 *)(r6 + 80)
    1825:	61 62 4c 00 00 00 00 00	r2 = *(u32 *)(r6 + 76)
    1826:	07 02 00 00 36 00 00 00	r2 += 54
    1827:	2d 12 04 05 00 00 00 00	if r2 > r1 goto +1284 <LBB4_387>
    1828:	18 01 00 00 24 00 00 00 00 00 00 00 00 00 00 02	r1 = 144115188075855908 ll
    1830:	7b 1a a0 ff 00 00 00 00	*(u64 *)(r10 - 96) = r1
    1831:	b7 01 00 00 00 00 00 00	r1 = 0
    1832:	63 1a ac ff 00 00 00 00	*(u32 *)(r10 - 84) = r1
    1833:	7b 1a b0 ff 00 00 00 00	*(u64 *)(r10 - 80) = r1
    1834:	79 a1 c0 fe 00 00 00 00	r1 = *(u64 *)(r10 - 320)
    1835:	57 01 00 00 f0 00 00 00	r1 &= 240
    1836:	63 1a a8 ff 00 00 00 00	*(u32 *)(r10 - 88) = r1
    1837:	bf a2 00 00 00 00 00 00	r2 = r10
    1838:	07 02 00 00 a0 ff ff ff	r2 += -96
    1839:	18 01 00 00 00 00 00 00 00 00 00 00 00 00 00 00	r1 = 0 ll
    1841:	85 00 00 00 01 00 00 00	call 1
    1842:	79 a8 00 ff 00 00 00 00	r8 = *(u64 *)(r10 - 256)
    1843:	55 00 2f 00 00 00 00 00	if r0 != 0 goto +47 <LBB4_228>
    1844:	18 01 00 00 23 00 00 00 00 00 00 00 00 00 00 02	r1 = 144115188075855907 ll
    1846:	7b 1a a0 ff 00 00 00 00	*(u64 *)(r10 - 96) = r1
    1847:	b7 07 00 00 00 00 00 00	r7 = 0
    1848:	63 7a ac ff 00 00 00 00	*(u32 *)(r10 - 84) = r7
    1849:	7b 7a b0 ff 00 00 00 00	*(u64 *)(r10 - 80) = r7
    1850:	79 a1 c0 fe 00 00 00 00	r1 = *(u64 *)(r10 - 320)
    1851:	57 01 00 00 e0 00 00 00	r1 &= 224
    1852:	63 1a a8 ff 00 00 00 00	*(u32 *)(r10 - 88) = r1
    1853:	bf a2 00 00 00 00 00 00	r2 = r10
    1854:	07 02 00 00 a0 ff ff ff	r2 += -96
    1855:	18 01 00 00 00 00 00 00 00 00 00 00 00 00 00 00	r1 = 0 ll
    1857:	85 00 00 00 01 00 00 00	call 1
    1858:	55 00 20 00 00 00 00 00	if r0 != 0 goto +32 <LBB4_228>
    1859:	18 01 00 00 22 00 00 00 00 00 00 00 00 00 00 02	r1 = 144115188075855906 ll
    1861:	7b 1a a0 ff 00 00 00 00	*(u64 *)(r10 - 96) = r1
    1862:	63 7a ac ff 00 00 00 00	*(u32 *)(r10 - 84) = r7
    1863:	7b 7a b0 ff 00 00 00 00	*(u64 *)(r10 - 80) = r7
    1864:	79 a1 c0 fe 00 00 00 00	r1 = *(u64 *)(r10 - 320)
    1865:	57 01 00 00 c0 00 00 00	r1 &= 192
    1866:	63 1a a8 ff 00 00 00 00	*(u32 *)(r10 - 88) = r1
    1867:	bf a2 00 00 00 00 00 00	r2 = r10
    1868:	07 02 00 00 a0 ff ff ff	r2 += -96
    1869:	18 01 00 00 00 00 00 00 00 00 00 00 00 00 00 00	r1 = 0 ll
    1871:	85 00 00 00 01 00 00 00	call 1
    1872:	55 00 12 00 00 00 00 00	if r0 != 0 goto +18 <LBB4_228>
    1873:	18 01 00 00 21 00 00 00 00 00 00 00 00 00 00 02	r1 = 144115188075855905 ll
    1875:	7b 1a a0 ff 00 00 00 00	*(u64 *)(r10 - 96) = r1
    1876:	79 a1 c0 fe 00 00 00 00	r1 = *(u64 *)(r10 - 320)
    1877:	57 01 00 00 80 00 00 00	r1 &= 128
    1878:	63 1a a8 ff 00 00 00 00	*(u32 *)(r10 - 88) = r1
    1879:	b7 01 00 00 00 00 00 00	r1 = 0
    1880:	63 1a ac ff 00 00 00 00	*(u32 *)(r10 - 84) = r1
    1881:	7b 1a b0 ff 00 00 00 00	*(u64 *)(r10 - 80) = r1
    1882:	bf a2 00 00 00 00 00 00	r2 = r10
    1883:	07 02 00 00 a0 ff ff ff	r2 += -96
    1884:	18 01 00 00 00 00 00 00 00 00 00 00 00 00 00 00	r1 = 0 ll
    1886:	85 00 00 00 01 00 00 00	call 1
    1887:	b7 02 00 00 00 00 00 00	r2 = 0
    1888:	b7 07 00 00 35 00 00 00	r7 = 53
    1889:	b7 09 00 00 02 00 00 00	r9 = 2
    1890:	15 00 07 00 00 00 00 00	if r0 == 0 goto +7 <LBB4_230>

0000000000003b18 <LBB4_228>:
    1891:	b7 07 00 00 37 00 00 00	r7 = 55
    1892:	b7 09 00 00 02 00 00 00	r9 = 2
    1893:	61 01 00 00 00 00 00 00	r1 = *(u32 *)(r0 + 0)
    1894:	b7 02 00 00 00 00 00 00	r2 = 0
    1895:	15 01 02 00 00 00 00 00	if r1 == 0 goto +2 <LBB4_230>
    1896:	61 02 04 00 00 00 00 00	r2 = *(u32 *)(r0 + 4)
    1897:	bf 19 00 00 00 00 00 00	r9 = r1

0000000000003b50 <LBB4_230>:
    1898:	7b 2a 88 fe 00 00 00 00	*(u64 *)(r10 - 376) = r2
    1899:	bf 61 00 00 00 00 00 00	r1 = r6
    1900:	85 00 00 00 22 00 00 00	call 34
    1901:	73 7a a1 ff 00 00 00 00	*(u8 *)(r10 - 95) = r7
    1902:	b7 01 00 00 02 00 00 00	r1 = 2
    1903:	73 1a a0 ff 00 00 00 00	*(u8 *)(r10 - 96) = r1
    1904:	b7 01 00 00 10 10 00 00	r1 = 4112
    1905:	6b 1a a2 ff 00 00 00 00	*(u16 *)(r10 - 94) = r1
    1906:	63 0a a4 ff 00 00 00 00	*(u32 *)(r10 - 92) = r0
    1907:	63 8a a8 ff 00 00 00 00	*(u32 *)(r10 - 88) = r8
    1908:	b7 01 00 00 00 00 00 00	r1 = 0
    1909:	63 1a b0 ff 00 00 00 00	*(u32 *)(r10 - 80) = r1
    1910:	63 9a ac ff 00 00 00 00	*(u32 *)(r10 - 84) = r9
    1911:	bf a4 00 00 00 00 00 00	r4 = r10
    1912:	07 04 00 00 a0 ff ff ff	r4 += -96
    1913:	bf 61 00 00 00 00 00 00	r1 = r6
    1914:	18 02 00 00 00 00 00 00 00 00 00 00 00 00 00 00	r2 = 0 ll
    1916:	18 03 00 00 ff ff ff ff 00 00 00 00 00 00 00 00	r3 = 4294967295 ll
    1918:	b7 05 00 00 14 00 00 00	r5 = 20
    1919:	85 00 00 00 19 00 00 00	call 25
    1920:	71 a3 3c ff 00 00 00 00	r3 = *(u8 *)(r10 - 196)
    1921:	69 a8 38 ff 00 00 00 00	r8 = *(u16 *)(r10 - 200)
    1922:	63 9a 78 ff 00 00 00 00	*(u32 *)(r10 - 136) = r9
    1923:	b7 02 00 00 01 00 00 00	r2 = 1
    1924:	b7 01 00 00 01 00 00 00	r1 = 1
    1925:	7b 1a 90 fe 00 00 00 00	*(u64 *)(r10 - 368) = r1
    1926:	73 2a 7f ff 00 00 00 00	*(u8 *)(r10 - 129) = r2
    1927:	6b 8a 7c ff 00 00 00 00	*(u16 *)(r10 - 132) = r8
    1928:	7b 3a a0 fe 00 00 00 00	*(u64 *)(r10 - 352) = r3
    1929:	73 3a 7e ff 00 00 00 00	*(u8 *)(r10 - 130) = r3
    1930:	bf a2 00 00 00 00 00 00	r2 = r10
    1931:	07 02 00 00 78 ff ff ff	r2 += -136
    1932:	18 01 00 00 00 00 00 00 00 00 00 00 00 00 00 00	r1 = 0 ll
    1934:	85 00 00 00 01 00 00 00	call 1
    1935:	bf 07 00 00 00 00 00 00	r7 = r0
    1936:	15 07 d0 04 00 00 00 00	if r7 == 0 goto +1232 <LBB4_404>
    1937:	bf 61 00 00 00 00 00 00	r1 = r6
    1938:	85 00 00 00 22 00 00 00	call 34
    1939:	63 0a a4 ff 00 00 00 00	*(u32 *)(r10 - 92) = r0
    1940:	b7 01 00 00 02 33 10 10	r1 = 269497090
    1941:	63 1a a0 ff 00 00 00 00	*(u32 *)(r10 - 96) = r1
    1942:	63 9a a8 ff 00 00 00 00	*(u32 *)(r10 - 88) = r9
    1943:	b7 01 00 00 02 00 00 00	r1 = 2
    1944:	63 1a ac ff 00 00 00 00	*(u32 *)(r10 - 84) = r1
    1945:	67 08 00 00 10 00 00 00	r8 <<= 16
    1946:	79 a1 a0 fe 00 00 00 00	r1 = *(u64 *)(r10 - 352)
    1947:	4f 18 00 00 00 00 00 00	r8 |= r1
    1948:	63 8a b0 ff 00 00 00 00	*(u32 *)(r10 - 80) = r8
    1949:	bf a4 00 00 00 00 00 00	r4 = r10
    1950:	07 04 00 00 a0 ff ff ff	r4 += -96
    1951:	bf 61 00 00 00 00 00 00	r1 = r6
    1952:	18 02 00 00 00 00 00 00 00 00 00 00 00 00 00 00	r2 = 0 ll
    1954:	18 03 00 00 ff ff ff ff 00 00 00 00 00 00 00 00	r3 = 4294967295 ll
    1956:	b7 05 00 00 14 00 00 00	r5 = 20
    1957:	85 00 00 00 19 00 00 00	call 25
    1958:	79 a1 90 fe 00 00 00 00	r1 = *(u64 *)(r10 - 368)

0000000000003d38 <LBB4_232>:
    1959:	db 17 08 00 00 00 00 00	lock *(u64 *)(r7 + 8) += r1
    1960:	61 61 00 00 00 00 00 00	r1 = *(u32 *)(r6 + 0)
    1961:	db 17 10 00 00 00 00 00	lock *(u64 *)(r7 + 16) += r1
    1962:	69 73 00 00 00 00 00 00	r3 = *(u16 *)(r7 + 0)

0000000000003d58 <LBB4_233>:
    1963:	79 a1 d8 fe 00 00 00 00	r1 = *(u64 *)(r10 - 296)
    1964:	67 01 00 00 20 00 00 00	r1 <<= 32
    1965:	77 01 00 00 20 00 00 00	r1 >>= 32
    1966:	bf 12 00 00 00 00 00 00	r2 = r1
    1967:	07 02 00 00 fe ff ff ff	r2 += -2
    1968:	a5 02 51 00 02 00 00 00	if r2 < 2 goto +81 <LBB4_244>
    1969:	15 01 e6 00 01 00 00 00	if r1 == 1 goto +230 <LBB4_253>
    1970:	18 07 00 00 7b ff ff ff 00 00 00 00 00 00 00 00	r7 = 4294967163 ll
    1972:	55 01 73 04 00 00 00 00	if r1 != 0 goto +1139 <LBB4_387>
    1973:	7b 3a c8 fe 00 00 00 00	*(u64 *)(r10 - 312) = r3
    1974:	71 a1 3c ff 00 00 00 00	r1 = *(u8 *)(r10 - 196)
    1975:	b7 02 00 00 00 00 00 00	r2 = 0
    1976:	7b 2a c0 ff 00 00 00 00	*(u64 *)(r10 - 64) = r2
    1977:	7b 2a c8 ff 00 00 00 00	*(u64 *)(r10 - 56) = r2
    1978:	7b 2a d0 ff 00 00 00 00	*(u64 *)(r10 - 48) = r2
    1979:	7b 2a b8 ff 00 00 00 00	*(u64 *)(r10 - 72) = r2
    1980:	7b 2a b0 ff 00 00 00 00	*(u64 *)(r10 - 80) = r2
    1981:	7b 2a a8 ff 00 00 00 00	*(u64 *)(r10 - 88) = r2
    1982:	7b 2a a0 ff 00 00 00 00	*(u64 *)(r10 - 96) = r2
    1983:	79 a2 f8 fe 00 00 00 00	r2 = *(u64 *)(r10 - 264)
    1984:	6b 2a c6 ff 00 00 00 00	*(u16 *)(r10 - 58) = r2
    1985:	79 a2 f0 fe 00 00 00 00	r2 = *(u64 *)(r10 - 272)
    1986:	6b 2a c8 ff 00 00 00 00	*(u16 *)(r10 - 56) = r2
    1987:	18 07 00 00 00 00 00 00 00 00 00 00 00 00 00 00	r7 = 0 ll
    1989:	15 01 02 00 06 00 00 00	if r1 == 6 goto +2 <LBB4_238>
    1990:	18 07 00 00 00 00 00 00 00 00 00 00 00 00 00 00	r7 = 0 ll

0000000000003e40 <LBB4_238>:
    1992:	79 a2 d0 fe 00 00 00 00	r2 = *(u64 *)(r10 - 304)
    1993:	67 02 00 00 03 00 00 00	r2 <<= 3
    1994:	6b 2a c4 ff 00 00 00 00	*(u16 *)(r10 - 60) = r2
    1995:	55 01 01 00 06 00 00 00	if r1 != 6 goto +1 <LBB4_240>
    1996:	6b 2a c4 ff 00 00 00 00	*(u16 *)(r10 - 60) = r2

0000000000003e68 <LBB4_240>:
    1997:	85 00 00 00 05 00 00 00	call 5
    1998:	37 00 00 00 00 ca 9a 3b	r0 /= 1000000000
    1999:	bf 01 00 00 00 00 00 00	r1 = r0
    2000:	07 01 00 00 3c 00 00 00	r1 += 60
    2001:	63 1a c0 ff 00 00 00 00	*(u32 *)(r10 - 64) = r1
    2002:	bf 01 00 00 00 00 00 00	r1 = r0
    2003:	67 01 00 00 20 00 00 00	r1 <<= 32
    2004:	77 01 00 00 20 00 00 00	r1 >>= 32
    2005:	61 a2 d0 ff 00 00 00 00	r2 = *(u32 *)(r10 - 48)
    2006:	07 02 00 00 05 00 00 00	r2 += 5
    2007:	67 02 00 00 20 00 00 00	r2 <<= 32
    2008:	77 02 00 00 20 00 00 00	r2 >>= 32
    2009:	3d 12 01 00 00 00 00 00	if r2 >= r1 goto +1 <LBB4_242>
    2010:	63 0a d0 ff 00 00 00 00	*(u32 *)(r10 - 48) = r0

0000000000003ed8 <LBB4_242>:
    2011:	b7 01 00 00 01 00 00 00	r1 = 1
    2012:	7b 1a b0 ff 00 00 00 00	*(u64 *)(r10 - 80) = r1
    2013:	61 61 00 00 00 00 00 00	r1 = *(u32 *)(r6 + 0)
    2014:	7b 1a b8 ff 00 00 00 00	*(u64 *)(r10 - 72) = r1
    2015:	bf 61 00 00 00 00 00 00	r1 = r6
    2016:	85 00 00 00 22 00 00 00	call 34
    2017:	63 0a 7c ff 00 00 00 00	*(u32 *)(r10 - 132) = r0
    2018:	b7 01 00 00 02 31 10 10	r1 = 269496578
    2019:	63 1a 78 ff 00 00 00 00	*(u32 *)(r10 - 136) = r1
    2020:	79 a1 f8 fe 00 00 00 00	r1 = *(u64 *)(r10 - 264)
    2021:	57 01 00 00 ff ff 00 00	r1 &= 65535
    2022:	63 1a 80 ff 00 00 00 00	*(u32 *)(r10 - 128) = r1
    2023:	b7 08 00 00 02 00 00 00	r8 = 2
    2024:	63 8a 84 ff 00 00 00 00	*(u32 *)(r10 - 124) = r8
    2025:	b7 01 00 00 00 00 00 00	r1 = 0
    2026:	63 1a 88 ff 00 00 00 00	*(u32 *)(r10 - 120) = r1
    2027:	bf a4 00 00 00 00 00 00	r4 = r10
    2028:	07 04 00 00 78 ff ff ff	r4 += -136
    2029:	bf 61 00 00 00 00 00 00	r1 = r6
    2030:	18 02 00 00 00 00 00 00 00 00 00 00 00 00 00 00	r2 = 0 ll
    2032:	18 03 00 00 ff ff ff ff 00 00 00 00 00 00 00 00	r3 = 4294967295 ll
    2034:	b7 05 00 00 14 00 00 00	r5 = 20
    2035:	85 00 00 00 19 00 00 00	call 25
    2036:	63 8a cc ff 00 00 00 00	*(u32 *)(r10 - 52) = r8
    2037:	bf a2 00 00 00 00 00 00	r2 = r10
    2038:	07 02 00 00 18 ff ff ff	r2 += -232
    2039:	bf a3 00 00 00 00 00 00	r3 = r10
    2040:	07 03 00 00 a0 ff ff ff	r3 += -96
    2041:	bf 71 00 00 00 00 00 00	r1 = r7
    2042:	b7 04 00 00 00 00 00 00	r4 = 0
    2043:	85 00 00 00 02 00 00 00	call 2
    2044:	67 00 00 00 20 00 00 00	r0 <<= 32
    2045:	c7 00 00 00 20 00 00 00	r0 s>>= 32
    2046:	65 00 76 00 ff ff ff ff	if r0 s> -1 goto +118 <LBB4_252>
    2047:	18 07 00 00 65 ff ff ff 00 00 00 00 00 00 00 00	r7 = 4294967141 ll
    2049:	05 00 26 04 00 00 00 00	goto +1062 <LBB4_387>

0000000000004010 <LBB4_244>:
    2050:	b7 01 00 00 01 00 00 00	r1 = 1
    2051:	63 16 38 00 00 00 00 00	*(u32 *)(r6 + 56) = r1
    2052:	79 a2 c8 fe 00 00 00 00	r2 = *(u64 *)(r10 - 312)
    2053:	bf 21 00 00 00 00 00 00	r1 = r2
    2054:	57 01 00 00 ff ff 00 00	r1 &= 65535
    2055:	15 01 3e 02 00 00 00 00	if r1 == 0 goto +574 <LBB4_309>
    2056:	6b 2a e8 ff 00 00 00 00	*(u16 *)(r10 - 24) = r2
    2057:	bf 61 00 00 00 00 00 00	r1 = r6
    2058:	85 00 00 00 22 00 00 00	call 34
    2059:	63 0a a4 ff 00 00 00 00	*(u32 *)(r10 - 92) = r0
    2060:	b7 01 00 00 02 1a 10 10	r1 = 269490690
    2061:	63 1a a0 ff 00 00 00 00	*(u32 *)(r10 - 96) = r1
    2062:	79 a1 b0 fe 00 00 00 00	r1 = *(u64 *)(r10 - 336)
    2063:	63 1a a8 ff 00 00 00 00	*(u32 *)(r10 - 88) = r1
    2064:	b7 01 00 00 00 00 00 00	r1 = 0
    2065:	63 1a ac ff 00 00 00 00	*(u32 *)(r10 - 84) = r1
    2066:	63 1a b0 ff 00 00 00 00	*(u32 *)(r10 - 80) = r1
    2067:	bf a4 00 00 00 00 00 00	r4 = r10
    2068:	07 04 00 00 a0 ff ff ff	r4 += -96
    2069:	bf 61 00 00 00 00 00 00	r1 = r6
    2070:	18 02 00 00 00 00 00 00 00 00 00 00 00 00 00 00	r2 = 0 ll
    2072:	18 03 00 00 ff ff ff ff 00 00 00 00 00 00 00 00	r3 = 4294967295 ll
    2074:	b7 05 00 00 14 00 00 00	r5 = 20
    2075:	85 00 00 00 19 00 00 00	call 25
    2076:	bf a2 00 00 00 00 00 00	r2 = r10
    2077:	07 02 00 00 e8 ff ff ff	r2 += -24
    2078:	18 01 00 00 00 00 00 00 00 00 00 00 00 00 00 00	r1 = 0 ll
    2080:	85 00 00 00 01 00 00 00	call 1
    2081:	b7 07 00 00 00 00 00 00	r7 = 0
    2082:	15 00 18 02 00 00 00 00	if r0 == 0 goto +536 <LBB4_305>
    2083:	7b 0a 10 ff 00 00 00 00	*(u64 *)(r10 - 240) = r0
    2084:	71 08 11 00 00 00 00 00	r8 = *(u8 *)(r0 + 17)
    2085:	67 08 00 00 08 00 00 00	r8 <<= 8
    2086:	71 01 10 00 00 00 00 00	r1 = *(u8 *)(r0 + 16)
    2087:	4f 18 00 00 00 00 00 00	r8 |= r1
    2088:	71 01 0e 00 00 00 00 00	r1 = *(u8 *)(r0 + 14)
    2089:	7b 1a 00 ff 00 00 00 00	*(u64 *)(r10 - 256) = r1
    2090:	71 07 0f 00 00 00 00 00	r7 = *(u8 *)(r0 + 15)
    2091:	71 01 0c 00 00 00 00 00	r1 = *(u8 *)(r0 + 12)
    2092:	7b 1a f8 fe 00 00 00 00	*(u64 *)(r10 - 264) = r1
    2093:	71 01 0d 00 00 00 00 00	r1 = *(u8 *)(r0 + 13)
    2094:	7b 1a f0 fe 00 00 00 00	*(u64 *)(r10 - 272) = r1
    2095:	bf 61 00 00 00 00 00 00	r1 = r6
    2096:	85 00 00 00 22 00 00 00	call 34
    2097:	63 0a a4 ff 00 00 00 00	*(u32 *)(r10 - 92) = r0
    2098:	b7 01 00 00 02 1b 10 10	r1 = 269490946
    2099:	63 1a a0 ff 00 00 00 00	*(u32 *)(r10 - 96) = r1
    2100:	63 8a ac ff 00 00 00 00	*(u32 *)(r10 - 84) = r8
    2101:	b7 01 00 00 00 00 00 00	r1 = 0
    2102:	63 1a b0 ff 00 00 00 00	*(u32 *)(r10 - 80) = r1
    2103:	79 a1 f0 fe 00 00 00 00	r1 = *(u64 *)(r10 - 272)
    2104:	67 01 00 00 08 00 00 00	r1 <<= 8
    2105:	79 a2 f8 fe 00 00 00 00	r2 = *(u64 *)(r10 - 264)
    2106:	4f 21 00 00 00 00 00 00	r1 |= r2
    2107:	67 07 00 00 08 00 00 00	r7 <<= 8
    2108:	79 a2 00 ff 00 00 00 00	r2 = *(u64 *)(r10 - 256)
    2109:	4f 27 00 00 00 00 00 00	r7 |= r2
    2110:	67 07 00 00 10 00 00 00	r7 <<= 16
    2111:	4f 17 00 00 00 00 00 00	r7 |= r1
    2112:	63 7a a8 ff 00 00 00 00	*(u32 *)(r10 - 88) = r7
    2113:	bf a4 00 00 00 00 00 00	r4 = r10
    2114:	07 04 00 00 a0 ff ff ff	r4 += -96
    2115:	bf 61 00 00 00 00 00 00	r1 = r6
    2116:	18 02 00 00 00 00 00 00 00 00 00 00 00 00 00 00	r2 = 0 ll
    2118:	18 03 00 00 ff ff ff ff 00 00 00 00 00 00 00 00	r3 = 4294967295 ll
    2120:	b7 05 00 00 14 00 00 00	r5 = 20
    2121:	85 00 00 00 19 00 00 00	call 25
    2122:	79 a2 10 ff 00 00 00 00	r2 = *(u64 *)(r10 - 240)
    2123:	71 21 10 00 00 00 00 00	r1 = *(u8 *)(r2 + 16)
    2124:	71 28 11 00 00 00 00 00	r8 = *(u8 *)(r2 + 17)
    2125:	67 08 00 00 08 00 00 00	r8 <<= 8
    2126:	4f 18 00 00 00 00 00 00	r8 |= r1
    2127:	15 08 af 01 00 00 00 00	if r8 == 0 goto +431 <LBB4_300>
    2128:	18 07 00 00 72 ff ff ff 00 00 00 00 00 00 00 00	r7 = 4294967154 ll
    2130:	71 a1 3c ff 00 00 00 00	r1 = *(u8 *)(r10 - 196)
    2131:	65 01 68 01 10 00 00 00	if r1 s> 16 goto +360 <LBB4_284>
    2132:	15 01 a0 01 01 00 00 00	if r1 == 1 goto +416 <LBB4_296>
    2133:	15 01 68 01 06 00 00 00	if r1 == 6 goto +360 <LBB4_286>
    2134:	05 00 9f 01 00 00 00 00	goto +415 <LBB4_297>

00000000000042b8 <LBB4_250>:
    2135:	b7 01 00 00 3a 00 00 00	r1 = 58
    2136:	73 1a 9c ff 00 00 00 00	*(u8 *)(r10 - 100) = r1
    2137:	79 a1 18 ff 00 00 00 00	r1 = *(u64 *)(r10 - 232)
    2138:	7b 1a 78 ff 00 00 00 00	*(u64 *)(r10 - 136) = r1
    2139:	79 a1 20 ff 00 00 00 00	r1 = *(u64 *)(r10 - 224)
    2140:	7b 1a 80 ff 00 00 00 00	*(u64 *)(r10 - 128) = r1
    2141:	79 a1 28 ff 00 00 00 00	r1 = *(u64 *)(r10 - 216)
    2142:	7b 1a 88 ff 00 00 00 00	*(u64 *)(r10 - 120) = r1
    2143:	79 a1 30 ff 00 00 00 00	r1 = *(u64 *)(r10 - 208)
    2144:	7b 1a 90 ff 00 00 00 00	*(u64 *)(r10 - 112) = r1
    2145:	71 a1 3d ff 00 00 00 00	r1 = *(u8 *)(r10 - 195)
    2146:	47 01 00 00 02 00 00 00	r1 |= 2
    2147:	73 1a 9d ff 00 00 00 00	*(u8 *)(r10 - 99) = r1
    2148:	69 a1 c4 ff 00 00 00 00	r1 = *(u16 *)(r10 - 60)
    2149:	47 01 00 00 10 00 00 00	r1 |= 16
    2150:	6b 1a c4 ff 00 00 00 00	*(u16 *)(r10 - 60) = r1
    2151:	63 7a 98 ff 00 00 00 00	*(u32 *)(r10 - 104) = r7
    2152:	bf a2 00 00 00 00 00 00	r2 = r10
    2153:	07 02 00 00 78 ff ff ff	r2 += -136
    2154:	bf a3 00 00 00 00 00 00	r3 = r10
    2155:	07 03 00 00 a0 ff ff ff	r3 += -96
    2156:	bf 81 00 00 00 00 00 00	r1 = r8
    2157:	b7 04 00 00 00 00 00 00	r4 = 0
    2158:	85 00 00 00 02 00 00 00	call 2
    2159:	67 00 00 00 20 00 00 00	r0 <<= 32
    2160:	c7 00 00 00 20 00 00 00	r0 s>>= 32
    2161:	65 00 cd fc ff ff ff ff	if r0 s> -1 goto -819 <LBB4_187>

0000000000004390 <LBB4_251>:
    2162:	79 a1 c8 fe 00 00 00 00	r1 = *(u64 *)(r10 - 312)
    2163:	73 1a 3d ff 00 00 00 00	*(u8 *)(r10 - 195) = r1
    2164:	05 00 5a fa 00 00 00 00	goto -1446 <LBB4_109>

00000000000043a8 <LBB4_252>:
    2165:	b7 01 00 00 3a 00 00 00	r1 = 58
    2166:	73 1a 9c ff 00 00 00 00	*(u8 *)(r10 - 100) = r1
    2167:	79 a1 18 ff 00 00 00 00	r1 = *(u64 *)(r10 - 232)
    2168:	7b 1a 78 ff 00 00 00 00	*(u64 *)(r10 - 136) = r1
    2169:	79 a1 20 ff 00 00 00 00	r1 = *(u64 *)(r10 - 224)
    2170:	7b 1a 80 ff 00 00 00 00	*(u64 *)(r10 - 128) = r1
    2171:	79 a1 28 ff 00 00 00 00	r1 = *(u64 *)(r10 - 216)
    2172:	7b 1a 88 ff 00 00 00 00	*(u64 *)(r10 - 120) = r1
    2173:	79 a1 30 ff 00 00 00 00	r1 = *(u64 *)(r10 - 208)
    2174:	7b 1a 90 ff 00 00 00 00	*(u64 *)(r10 - 112) = r1
    2175:	71 a1 3d ff 00 00 00 00	r1 = *(u8 *)(r10 - 195)
    2176:	47 01 00 00 02 00 00 00	r1 |= 2
    2177:	73 1a 9d ff 00 00 00 00	*(u8 *)(r10 - 99) = r1
    2178:	69 a1 c4 ff 00 00 00 00	r1 = *(u16 *)(r10 - 60)
    2179:	47 01 00 00 10 00 00 00	r1 |= 16
    2180:	6b 1a c4 ff 00 00 00 00	*(u16 *)(r10 - 60) = r1
    2181:	b7 01 00 00 00 00 00 00	r1 = 0
    2182:	63 1a 98 ff 00 00 00 00	*(u32 *)(r10 - 104) = r1
    2183:	bf a2 00 00 00 00 00 00	r2 = r10
    2184:	07 02 00 00 78 ff ff ff	r2 += -136
    2185:	bf a3 00 00 00 00 00 00	r3 = r10
    2186:	07 03 00 00 a0 ff ff ff	r3 += -96
    2187:	bf 71 00 00 00 00 00 00	r1 = r7
    2188:	b7 04 00 00 00 00 00 00	r4 = 0
    2189:	85 00 00 00 02 00 00 00	call 2
    2190:	b7 01 00 00 80 00 00 00	r1 = 128
    2191:	7b 1a b8 fe 00 00 00 00	*(u64 *)(r10 - 328) = r1
    2192:	67 00 00 00 20 00 00 00	r0 <<= 32
    2193:	bf 07 00 00 00 00 00 00	r7 = r0
    2194:	c7 07 00 00 3f 00 00 00	r7 s>>= 63
    2195:	57 07 00 00 65 ff ff ff	r7 &= -155
    2196:	c7 00 00 00 20 00 00 00	r0 s>>= 32
    2197:	79 a3 c8 fe 00 00 00 00	r3 = *(u64 *)(r10 - 312)
    2198:	65 00 01 00 ff ff ff ff	if r0 s> -1 goto +1 <LBB4_253>
    2199:	05 00 90 03 00 00 00 00	goto +912 <LBB4_387>

00000000000044c0 <LBB4_253>:
    2200:	bf 31 00 00 00 00 00 00	r1 = r3
    2201:	67 01 00 00 20 00 00 00	r1 <<= 32
    2202:	c7 01 00 00 20 00 00 00	r1 s>>= 32
    2203:	c5 01 aa 01 01 00 00 00	if r1 s< 1 goto +426 <LBB4_309>
    2204:	18 01 00 00 ce 72 a7 03 00 00 00 00 88 56 00 00	r1 = 95142176846542 ll
    2206:	7b 1a 50 ff 00 00 00 00	*(u64 *)(r10 - 176) = r1
    2207:	b7 01 00 00 be ef 00 00	r1 = 61374
    2208:	7b 1a 40 ff 00 00 00 00	*(u64 *)(r10 - 192) = r1
    2209:	18 01 00 00 00 00 0a 00 00 00 00 00 02 0f ff ff	r1 = -264973711704064 ll
    2211:	7b 1a 48 ff 00 00 00 00	*(u64 *)(r10 - 184) = r1
    2212:	69 a2 38 ff 00 00 00 00	r2 = *(u16 *)(r10 - 200)
    2213:	79 a1 a8 fe 00 00 00 00	r1 = *(u64 *)(r10 - 344)
    2214:	63 1a dc ff 00 00 00 00	*(u32 *)(r10 - 36) = r1
    2215:	79 a1 c0 fe 00 00 00 00	r1 = *(u64 *)(r10 - 320)
    2216:	63 1a d8 ff 00 00 00 00	*(u32 *)(r10 - 40) = r1
    2217:	79 a1 98 fe 00 00 00 00	r1 = *(u64 *)(r10 - 360)
    2218:	63 1a e0 ff 00 00 00 00	*(u32 *)(r10 - 32) = r1
    2219:	79 a1 00 ff 00 00 00 00	r1 = *(u64 *)(r10 - 256)
    2220:	63 1a e4 ff 00 00 00 00	*(u32 *)(r10 - 28) = r1
    2221:	7b 3a c8 fe 00 00 00 00	*(u64 *)(r10 - 312) = r3
    2222:	6b 3a f8 ff 00 00 00 00	*(u16 *)(r10 - 8) = r3
    2223:	79 a1 20 ff 00 00 00 00	r1 = *(u64 *)(r10 - 224)
    2224:	7b 1a f0 ff 00 00 00 00	*(u64 *)(r10 - 16) = r1
    2225:	79 a1 18 ff 00 00 00 00	r1 = *(u64 *)(r10 - 232)
    2226:	7b 1a e8 ff 00 00 00 00	*(u64 *)(r10 - 24) = r1
    2227:	69 a1 3a ff 00 00 00 00	r1 = *(u16 *)(r10 - 198)
    2228:	6b 1a fa ff 00 00 00 00	*(u16 *)(r10 - 6) = r1
    2229:	71 a1 3c ff 00 00 00 00	r1 = *(u8 *)(r10 - 196)
    2230:	73 1a fc ff 00 00 00 00	*(u8 *)(r10 - 4) = r1
    2231:	b7 01 00 00 00 00 00 00	r1 = 0
    2232:	73 1a fd ff 00 00 00 00	*(u8 *)(r10 - 3) = r1
    2233:	6b 1a 8a ff 00 00 00 00	*(u16 *)(r10 - 118) = r1
    2234:	b7 01 00 00 02 00 00 00	r1 = 2
    2235:	63 1a 8c ff 00 00 00 00	*(u32 *)(r10 - 116) = r1
    2236:	79 a1 e0 ff 00 00 00 00	r1 = *(u64 *)(r10 - 32)
    2237:	7b 1a 80 ff 00 00 00 00	*(u64 *)(r10 - 128) = r1
    2238:	79 a1 d8 ff 00 00 00 00	r1 = *(u64 *)(r10 - 40)
    2239:	7b 1a 78 ff 00 00 00 00	*(u64 *)(r10 - 136) = r1
    2240:	7b 2a 00 ff 00 00 00 00	*(u64 *)(r10 - 256) = r2
    2241:	6b 2a 88 ff 00 00 00 00	*(u16 *)(r10 - 120) = r2
    2242:	85 00 00 00 05 00 00 00	call 5
    2243:	37 00 00 00 00 ca 9a 3b	r0 /= 1000000000
    2244:	07 00 00 00 d0 02 00 00	r0 += 720
    2245:	63 0a 90 ff 00 00 00 00	*(u32 *)(r10 - 112) = r0
    2246:	79 a8 b8 fe 00 00 00 00	r8 = *(u64 *)(r10 - 328)
    2247:	15 08 21 00 00 00 00 00	if r8 == 0 goto +33 <LBB4_258>
    2248:	61 67 00 00 00 00 00 00	r7 = *(u32 *)(r6 + 0)
    2249:	bf 61 00 00 00 00 00 00	r1 = r6
    2250:	85 00 00 00 22 00 00 00	call 34
    2251:	63 0a a4 ff 00 00 00 00	*(u32 *)(r10 - 92) = r0
    2252:	b7 01 00 00 04 01 10 10	r1 = 269484292
    2253:	63 1a a0 ff 00 00 00 00	*(u32 *)(r10 - 96) = r1
    2254:	b7 01 00 00 02 00 00 00	r1 = 2
    2255:	7b 1a b0 ff 00 00 00 00	*(u64 *)(r10 - 80) = r1
    2256:	79 a1 d8 fe 00 00 00 00	r1 = *(u64 *)(r10 - 296)
    2257:	73 1a ba ff 00 00 00 00	*(u8 *)(r10 - 70) = r1
    2258:	b7 01 00 00 00 00 00 00	r1 = 0
    2259:	6b 1a b8 ff 00 00 00 00	*(u16 *)(r10 - 72) = r1
    2260:	73 1a bb ff 00 00 00 00	*(u8 *)(r10 - 69) = r1
    2261:	b7 01 00 00 01 00 00 00	r1 = 1
    2262:	63 1a bc ff 00 00 00 00	*(u32 *)(r10 - 68) = r1
    2263:	63 7a a8 ff 00 00 00 00	*(u32 *)(r10 - 88) = r7
    2264:	67 08 00 00 20 00 00 00	r8 <<= 32
    2265:	77 08 00 00 20 00 00 00	r8 >>= 32
    2266:	ad 78 01 00 00 00 00 00	if r8 < r7 goto +1 <LBB4_257>
    2267:	bf 78 00 00 00 00 00 00	r8 = r7

00000000000046e0 <LBB4_257>:
    2268:	63 8a ac ff 00 00 00 00	*(u32 *)(r10 - 84) = r8
    2269:	67 08 00 00 20 00 00 00	r8 <<= 32
    2270:	18 01 00 00 ff ff ff ff 00 00 00 00 00 00 00 00	r1 = 4294967295 ll
    2272:	4f 18 00 00 00 00 00 00	r8 |= r1
    2273:	bf a4 00 00 00 00 00 00	r4 = r10
    2274:	07 04 00 00 a0 ff ff ff	r4 += -96
    2275:	bf 61 00 00 00 00 00 00	r1 = r6
    2276:	18 02 00 00 00 00 00 00 00 00 00 00 00 00 00 00	r2 = 0 ll
    2278:	bf 83 00 00 00 00 00 00	r3 = r8
    2279:	b7 05 00 00 20 00 00 00	r5 = 32
    2280:	85 00 00 00 19 00 00 00	call 25

0000000000004748 <LBB4_258>:
    2281:	79 a1 e0 fe 00 00 00 00	r1 = *(u64 *)(r10 - 288)
    2282:	57 01 00 00 ff ff 00 00	r1 &= 65535
    2283:	79 a2 08 ff 00 00 00 00	r2 = *(u64 *)(r10 - 248)
    2284:	0f 12 00 00 00 00 00 00	r2 += r1
    2285:	79 a4 c8 fe 00 00 00 00	r4 = *(u64 *)(r10 - 312)
    2286:	6b 4a a0 ff 00 00 00 00	*(u16 *)(r10 - 96) = r4
    2287:	57 04 00 00 ff ff 00 00	r4 &= 65535
    2288:	79 a5 e8 fe 00 00 00 00	r5 = *(u64 *)(r10 - 280)
    2289:	47 05 00 00 02 00 00 00	r5 |= 2
    2290:	57 05 00 00 ff ff 00 00	r5 &= 65535
    2291:	bf 61 00 00 00 00 00 00	r1 = r6
    2292:	bf 28 00 00 00 00 00 00	r8 = r2
    2293:	79 a3 00 ff 00 00 00 00	r3 = *(u64 *)(r10 - 256)
    2294:	7b 4a c8 fe 00 00 00 00	*(u64 *)(r10 - 312) = r4
    2295:	85 00 00 00 0b 00 00 00	call 11
    2296:	67 00 00 00 20 00 00 00	r0 <<= 32
    2297:	c7 00 00 00 20 00 00 00	r0 s>>= 32
    2298:	65 00 03 00 ff ff ff ff	if r0 s> -1 goto +3 <LBB4_260>
    2299:	18 07 00 00 73 ff ff ff 00 00 00 00 00 00 00 00	r7 = 4294967155 ll
    2301:	05 00 54 00 00 00 00 00	goto +84 <LBB4_267>

00000000000047f0 <LBB4_260>:
    2302:	79 a2 10 ff 00 00 00 00	r2 = *(u64 *)(r10 - 240)
    2303:	07 02 00 00 10 00 00 00	r2 += 16
    2304:	bf a3 00 00 00 00 00 00	r3 = r10
    2305:	07 03 00 00 a0 ff ff ff	r3 += -96
    2306:	bf 61 00 00 00 00 00 00	r1 = r6
    2307:	b7 04 00 00 02 00 00 00	r4 = 2
    2308:	b7 05 00 00 00 00 00 00	r5 = 0
    2309:	85 00 00 00 09 00 00 00	call 9
    2310:	18 07 00 00 73 ff ff ff 00 00 00 00 00 00 00 00	r7 = 4294967155 ll
    2312:	67 00 00 00 20 00 00 00	r0 <<= 32
    2313:	c7 00 00 00 20 00 00 00	r0 s>>= 32
    2314:	c5 00 47 00 00 00 00 00	if r0 s< 0 goto +71 <LBB4_267>
    2315:	bf a3 00 00 00 00 00 00	r3 = r10
    2316:	07 03 00 00 40 ff ff ff	r3 += -192
    2317:	bf 61 00 00 00 00 00 00	r1 = r6
    2318:	b7 02 00 00 26 00 00 00	r2 = 38
    2319:	b7 04 00 00 10 00 00 00	r4 = 16
    2320:	b7 05 00 00 00 00 00 00	r5 = 0
    2321:	85 00 00 00 09 00 00 00	call 9
    2322:	67 00 00 00 20 00 00 00	r0 <<= 32
    2323:	c7 00 00 00 20 00 00 00	r0 s>>= 32
    2324:	65 00 3d 00 00 00 00 00	if r0 s> 0 goto +61 <LBB4_267>
    2325:	79 a1 e0 fe 00 00 00 00	r1 = *(u64 *)(r10 - 288)
    2326:	15 01 15 00 00 00 00 00	if r1 == 0 goto +21 <LBB4_264>
    2327:	bf a1 00 00 00 00 00 00	r1 = r10
    2328:	07 01 00 00 d8 ff ff ff	r1 += -40
    2329:	bf a3 00 00 00 00 00 00	r3 = r10
    2330:	07 03 00 00 40 ff ff ff	r3 += -192
    2331:	b7 02 00 00 10 00 00 00	r2 = 16
    2332:	b7 04 00 00 10 00 00 00	r4 = 16
    2333:	b7 05 00 00 00 00 00 00	r5 = 0
    2334:	85 00 00 00 1c 00 00 00	call 28
    2335:	79 a5 e8 fe 00 00 00 00	r5 = *(u64 *)(r10 - 280)
    2336:	47 05 00 00 10 00 00 00	r5 |= 16
    2337:	57 05 00 00 ff ff 00 00	r5 &= 65535
    2338:	bf 61 00 00 00 00 00 00	r1 = r6
    2339:	bf 82 00 00 00 00 00 00	r2 = r8
    2340:	b7 03 00 00 00 00 00 00	r3 = 0
    2341:	bf 04 00 00 00 00 00 00	r4 = r0
    2342:	85 00 00 00 0b 00 00 00	call 11
    2343:	18 07 00 00 66 ff ff ff 00 00 00 00 00 00 00 00	r7 = 4294967142 ll
    2345:	67 00 00 00 20 00 00 00	r0 <<= 32
    2346:	c7 00 00 00 20 00 00 00	r0 s>>= 32
    2347:	c5 00 26 00 00 00 00 00	if r0 s< 0 goto +38 <LBB4_267>

0000000000004960 <LBB4_264>:
    2348:	61 67 00 00 00 00 00 00	r7 = *(u32 *)(r6 + 0)
    2349:	bf 61 00 00 00 00 00 00	r1 = r6
    2350:	85 00 00 00 22 00 00 00	call 34
    2351:	63 0a a4 ff 00 00 00 00	*(u32 *)(r10 - 92) = r0
    2352:	b7 01 00 00 03 09 10 10	r1 = 269486339
    2353:	63 1a a0 ff 00 00 00 00	*(u32 *)(r10 - 96) = r1
    2354:	79 a1 c8 fe 00 00 00 00	r1 = *(u64 *)(r10 - 312)
    2355:	63 1a b0 ff 00 00 00 00	*(u32 *)(r10 - 80) = r1
    2356:	63 7a a8 ff 00 00 00 00	*(u32 *)(r10 - 88) = r7
    2357:	a5 07 01 00 80 00 00 00	if r7 < 128 goto +1 <LBB4_266>
    2358:	b7 07 00 00 80 00 00 00	r7 = 128

00000000000049b8 <LBB4_266>:
    2359:	63 7a ac ff 00 00 00 00	*(u32 *)(r10 - 84) = r7
    2360:	67 07 00 00 20 00 00 00	r7 <<= 32
    2361:	18 01 00 00 ff ff ff ff 00 00 00 00 00 00 00 00	r1 = 4294967295 ll
    2363:	4f 17 00 00 00 00 00 00	r7 |= r1
    2364:	b7 01 00 00 00 00 00 00	r1 = 0
    2365:	63 1a b4 ff 00 00 00 00	*(u32 *)(r10 - 76) = r1
    2366:	bf a4 00 00 00 00 00 00	r4 = r10
    2367:	07 04 00 00 a0 ff ff ff	r4 += -96
    2368:	bf 61 00 00 00 00 00 00	r1 = r6
    2369:	18 02 00 00 00 00 00 00 00 00 00 00 00 00 00 00	r2 = 0 ll
    2371:	bf 73 00 00 00 00 00 00	r3 = r7
    2372:	b7 05 00 00 18 00 00 00	r5 = 24
    2373:	85 00 00 00 19 00 00 00	call 25
    2374:	bf a2 00 00 00 00 00 00	r2 = r10
    2375:	07 02 00 00 e8 ff ff ff	r2 += -24
    2376:	bf a3 00 00 00 00 00 00	r3 = r10
    2377:	07 03 00 00 78 ff ff ff	r3 += -136
    2378:	18 01 00 00 00 00 00 00 00 00 00 00 00 00 00 00	r1 = 0 ll
    2380:	b7 04 00 00 00 00 00 00	r4 = 0
    2381:	85 00 00 00 02 00 00 00	call 2
    2382:	bf 07 00 00 00 00 00 00	r7 = r0
    2383:	67 07 00 00 20 00 00 00	r7 <<= 32
    2384:	c7 07 00 00 3f 00 00 00	r7 s>>= 63
    2385:	57 07 00 00 5f ff ff ff	r7 &= -161

0000000000004a90 <LBB4_267>:
    2386:	bf 71 00 00 00 00 00 00	r1 = r7
    2387:	67 01 00 00 20 00 00 00	r1 <<= 32
    2388:	77 01 00 00 20 00 00 00	r1 >>= 32
    2389:	b7 02 00 00 01 00 00 00	r2 = 1
    2390:	15 01 01 00 02 00 00 00	if r1 == 2 goto +1 <LBB4_269>
    2391:	b7 02 00 00 00 00 00 00	r2 = 0

0000000000004ac0 <LBB4_269>:
    2392:	77 01 00 00 1f 00 00 00	r1 >>= 31
    2393:	4f 21 00 00 00 00 00 00	r1 |= r2
    2394:	55 01 cd 02 00 00 00 00	if r1 != 0 goto +717 <LBB4_387>
    2395:	61 67 38 00 00 00 00 00	r7 = *(u32 *)(r6 + 56)
    2396:	bf 61 00 00 00 00 00 00	r1 = r6
    2397:	85 00 00 00 22 00 00 00	call 34
    2398:	63 0a a4 ff 00 00 00 00	*(u32 *)(r10 - 92) = r0
    2399:	b7 01 00 00 02 13 10 10	r1 = 269488898
    2400:	63 1a a0 ff 00 00 00 00	*(u32 *)(r10 - 96) = r1
    2401:	63 7a a8 ff 00 00 00 00	*(u32 *)(r10 - 88) = r7
    2402:	b7 01 00 00 00 00 00 00	r1 = 0
    2403:	63 1a ac ff 00 00 00 00	*(u32 *)(r10 - 84) = r1
    2404:	63 1a b0 ff 00 00 00 00	*(u32 *)(r10 - 80) = r1
    2405:	bf a4 00 00 00 00 00 00	r4 = r10
    2406:	07 04 00 00 a0 ff ff ff	r4 += -96
    2407:	bf 61 00 00 00 00 00 00	r1 = r6
    2408:	18 02 00 00 00 00 00 00 00 00 00 00 00 00 00 00	r2 = 0 ll
    2410:	18 03 00 00 ff ff ff ff 00 00 00 00 00 00 00 00	r3 = 4294967295 ll
    2412:	b7 05 00 00 14 00 00 00	r5 = 20
    2413:	85 00 00 00 19 00 00 00	call 25
    2414:	b7 08 00 00 01 00 00 00	r8 = 1
    2415:	30 00 00 00 15 00 00 00	r0 = *(u8 *)skb[21]
    2416:	bf 01 00 00 00 00 00 00	r1 = r0
    2417:	57 01 00 00 fe 00 00 00	r1 &= 254
    2418:	b7 07 00 00 01 00 00 00	r7 = 1
    2419:	15 01 0d 00 00 00 00 00	if r1 == 0 goto +13 <LBB4_272>
    2420:	07 00 00 00 ff 00 00 00	r0 += 255
    2421:	73 0a a0 ff 00 00 00 00	*(u8 *)(r10 - 96) = r0
    2422:	bf a3 00 00 00 00 00 00	r3 = r10
    2423:	07 03 00 00 a0 ff ff ff	r3 += -96
    2424:	bf 61 00 00 00 00 00 00	r1 = r6
    2425:	b7 02 00 00 15 00 00 00	r2 = 21
    2426:	b7 04 00 00 01 00 00 00	r4 = 1
    2427:	b7 05 00 00 01 00 00 00	r5 = 1
    2428:	85 00 00 00 09 00 00 00	call 9
    2429:	bf 07 00 00 00 00 00 00	r7 = r0
    2430:	67 07 00 00 20 00 00 00	r7 <<= 32
    2431:	c7 07 00 00 3f 00 00 00	r7 s>>= 63
    2432:	57 07 00 00 73 ff ff ff	r7 &= -141

0000000000004c08 <LBB4_272>:
    2433:	15 07 01 00 02 00 00 00	if r7 == 2 goto +1 <LBB4_274>
    2434:	b7 08 00 00 00 00 00 00	r8 = 0

0000000000004c18 <LBB4_274>:
    2435:	18 01 00 00 00 00 00 80 00 00 00 00 00 00 00 00	r1 = 2147483648 ll
    2437:	bf 72 00 00 00 00 00 00	r2 = r7
    2438:	5f 12 00 00 00 00 00 00	r2 &= r1
    2439:	77 02 00 00 1f 00 00 00	r2 >>= 31
    2440:	4f 82 00 00 00 00 00 00	r2 |= r8
    2441:	55 02 27 00 00 00 00 00	if r2 != 0 goto +39 <LBB4_281>
    2442:	c5 07 0f 00 01 00 00 00	if r7 s< 1 goto +15 <LBB4_279>

0000000000004c58 <LBB4_276>:
    2443:	b7 01 00 00 02 00 00 00	r1 = 2
    2444:	63 16 34 00 00 00 00 00	*(u32 *)(r6 + 52) = r1
    2445:	b7 01 00 00 0e 00 00 00	r1 = 14
    2446:	63 16 30 00 00 00 00 00	*(u32 *)(r6 + 48) = r1
    2447:	bf 61 00 00 00 00 00 00	r1 = r6
    2448:	18 02 00 00 00 00 00 00 00 00 00 00 00 00 00 00	r2 = 0 ll
    2450:	b7 03 00 00 05 00 00 00	r3 = 5

0000000000004c98 <LBB4_277>:
    2451:	85 00 00 00 0c 00 00 00	call 12
    2452:	18 07 00 00 74 ff ff ff 00 00 00 00 00 00 00 00	r7 = 4294967156 ll
    2454:	05 00 91 02 00 00 00 00	goto +657 <LBB4_387>

0000000000004cb8 <LBB4_278>:
    2455:	b7 01 00 00 80 00 00 00	r1 = 128
    2456:	6b 1a 3a ff 00 00 00 00	*(u16 *)(r10 - 198) = r1
    2457:	05 00 bc f9 00 00 00 00	goto -1604 <LBB4_131>

0000000000004cd0 <LBB4_279>:
    2458:	bf a3 00 00 00 00 00 00	r3 = r10
    2459:	07 03 00 00 70 ff ff ff	r3 += -144
    2460:	bf 61 00 00 00 00 00 00	r1 = r6
    2461:	b7 02 00 00 06 00 00 00	r2 = 6
    2462:	b7 04 00 00 06 00 00 00	r4 = 6
    2463:	b7 05 00 00 00 00 00 00	r5 = 0
    2464:	85 00 00 00 09 00 00 00	call 9
    2465:	18 07 00 00 73 ff ff ff 00 00 00 00 00 00 00 00	r7 = 4294967155 ll
    2467:	67 00 00 00 20 00 00 00	r0 <<= 32
    2468:	c7 00 00 00 20 00 00 00	r0 s>>= 32
    2469:	c5 00 82 02 00 00 00 00	if r0 s< 0 goto +642 <LBB4_387>
    2470:	bf a3 00 00 00 00 00 00	r3 = r10
    2471:	07 03 00 00 50 ff ff ff	r3 += -176
    2472:	bf 61 00 00 00 00 00 00	r1 = r6
    2473:	b7 02 00 00 00 00 00 00	r2 = 0
    2474:	b7 04 00 00 06 00 00 00	r4 = 6
    2475:	b7 05 00 00 00 00 00 00	r5 = 0
    2476:	85 00 00 00 09 00 00 00	call 9
    2477:	bf 07 00 00 00 00 00 00	r7 = r0
    2478:	67 07 00 00 20 00 00 00	r7 <<= 32
    2479:	c7 07 00 00 3f 00 00 00	r7 s>>= 63
    2480:	57 07 00 00 73 ff ff ff	r7 &= -141

0000000000004d88 <LBB4_281>:
    2481:	55 07 76 02 00 00 00 00	if r7 != 0 goto +630 <LBB4_387>
    2482:	61 67 00 00 00 00 00 00	r7 = *(u32 *)(r6 + 0)
    2483:	bf 61 00 00 00 00 00 00	r1 = r6
    2484:	85 00 00 00 22 00 00 00	call 34
    2485:	63 0a a4 ff 00 00 00 00	*(u32 *)(r10 - 92) = r0
    2486:	b7 01 00 00 03 04 10 10	r1 = 269485059
    2487:	63 1a a0 ff 00 00 00 00	*(u32 *)(r10 - 96) = r1
    2488:	63 7a a8 ff 00 00 00 00	*(u32 *)(r10 - 88) = r7
    2489:	a5 07 5b 02 80 00 00 00	if r7 < 128 goto +603 <LBB4_384>

0000000000004dd0 <LBB4_283>:
    2490:	b7 07 00 00 80 00 00 00	r7 = 128
    2491:	05 00 59 02 00 00 00 00	goto +601 <LBB4_384>

0000000000004de0 <LBB4_284>:
    2492:	15 01 38 00 3a 00 00 00	if r1 == 58 goto +56 <LBB4_296>
    2493:	55 01 38 00 11 00 00 00	if r1 != 17 goto +56 <LBB4_297>

0000000000004df0 <LBB4_286>:
    2494:	bf a3 00 00 00 00 00 00	r3 = r10
    2495:	07 03 00 00 78 ff ff ff	r3 += -136
    2496:	bf 61 00 00 00 00 00 00	r1 = r6
    2497:	79 a2 08 ff 00 00 00 00	r2 = *(u64 *)(r10 - 248)
    2498:	b7 04 00 00 02 00 00 00	r4 = 2
    2499:	85 00 00 00 1a 00 00 00	call 26
    2500:	bf 07 00 00 00 00 00 00	r7 = r0
    2501:	bf 71 00 00 00 00 00 00	r1 = r7
    2502:	67 01 00 00 20 00 00 00	r1 <<= 32
    2503:	77 01 00 00 20 00 00 00	r1 >>= 32
    2504:	b7 02 00 00 01 00 00 00	r2 = 1
    2505:	15 01 01 00 02 00 00 00	if r1 == 2 goto +1 <LBB4_288>
    2506:	b7 02 00 00 00 00 00 00	r2 = 0

0000000000004e58 <LBB4_288>:
    2507:	77 01 00 00 1f 00 00 00	r1 >>= 31
    2508:	4f 21 00 00 00 00 00 00	r1 |= r2
    2509:	55 01 26 00 00 00 00 00	if r1 != 0 goto +38 <LBB4_295>
    2510:	69 a3 78 ff 00 00 00 00	r3 = *(u16 *)(r10 - 136)
    2511:	1d 83 25 00 00 00 00 00	if r3 == r8 goto +37 <LBB4_296>
    2512:	79 a1 e0 fe 00 00 00 00	r1 = *(u64 *)(r10 - 288)
    2513:	57 01 00 00 ff ff 00 00	r1 &= 65535
    2514:	79 a2 08 ff 00 00 00 00	r2 = *(u64 *)(r10 - 248)
    2515:	0f 12 00 00 00 00 00 00	r2 += r1
    2516:	6b 8a a0 ff 00 00 00 00	*(u16 *)(r10 - 96) = r8
    2517:	79 a5 e8 fe 00 00 00 00	r5 = *(u64 *)(r10 - 280)
    2518:	47 05 00 00 02 00 00 00	r5 |= 2
    2519:	57 05 00 00 ff ff 00 00	r5 &= 65535
    2520:	bf 61 00 00 00 00 00 00	r1 = r6
    2521:	bf 84 00 00 00 00 00 00	r4 = r8
    2522:	85 00 00 00 0b 00 00 00	call 11
    2523:	18 07 00 00 66 ff ff ff 00 00 00 00 00 00 00 00	r7 = 4294967142 ll
    2525:	67 00 00 00 20 00 00 00	r0 <<= 32
    2526:	c7 00 00 00 20 00 00 00	r0 s>>= 32
    2527:	c5 00 0b 00 00 00 00 00	if r0 s< 0 goto +11 <LBB4_292>
    2528:	bf a3 00 00 00 00 00 00	r3 = r10
    2529:	07 03 00 00 a0 ff ff ff	r3 += -96
    2530:	bf 61 00 00 00 00 00 00	r1 = r6
    2531:	79 a2 08 ff 00 00 00 00	r2 = *(u64 *)(r10 - 248)
    2532:	b7 04 00 00 02 00 00 00	r4 = 2
    2533:	b7 05 00 00 00 00 00 00	r5 = 0
    2534:	85 00 00 00 09 00 00 00	call 9
    2535:	bf 07 00 00 00 00 00 00	r7 = r0
    2536:	67 07 00 00 20 00 00 00	r7 <<= 32
    2537:	c7 07 00 00 3f 00 00 00	r7 s>>= 63
    2538:	57 07 00 00 73 ff ff ff	r7 &= -141

0000000000004f58 <LBB4_292>:
    2539:	bf 71 00 00 00 00 00 00	r1 = r7
    2540:	67 01 00 00 20 00 00 00	r1 <<= 32
    2541:	77 01 00 00 20 00 00 00	r1 >>= 32
    2542:	b7 02 00 00 01 00 00 00	r2 = 1
    2543:	15 01 01 00 02 00 00 00	if r1 == 2 goto +1 <LBB4_294>
    2544:	b7 02 00 00 00 00 00 00	r2 = 0

0000000000004f88 <LBB4_294>:
    2545:	77 01 00 00 1f 00 00 00	r1 >>= 31
    2546:	4f 21 00 00 00 00 00 00	r1 |= r2
    2547:	15 01 01 00 00 00 00 00	if r1 == 0 goto +1 <LBB4_296>

0000000000004fa0 <LBB4_295>:
    2548:	05 00 01 00 00 00 00 00	goto +1 <LBB4_297>

0000000000004fa8 <LBB4_296>:
    2549:	b7 07 00 00 00 00 00 00	r7 = 0

0000000000004fb0 <LBB4_297>:
    2550:	bf 71 00 00 00 00 00 00	r1 = r7
    2551:	67 01 00 00 20 00 00 00	r1 <<= 32
    2552:	77 01 00 00 20 00 00 00	r1 >>= 32
    2553:	b7 02 00 00 01 00 00 00	r2 = 1
    2554:	15 01 01 00 02 00 00 00	if r1 == 2 goto +1 <LBB4_299>
    2555:	b7 02 00 00 00 00 00 00	r2 = 0

0000000000004fe0 <LBB4_299>:
    2556:	77 01 00 00 1f 00 00 00	r1 >>= 31
    2557:	4f 21 00 00 00 00 00 00	r1 |= r2
    2558:	55 01 3c 00 00 00 00 00	if r1 != 0 goto +60 <LBB4_305>

0000000000004ff8 <LBB4_300>:
    2559:	bf a3 00 00 00 00 00 00	r3 = r10
    2560:	07 03 00 00 a0 ff ff ff	r3 += -96
    2561:	bf 61 00 00 00 00 00 00	r1 = r6
    2562:	b7 02 00 00 16 00 00 00	r2 = 22
    2563:	b7 04 00 00 10 00 00 00	r4 = 16
    2564:	85 00 00 00 1a 00 00 00	call 26
    2565:	18 07 00 00 7a ff ff ff 00 00 00 00 00 00 00 00	r7 = 4294967162 ll
    2567:	67 00 00 00 20 00 00 00	r0 <<= 32
    2568:	c7 00 00 00 20 00 00 00	r0 s>>= 32
    2569:	c5 00 31 00 00 00 00 00	if r0 s< 0 goto +49 <LBB4_305>
    2570:	79 a2 10 ff 00 00 00 00	r2 = *(u64 *)(r10 - 240)
    2571:	61 21 00 00 00 00 00 00	r1 = *(u32 *)(r2 + 0)
    2572:	63 1a 78 ff 00 00 00 00	*(u32 *)(r10 - 136) = r1
    2573:	61 21 04 00 00 00 00 00	r1 = *(u32 *)(r2 + 4)
    2574:	63 1a 7c ff 00 00 00 00	*(u32 *)(r10 - 132) = r1
    2575:	61 21 08 00 00 00 00 00	r1 = *(u32 *)(r2 + 8)
    2576:	63 1a 80 ff 00 00 00 00	*(u32 *)(r10 - 128) = r1
    2577:	61 21 0c 00 00 00 00 00	r1 = *(u32 *)(r2 + 12)
    2578:	63 1a 84 ff 00 00 00 00	*(u32 *)(r10 - 124) = r1
    2579:	bf a3 00 00 00 00 00 00	r3 = r10
    2580:	07 03 00 00 78 ff ff ff	r3 += -136
    2581:	bf 61 00 00 00 00 00 00	r1 = r6
    2582:	b7 02 00 00 16 00 00 00	r2 = 22
    2583:	b7 04 00 00 10 00 00 00	r4 = 16
    2584:	b7 05 00 00 00 00 00 00	r5 = 0
    2585:	85 00 00 00 09 00 00 00	call 9
    2586:	67 00 00 00 20 00 00 00	r0 <<= 32
    2587:	77 00 00 00 20 00 00 00	r0 >>= 32
    2588:	b7 01 00 00 01 00 00 00	r1 = 1
    2589:	15 00 01 00 02 00 00 00	if r0 == 2 goto +1 <LBB4_303>
    2590:	b7 01 00 00 00 00 00 00	r1 = 0

00000000000050f8 <LBB4_303>:
    2591:	77 00 00 00 1f 00 00 00	r0 >>= 31
    2592:	4f 10 00 00 00 00 00 00	r0 |= r1
    2593:	18 07 00 00 73 ff ff ff 00 00 00 00 00 00 00 00	r7 = 4294967155 ll
    2595:	55 00 17 00 00 00 00 00	if r0 != 0 goto +23 <LBB4_305>
    2596:	bf a1 00 00 00 00 00 00	r1 = r10
    2597:	07 01 00 00 a0 ff ff ff	r1 += -96
    2598:	bf a3 00 00 00 00 00 00	r3 = r10
    2599:	07 03 00 00 78 ff ff ff	r3 += -136
    2600:	b7 02 00 00 10 00 00 00	r2 = 16
    2601:	b7 04 00 00 10 00 00 00	r4 = 16
    2602:	b7 05 00 00 00 00 00 00	r5 = 0
    2603:	85 00 00 00 1c 00 00 00	call 28
    2604:	79 a1 e0 fe 00 00 00 00	r1 = *(u64 *)(r10 - 288)
    2605:	57 01 00 00 ff ff 00 00	r1 &= 65535
    2606:	79 a2 08 ff 00 00 00 00	r2 = *(u64 *)(r10 - 248)
    2607:	0f 12 00 00 00 00 00 00	r2 += r1
    2608:	79 a5 e8 fe 00 00 00 00	r5 = *(u64 *)(r10 - 280)
    2609:	47 05 00 00 10 00 00 00	r5 |= 16
    2610:	57 05 00 00 ff ff 00 00	r5 &= 65535
    2611:	bf 61 00 00 00 00 00 00	r1 = r6
    2612:	b7 03 00 00 00 00 00 00	r3 = 0
    2613:	bf 04 00 00 00 00 00 00	r4 = r0
    2614:	85 00 00 00 0b 00 00 00	call 11
    2615:	bf 07 00 00 00 00 00 00	r7 = r0
    2616:	67 07 00 00 20 00 00 00	r7 <<= 32
    2617:	c7 07 00 00 3f 00 00 00	r7 s>>= 63
    2618:	57 07 00 00 66 ff ff ff	r7 &= -154

00000000000051d8 <LBB4_305>:
    2619:	bf 71 00 00 00 00 00 00	r1 = r7
    2620:	67 01 00 00 20 00 00 00	r1 <<= 32
    2621:	77 01 00 00 20 00 00 00	r1 >>= 32
    2622:	b7 02 00 00 01 00 00 00	r2 = 1
    2623:	15 01 01 00 02 00 00 00	if r1 == 2 goto +1 <LBB4_307>
    2624:	b7 02 00 00 00 00 00 00	r2 = 0

0000000000005208 <LBB4_307>:
    2625:	77 01 00 00 1f 00 00 00	r1 >>= 31
    2626:	4f 21 00 00 00 00 00 00	r1 |= r2
    2627:	55 01 e4 01 00 00 00 00	if r1 != 0 goto +484 <LBB4_387>
    2628:	b7 01 00 00 01 00 00 00	r1 = 1
    2629:	63 16 38 00 00 00 00 00	*(u32 *)(r6 + 56) = r1

0000000000005230 <LBB4_309>:
    2630:	61 61 50 00 00 00 00 00	r1 = *(u32 *)(r6 + 80)
    2631:	61 68 4c 00 00 00 00 00	r8 = *(u32 *)(r6 + 76)
    2632:	bf 82 00 00 00 00 00 00	r2 = r8
    2633:	07 02 00 00 36 00 00 00	r2 += 54
    2634:	18 07 00 00 7a ff ff ff 00 00 00 00 00 00 00 00	r7 = 4294967162 ll
    2636:	2d 12 db 01 00 00 00 00	if r2 > r1 goto +475 <LBB4_387>
    2637:	b7 01 00 00 02 00 00 00	r1 = 2
    2638:	63 1a b0 ff 00 00 00 00	*(u32 *)(r10 - 80) = r1
    2639:	71 82 2f 00 00 00 00 00	r2 = *(u8 *)(r8 + 47)
    2640:	67 02 00 00 08 00 00 00	r2 <<= 8
    2641:	71 81 2e 00 00 00 00 00	r1 = *(u8 *)(r8 + 46)
    2642:	4f 12 00 00 00 00 00 00	r2 |= r1
    2643:	71 81 31 00 00 00 00 00	r1 = *(u8 *)(r8 + 49)
    2644:	67 01 00 00 08 00 00 00	r1 <<= 8
    2645:	71 83 30 00 00 00 00 00	r3 = *(u8 *)(r8 + 48)
    2646:	4f 31 00 00 00 00 00 00	r1 |= r3
    2647:	67 01 00 00 10 00 00 00	r1 <<= 16
    2648:	4f 21 00 00 00 00 00 00	r1 |= r2
    2649:	71 83 33 00 00 00 00 00	r3 = *(u8 *)(r8 + 51)
    2650:	67 03 00 00 08 00 00 00	r3 <<= 8
    2651:	71 82 32 00 00 00 00 00	r2 = *(u8 *)(r8 + 50)
    2652:	4f 23 00 00 00 00 00 00	r3 |= r2
    2653:	71 82 35 00 00 00 00 00	r2 = *(u8 *)(r8 + 53)
    2654:	67 02 00 00 08 00 00 00	r2 <<= 8
    2655:	71 84 34 00 00 00 00 00	r4 = *(u8 *)(r8 + 52)
    2656:	4f 42 00 00 00 00 00 00	r2 |= r4
    2657:	67 02 00 00 10 00 00 00	r2 <<= 16
    2658:	4f 32 00 00 00 00 00 00	r2 |= r3
    2659:	67 02 00 00 20 00 00 00	r2 <<= 32
    2660:	4f 12 00 00 00 00 00 00	r2 |= r1
    2661:	71 83 27 00 00 00 00 00	r3 = *(u8 *)(r8 + 39)
    2662:	67 03 00 00 08 00 00 00	r3 <<= 8
    2663:	71 81 26 00 00 00 00 00	r1 = *(u8 *)(r8 + 38)
    2664:	4f 13 00 00 00 00 00 00	r3 |= r1
    2665:	71 81 29 00 00 00 00 00	r1 = *(u8 *)(r8 + 41)
    2666:	67 01 00 00 08 00 00 00	r1 <<= 8
    2667:	71 84 28 00 00 00 00 00	r4 = *(u8 *)(r8 + 40)
    2668:	4f 41 00 00 00 00 00 00	r1 |= r4
    2669:	7b 2a a8 ff 00 00 00 00	*(u64 *)(r10 - 88) = r2
    2670:	67 01 00 00 10 00 00 00	r1 <<= 16
    2671:	4f 31 00 00 00 00 00 00	r1 |= r3
    2672:	71 82 2b 00 00 00 00 00	r2 = *(u8 *)(r8 + 43)
    2673:	67 02 00 00 08 00 00 00	r2 <<= 8
    2674:	71 83 2a 00 00 00 00 00	r3 = *(u8 *)(r8 + 42)
    2675:	4f 32 00 00 00 00 00 00	r2 |= r3
    2676:	71 83 2d 00 00 00 00 00	r3 = *(u8 *)(r8 + 45)
    2677:	67 03 00 00 08 00 00 00	r3 <<= 8
    2678:	71 84 2c 00 00 00 00 00	r4 = *(u8 *)(r8 + 44)
    2679:	4f 43 00 00 00 00 00 00	r3 |= r4
    2680:	67 03 00 00 10 00 00 00	r3 <<= 16
    2681:	4f 23 00 00 00 00 00 00	r3 |= r2
    2682:	67 03 00 00 20 00 00 00	r3 <<= 32
    2683:	4f 13 00 00 00 00 00 00	r3 |= r1
    2684:	7b 3a a0 ff 00 00 00 00	*(u64 *)(r10 - 96) = r3
    2685:	bf a2 00 00 00 00 00 00	r2 = r10
    2686:	07 02 00 00 a0 ff ff ff	r2 += -96
    2687:	18 01 00 00 00 00 00 00 00 00 00 00 00 00 00 00	r1 = 0 ll
    2689:	85 00 00 00 01 00 00 00	call 1
    2690:	15 00 3d 00 00 00 00 00	if r0 == 0 goto +61 <LBB4_319>
    2691:	71 01 08 00 00 00 00 00	r1 = *(u8 *)(r0 + 8)
    2692:	57 01 00 00 01 00 00 00	r1 &= 1
    2693:	55 01 76 00 00 00 00 00	if r1 != 0 goto +118 <LBB4_323>
    2694:	b7 01 00 00 00 00 00 00	r1 = 0
    2695:	63 16 38 00 00 00 00 00	*(u32 *)(r6 + 56) = r1
    2696:	69 08 06 00 00 00 00 00	r8 = *(u16 *)(r0 + 6)
    2697:	bf 61 00 00 00 00 00 00	r1 = r6
    2698:	bf 07 00 00 00 00 00 00	r7 = r0
    2699:	85 00 00 00 22 00 00 00	call 34
    2700:	63 0a a4 ff 00 00 00 00	*(u32 *)(r10 - 92) = r0
    2701:	b7 01 00 00 02 02 10 10	r1 = 269484546
    2702:	63 1a a0 ff 00 00 00 00	*(u32 *)(r10 - 96) = r1
    2703:	63 8a a8 ff 00 00 00 00	*(u32 *)(r10 - 88) = r8
    2704:	b7 01 00 00 02 00 00 00	r1 = 2
    2705:	63 1a ac ff 00 00 00 00	*(u32 *)(r10 - 84) = r1
    2706:	b7 01 00 00 00 00 00 00	r1 = 0
    2707:	63 1a b0 ff 00 00 00 00	*(u32 *)(r10 - 80) = r1
    2708:	bf a4 00 00 00 00 00 00	r4 = r10
    2709:	07 04 00 00 a0 ff ff ff	r4 += -96
    2710:	bf 61 00 00 00 00 00 00	r1 = r6
    2711:	18 02 00 00 00 00 00 00 00 00 00 00 00 00 00 00	r2 = 0 ll
    2713:	18 03 00 00 ff ff ff ff 00 00 00 00 00 00 00 00	r3 = 4294967295 ll
    2715:	b7 05 00 00 14 00 00 00	r5 = 20
    2716:	85 00 00 00 19 00 00 00	call 25
    2717:	79 71 10 00 00 00 00 00	r1 = *(u64 *)(r7 + 16)
    2718:	7b 1a e8 ff 00 00 00 00	*(u64 *)(r10 - 24) = r1
    2719:	7b 7a 10 ff 00 00 00 00	*(u64 *)(r10 - 240) = r7
    2720:	79 71 18 00 00 00 00 00	r1 = *(u64 *)(r7 + 24)
    2721:	7b 1a d8 ff 00 00 00 00	*(u64 *)(r10 - 40) = r1
    2722:	b7 08 00 00 01 00 00 00	r8 = 1
    2723:	30 00 00 00 15 00 00 00	r0 = *(u8 *)skb[21]
    2724:	bf 01 00 00 00 00 00 00	r1 = r0
    2725:	57 01 00 00 fe 00 00 00	r1 &= 254
    2726:	b7 07 00 00 01 00 00 00	r7 = 1
    2727:	15 01 0d 00 00 00 00 00	if r1 == 0 goto +13 <LBB4_314>
    2728:	07 00 00 00 ff 00 00 00	r0 += 255
    2729:	73 0a a0 ff 00 00 00 00	*(u8 *)(r10 - 96) = r0
    2730:	bf a3 00 00 00 00 00 00	r3 = r10
    2731:	07 03 00 00 a0 ff ff ff	r3 += -96
    2732:	bf 61 00 00 00 00 00 00	r1 = r6
    2733:	b7 02 00 00 15 00 00 00	r2 = 21
    2734:	b7 04 00 00 01 00 00 00	r4 = 1
    2735:	b7 05 00 00 01 00 00 00	r5 = 1
    2736:	85 00 00 00 09 00 00 00	call 9
    2737:	bf 07 00 00 00 00 00 00	r7 = r0
    2738:	67 07 00 00 20 00 00 00	r7 <<= 32
    2739:	c7 07 00 00 3f 00 00 00	r7 s>>= 63
    2740:	57 07 00 00 73 ff ff ff	r7 &= -141

00000000000055a8 <LBB4_314>:
    2741:	15 07 01 00 02 00 00 00	if r7 == 2 goto +1 <LBB4_316>
    2742:	b7 08 00 00 00 00 00 00	r8 = 0

00000000000055b8 <LBB4_316>:
    2743:	18 01 00 00 00 00 00 80 00 00 00 00 00 00 00 00	r1 = 2147483648 ll
    2745:	bf 72 00 00 00 00 00 00	r2 = r7
    2746:	5f 12 00 00 00 00 00 00	r2 &= r1
    2747:	77 02 00 00 1f 00 00 00	r2 >>= 31
    2748:	4f 82 00 00 00 00 00 00	r2 |= r8
    2749:	55 02 89 00 00 00 00 00	if r2 != 0 goto +137 <LBB4_335>
    2750:	c5 07 71 00 01 00 00 00	if r7 s< 1 goto +113 <LBB4_333>
    2751:	05 00 cb fe 00 00 00 00	goto -309 <LBB4_276>

0000000000005600 <LBB4_319>:
    2752:	79 a1 88 fe 00 00 00 00	r1 = *(u64 *)(r10 - 376)
    2753:	67 01 00 00 20 00 00 00	r1 <<= 32
    2754:	77 01 00 00 20 00 00 00	r1 >>= 32
    2755:	15 01 fa 01 00 00 00 00	if r1 == 0 goto +506 <LBB4_330>
    2756:	b7 08 00 00 00 00 00 00	r8 = 0
    2757:	63 8a 90 ff 00 00 00 00	*(u32 *)(r10 - 112) = r8
    2758:	7b 8a 88 ff 00 00 00 00	*(u64 *)(r10 - 120) = r8
    2759:	7b 8a 80 ff 00 00 00 00	*(u64 *)(r10 - 128) = r8
    2760:	b7 01 00 00 02 00 00 00	r1 = 2
    2761:	63 1a 78 ff 00 00 00 00	*(u32 *)(r10 - 136) = r1
    2762:	79 a7 88 fe 00 00 00 00	r7 = *(u64 *)(r10 - 376)
    2763:	dc 07 00 00 20 00 00 00	r7 = be32 r7
    2764:	63 7a 7c ff 00 00 00 00	*(u32 *)(r10 - 132) = r7
    2765:	bf 61 00 00 00 00 00 00	r1 = r6
    2766:	85 00 00 00 22 00 00 00	call 34
    2767:	63 0a a4 ff 00 00 00 00	*(u32 *)(r10 - 92) = r0
    2768:	b7 01 00 00 02 03 10 10	r1 = 269484802
    2769:	63 1a a0 ff 00 00 00 00	*(u32 *)(r10 - 96) = r1
    2770:	63 7a a8 ff 00 00 00 00	*(u32 *)(r10 - 88) = r7
    2771:	b7 01 00 00 02 00 00 00	r1 = 2
    2772:	63 1a ac ff 00 00 00 00	*(u32 *)(r10 - 84) = r1
    2773:	63 8a b0 ff 00 00 00 00	*(u32 *)(r10 - 80) = r8
    2774:	bf a4 00 00 00 00 00 00	r4 = r10
    2775:	07 04 00 00 a0 ff ff ff	r4 += -96
    2776:	bf 61 00 00 00 00 00 00	r1 = r6
    2777:	18 02 00 00 00 00 00 00 00 00 00 00 00 00 00 00	r2 = 0 ll
    2779:	18 03 00 00 ff ff ff ff 00 00 00 00 00 00 00 00	r3 = 4294967295 ll
    2781:	b7 05 00 00 14 00 00 00	r5 = 20
    2782:	85 00 00 00 19 00 00 00	call 25
    2783:	bf a2 00 00 00 00 00 00	r2 = r10
    2784:	07 02 00 00 78 ff ff ff	r2 += -136
    2785:	bf 61 00 00 00 00 00 00	r1 = r6
    2786:	b7 03 00 00 1c 00 00 00	r3 = 28
    2787:	b7 04 00 00 00 00 00 00	r4 = 0
    2788:	85 00 00 00 15 00 00 00	call 21
    2789:	18 07 00 00 73 ff ff ff 00 00 00 00 00 00 00 00	r7 = 4294967155 ll
    2791:	67 00 00 00 20 00 00 00	r0 <<= 32
    2792:	c7 00 00 00 20 00 00 00	r0 s>>= 32
    2793:	c5 00 3e 01 00 00 00 00	if r0 s< 0 goto +318 <LBB4_387>
    2794:	61 67 00 00 00 00 00 00	r7 = *(u32 *)(r6 + 0)
    2795:	7b 8a a8 ff 00 00 00 00	*(u64 *)(r10 - 88) = r8
    2796:	7b 8a a0 ff 00 00 00 00	*(u64 *)(r10 - 96) = r8
    2797:	b7 01 00 00 00 02 00 00	r1 = 512
    2798:	7b 1a e8 ff 00 00 00 00	*(u64 *)(r10 - 24) = r1
    2799:	bf a2 00 00 00 00 00 00	r2 = r10
    2800:	07 02 00 00 e8 ff ff ff	r2 += -24
    2801:	18 01 00 00 00 00 00 00 00 00 00 00 00 00 00 00	r1 = 0 ll
    2803:	85 00 00 00 01 00 00 00	call 1
    2804:	15 00 a8 00 00 00 00 00	if r0 == 0 goto +168 <LBB4_343>
    2805:	79 01 00 00 00 00 00 00	r1 = *(u64 *)(r0 + 0)
    2806:	07 01 00 00 01 00 00 00	r1 += 1
    2807:	7b 10 00 00 00 00 00 00	*(u64 *)(r0 + 0) = r1
    2808:	79 01 08 00 00 00 00 00	r1 = *(u64 *)(r0 + 8)
    2809:	0f 71 00 00 00 00 00 00	r1 += r7
    2810:	7b 10 08 00 00 00 00 00	*(u64 *)(r0 + 8) = r1
    2811:	05 00 ac 00 00 00 00 00	goto +172 <LBB4_344>

00000000000057e0 <LBB4_323>:
    2812:	18 01 00 00 ce 72 a7 03 00 00 00 00 88 56 00 00	r1 = 95142176846542 ll
    2814:	7b 1a e8 ff 00 00 00 00	*(u64 *)(r10 - 24) = r1
    2815:	61 67 38 00 00 00 00 00	r7 = *(u32 *)(r6 + 56)
    2816:	bf 61 00 00 00 00 00 00	r1 = r6
    2817:	85 00 00 00 22 00 00 00	call 34
    2818:	63 0a a4 ff 00 00 00 00	*(u32 *)(r10 - 92) = r0
    2819:	b7 01 00 00 02 13 10 10	r1 = 269488898
    2820:	63 1a a0 ff 00 00 00 00	*(u32 *)(r10 - 96) = r1
    2821:	63 7a a8 ff 00 00 00 00	*(u32 *)(r10 - 88) = r7
    2822:	b7 01 00 00 00 00 00 00	r1 = 0
    2823:	63 1a ac ff 00 00 00 00	*(u32 *)(r10 - 84) = r1
    2824:	63 1a b0 ff 00 00 00 00	*(u32 *)(r10 - 80) = r1
    2825:	bf a4 00 00 00 00 00 00	r4 = r10
    2826:	07 04 00 00 a0 ff ff ff	r4 += -96
    2827:	bf 61 00 00 00 00 00 00	r1 = r6
    2828:	18 02 00 00 00 00 00 00 00 00 00 00 00 00 00 00	r2 = 0 ll
    2830:	18 03 00 00 ff ff ff ff 00 00 00 00 00 00 00 00	r3 = 4294967295 ll
    2832:	b7 05 00 00 14 00 00 00	r5 = 20
    2833:	85 00 00 00 19 00 00 00	call 25
    2834:	b7 08 00 00 01 00 00 00	r8 = 1
    2835:	30 00 00 00 15 00 00 00	r0 = *(u8 *)skb[21]
    2836:	bf 01 00 00 00 00 00 00	r1 = r0
    2837:	57 01 00 00 fe 00 00 00	r1 &= 254
    2838:	b7 07 00 00 01 00 00 00	r7 = 1
    2839:	15 01 0d 00 00 00 00 00	if r1 == 0 goto +13 <LBB4_325>
    2840:	07 00 00 00 ff 00 00 00	r0 += 255
    2841:	73 0a a0 ff 00 00 00 00	*(u8 *)(r10 - 96) = r0
    2842:	bf a3 00 00 00 00 00 00	r3 = r10
    2843:	07 03 00 00 a0 ff ff ff	r3 += -96
    2844:	bf 61 00 00 00 00 00 00	r1 = r6
    2845:	b7 02 00 00 15 00 00 00	r2 = 21
    2846:	b7 04 00 00 01 00 00 00	r4 = 1
    2847:	b7 05 00 00 01 00 00 00	r5 = 1
    2848:	85 00 00 00 09 00 00 00	call 9
    2849:	bf 07 00 00 00 00 00 00	r7 = r0
    2850:	67 07 00 00 20 00 00 00	r7 <<= 32
    2851:	c7 07 00 00 3f 00 00 00	r7 s>>= 63
    2852:	57 07 00 00 73 ff ff ff	r7 &= -141

0000000000005928 <LBB4_325>:
    2853:	15 07 01 00 02 00 00 00	if r7 == 2 goto +1 <LBB4_327>
    2854:	b7 08 00 00 00 00 00 00	r8 = 0

0000000000005938 <LBB4_327>:
    2855:	18 01 00 00 00 00 00 80 00 00 00 00 00 00 00 00	r1 = 2147483648 ll
    2857:	bf 72 00 00 00 00 00 00	r2 = r7
    2858:	5f 12 00 00 00 00 00 00	r2 &= r1
    2859:	77 02 00 00 1f 00 00 00	r2 >>= 31
    2860:	4f 82 00 00 00 00 00 00	r2 |= r8
    2861:	55 02 5b 00 00 00 00 00	if r2 != 0 goto +91 <LBB4_340>
    2862:	c5 07 43 00 01 00 00 00	if r7 s< 1 goto +67 <LBB4_338>
    2863:	05 00 5b fe 00 00 00 00	goto -421 <LBB4_276>

0000000000005980 <LBB4_333>:
    2864:	bf a3 00 00 00 00 00 00	r3 = r10
    2865:	07 03 00 00 d8 ff ff ff	r3 += -40
    2866:	bf 61 00 00 00 00 00 00	r1 = r6
    2867:	b7 02 00 00 06 00 00 00	r2 = 6
    2868:	b7 04 00 00 06 00 00 00	r4 = 6
    2869:	b7 05 00 00 00 00 00 00	r5 = 0
    2870:	85 00 00 00 09 00 00 00	call 9
    2871:	18 07 00 00 73 ff ff ff 00 00 00 00 00 00 00 00	r7 = 4294967155 ll
    2873:	67 00 00 00 20 00 00 00	r0 <<= 32
    2874:	c7 00 00 00 20 00 00 00	r0 s>>= 32
    2875:	c5 00 ec 00 00 00 00 00	if r0 s< 0 goto +236 <LBB4_387>
    2876:	bf a3 00 00 00 00 00 00	r3 = r10
    2877:	07 03 00 00 e8 ff ff ff	r3 += -24
    2878:	bf 61 00 00 00 00 00 00	r1 = r6
    2879:	b7 02 00 00 00 00 00 00	r2 = 0
    2880:	b7 04 00 00 06 00 00 00	r4 = 6
    2881:	b7 05 00 00 00 00 00 00	r5 = 0
    2882:	85 00 00 00 09 00 00 00	call 9
    2883:	bf 07 00 00 00 00 00 00	r7 = r0
    2884:	67 07 00 00 20 00 00 00	r7 <<= 32
    2885:	c7 07 00 00 3f 00 00 00	r7 s>>= 63
    2886:	57 07 00 00 73 ff ff ff	r7 &= -141

0000000000005a38 <LBB4_335>:
    2887:	55 07 e0 00 00 00 00 00	if r7 != 0 goto +224 <LBB4_387>
    2888:	79 a8 10 ff 00 00 00 00	r8 = *(u64 *)(r10 - 240)
    2889:	61 87 00 00 00 00 00 00	r7 = *(u32 *)(r8 + 0)
    2890:	bf 61 00 00 00 00 00 00	r1 = r6
    2891:	85 00 00 00 22 00 00 00	call 34
    2892:	63 0a a4 ff 00 00 00 00	*(u32 *)(r10 - 92) = r0
    2893:	b7 01 00 00 02 04 10 10	r1 = 269485058
    2894:	63 1a a0 ff 00 00 00 00	*(u32 *)(r10 - 96) = r1
    2895:	63 7a a8 ff 00 00 00 00	*(u32 *)(r10 - 88) = r7
    2896:	b7 07 00 00 00 00 00 00	r7 = 0
    2897:	63 7a ac ff 00 00 00 00	*(u32 *)(r10 - 84) = r7
    2898:	63 7a b0 ff 00 00 00 00	*(u32 *)(r10 - 80) = r7
    2899:	bf a4 00 00 00 00 00 00	r4 = r10
    2900:	07 04 00 00 a0 ff ff ff	r4 += -96
    2901:	bf 61 00 00 00 00 00 00	r1 = r6
    2902:	18 02 00 00 00 00 00 00 00 00 00 00 00 00 00 00	r2 = 0 ll
    2904:	18 03 00 00 ff ff ff ff 00 00 00 00 00 00 00 00	r3 = 4294967295 ll
    2906:	b7 05 00 00 14 00 00 00	r5 = 20
    2907:	85 00 00 00 19 00 00 00	call 25
    2908:	b7 01 00 00 02 00 00 00	r1 = 2
    2909:	63 16 30 00 00 00 00 00	*(u32 *)(r6 + 48) = r1
    2910:	61 81 00 00 00 00 00 00	r1 = *(u32 *)(r8 + 0)
    2911:	63 16 34 00 00 00 00 00	*(u32 *)(r6 + 52) = r1
    2912:	61 68 00 00 00 00 00 00	r8 = *(u32 *)(r6 + 0)
    2913:	7b 7a a8 ff 00 00 00 00	*(u64 *)(r10 - 88) = r7
    2914:	7b 7a a0 ff 00 00 00 00	*(u64 *)(r10 - 96) = r7
    2915:	b7 01 00 00 00 02 00 00	r1 = 512
    2916:	7b 1a 78 ff 00 00 00 00	*(u64 *)(r10 - 136) = r1
    2917:	bf a2 00 00 00 00 00 00	r2 = r10
    2918:	07 02 00 00 78 ff ff ff	r2 += -136
    2919:	18 01 00 00 00 00 00 00 00 00 00 00 00 00 00 00	r1 = 0 ll
    2921:	85 00 00 00 01 00 00 00	call 1
    2922:	15 00 5f 00 00 00 00 00	if r0 == 0 goto +95 <LBB4_375>
    2923:	79 01 00 00 00 00 00 00	r1 = *(u64 *)(r0 + 0)
    2924:	07 01 00 00 01 00 00 00	r1 += 1
    2925:	7b 10 00 00 00 00 00 00	*(u64 *)(r0 + 0) = r1
    2926:	79 01 08 00 00 00 00 00	r1 = *(u64 *)(r0 + 8)
    2927:	0f 81 00 00 00 00 00 00	r1 += r8
    2928:	7b 10 08 00 00 00 00 00	*(u64 *)(r0 + 8) = r1
    2929:	05 00 63 00 00 00 00 00	goto +99 <LBB4_376>

0000000000005b90 <LBB4_338>:
    2930:	bf a3 00 00 00 00 00 00	r3 = r10
    2931:	07 03 00 00 70 ff ff ff	r3 += -144
    2932:	bf 61 00 00 00 00 00 00	r1 = r6
    2933:	b7 02 00 00 06 00 00 00	r2 = 6
    2934:	b7 04 00 00 06 00 00 00	r4 = 6
    2935:	b7 05 00 00 00 00 00 00	r5 = 0
    2936:	85 00 00 00 09 00 00 00	call 9
    2937:	18 07 00 00 73 ff ff ff 00 00 00 00 00 00 00 00	r7 = 4294967155 ll
    2939:	67 00 00 00 20 00 00 00	r0 <<= 32
    2940:	c7 00 00 00 20 00 00 00	r0 s>>= 32
    2941:	c5 00 aa 00 00 00 00 00	if r0 s< 0 goto +170 <LBB4_387>
    2942:	bf a3 00 00 00 00 00 00	r3 = r10
    2943:	07 03 00 00 e8 ff ff ff	r3 += -24
    2944:	bf 61 00 00 00 00 00 00	r1 = r6
    2945:	b7 02 00 00 00 00 00 00	r2 = 0
    2946:	b7 04 00 00 06 00 00 00	r4 = 6
    2947:	b7 05 00 00 00 00 00 00	r5 = 0
    2948:	85 00 00 00 09 00 00 00	call 9
    2949:	bf 07 00 00 00 00 00 00	r7 = r0
    2950:	67 07 00 00 20 00 00 00	r7 <<= 32
    2951:	c7 07 00 00 3f 00 00 00	r7 s>>= 63
    2952:	57 07 00 00 73 ff ff ff	r7 &= -141

0000000000005c48 <LBB4_340>:
    2953:	55 07 9e 00 00 00 00 00	if r7 != 0 goto +158 <LBB4_387>
    2954:	61 67 00 00 00 00 00 00	r7 = *(u32 *)(r6 + 0)
    2955:	b7 01 00 00 00 00 00 00	r1 = 0
    2956:	7b 1a a8 ff 00 00 00 00	*(u64 *)(r10 - 88) = r1
    2957:	7b 1a a0 ff 00 00 00 00	*(u64 *)(r10 - 96) = r1
    2958:	b7 01 00 00 00 02 00 00	r1 = 512
    2959:	7b 1a 78 ff 00 00 00 00	*(u64 *)(r10 - 136) = r1
    2960:	bf a2 00 00 00 00 00 00	r2 = r10
    2961:	07 02 00 00 78 ff ff ff	r2 += -136
    2962:	18 01 00 00 00 00 00 00 00 00 00 00 00 00 00 00	r1 = 0 ll
    2964:	85 00 00 00 01 00 00 00	call 1
    2965:	15 00 45 00 00 00 00 00	if r0 == 0 goto +69 <LBB4_377>
    2966:	79 01 00 00 00 00 00 00	r1 = *(u64 *)(r0 + 0)
    2967:	07 01 00 00 01 00 00 00	r1 += 1
    2968:	7b 10 00 00 00 00 00 00	*(u64 *)(r0 + 0) = r1
    2969:	79 01 08 00 00 00 00 00	r1 = *(u64 *)(r0 + 8)
    2970:	0f 71 00 00 00 00 00 00	r1 += r7
    2971:	7b 10 08 00 00 00 00 00	*(u64 *)(r0 + 8) = r1
    2972:	05 00 49 00 00 00 00 00	goto +73 <LBB4_378>

0000000000005ce8 <LBB4_343>:
    2973:	7b 7a a8 ff 00 00 00 00	*(u64 *)(r10 - 88) = r7
    2974:	b7 01 00 00 01 00 00 00	r1 = 1
    2975:	7b 1a a0 ff 00 00 00 00	*(u64 *)(r10 - 96) = r1
    2976:	bf a2 00 00 00 00 00 00	r2 = r10
    2977:	07 02 00 00 e8 ff ff ff	r2 += -24
    2978:	bf a3 00 00 00 00 00 00	r3 = r10
    2979:	07 03 00 00 a0 ff ff ff	r3 += -96
    2980:	18 01 00 00 00 00 00 00 00 00 00 00 00 00 00 00	r1 = 0 ll
    2982:	b7 04 00 00 00 00 00 00	r4 = 0
    2983:	85 00 00 00 02 00 00 00	call 2

0000000000005d40 <LBB4_344>:
    2984:	79 a1 b8 fe 00 00 00 00	r1 = *(u64 *)(r10 - 328)
    2985:	15 01 7a 00 00 00 00 00	if r1 == 0 goto +122 <LBB4_386>
    2986:	61 67 00 00 00 00 00 00	r7 = *(u32 *)(r6 + 0)
    2987:	bf 61 00 00 00 00 00 00	r1 = r6
    2988:	85 00 00 00 22 00 00 00	call 34
    2989:	b7 01 00 00 00 00 00 00	r1 = 0
    2990:	63 1a b8 ff 00 00 00 00	*(u32 *)(r10 - 72) = r1
    2991:	63 0a a4 ff 00 00 00 00	*(u32 *)(r10 - 92) = r0
    2992:	b7 01 00 00 04 04 10 10	r1 = 269485060
    2993:	63 1a a0 ff 00 00 00 00	*(u32 *)(r10 - 96) = r1
    2994:	b7 01 00 00 02 00 00 00	r1 = 2
    2995:	7b 1a b0 ff 00 00 00 00	*(u64 *)(r10 - 80) = r1
    2996:	b7 01 00 00 01 00 00 00	r1 = 1
    2997:	63 1a bc ff 00 00 00 00	*(u32 *)(r10 - 68) = r1
    2998:	63 7a a8 ff 00 00 00 00	*(u32 *)(r10 - 88) = r7
    2999:	79 a2 b8 fe 00 00 00 00	r2 = *(u64 *)(r10 - 328)
    3000:	67 02 00 00 20 00 00 00	r2 <<= 32
    3001:	77 02 00 00 20 00 00 00	r2 >>= 32
    3002:	bf 21 00 00 00 00 00 00	r1 = r2
    3003:	ad 72 01 00 00 00 00 00	if r2 < r7 goto +1 <LBB4_347>
    3004:	bf 71 00 00 00 00 00 00	r1 = r7

0000000000005de8 <LBB4_347>:
    3005:	bf 13 00 00 00 00 00 00	r3 = r1
    3006:	63 3a ac ff 00 00 00 00	*(u32 *)(r10 - 84) = r3
    3007:	67 03 00 00 20 00 00 00	r3 <<= 32
    3008:	18 01 00 00 ff ff ff ff 00 00 00 00 00 00 00 00	r1 = 4294967295 ll
    3010:	4f 13 00 00 00 00 00 00	r3 |= r1
    3011:	bf a4 00 00 00 00 00 00	r4 = r10
    3012:	07 04 00 00 a0 ff ff ff	r4 += -96
    3013:	bf 61 00 00 00 00 00 00	r1 = r6
    3014:	18 02 00 00 00 00 00 00 00 00 00 00 00 00 00 00	r2 = 0 ll
    3016:	b7 05 00 00 20 00 00 00	r5 = 32
    3017:	05 00 59 00 00 00 00 00	goto +89 <LBB4_385>

0000000000005e50 <LBB4_375>:
    3018:	7b 8a a8 ff 00 00 00 00	*(u64 *)(r10 - 88) = r8
    3019:	b7 01 00 00 01 00 00 00	r1 = 1
    3020:	7b 1a a0 ff 00 00 00 00	*(u64 *)(r10 - 96) = r1
    3021:	bf a2 00 00 00 00 00 00	r2 = r10
    3022:	07 02 00 00 78 ff ff ff	r2 += -136
    3023:	bf a3 00 00 00 00 00 00	r3 = r10
    3024:	07 03 00 00 a0 ff ff ff	r3 += -96
    3025:	18 01 00 00 00 00 00 00 00 00 00 00 00 00 00 00	r1 = 0 ll
    3027:	b7 04 00 00 00 00 00 00	r4 = 0
    3028:	85 00 00 00 02 00 00 00	call 2

0000000000005ea8 <LBB4_376>:
    3029:	79 a1 10 ff 00 00 00 00	r1 = *(u64 *)(r10 - 240)
    3030:	69 13 06 00 00 00 00 00	r3 = *(u16 *)(r1 + 6)
    3031:	bf 61 00 00 00 00 00 00	r1 = r6
    3032:	18 02 00 00 00 00 00 00 00 00 00 00 00 00 00 00	r2 = 0 ll
    3034:	05 00 b8 fd 00 00 00 00	goto -584 <LBB4_277>

0000000000005ed8 <LBB4_377>:
    3035:	7b 7a a8 ff 00 00 00 00	*(u64 *)(r10 - 88) = r7
    3036:	b7 01 00 00 01 00 00 00	r1 = 1
    3037:	7b 1a a0 ff 00 00 00 00	*(u64 *)(r10 - 96) = r1
    3038:	bf a2 00 00 00 00 00 00	r2 = r10
    3039:	07 02 00 00 78 ff ff ff	r2 += -136
    3040:	bf a3 00 00 00 00 00 00	r3 = r10
    3041:	07 03 00 00 a0 ff ff ff	r3 += -96
    3042:	18 01 00 00 00 00 00 00 00 00 00 00 00 00 00 00	r1 = 0 ll
    3044:	b7 04 00 00 00 00 00 00	r4 = 0
    3045:	85 00 00 00 02 00 00 00	call 2

0000000000005f30 <LBB4_378>:
    3046:	79 a1 b8 fe 00 00 00 00	r1 = *(u64 *)(r10 - 328)
    3047:	15 01 24 00 00 00 00 00	if r1 == 0 goto +36 <LBB4_382>
    3048:	61 67 00 00 00 00 00 00	r7 = *(u32 *)(r6 + 0)
    3049:	bf 61 00 00 00 00 00 00	r1 = r6
    3050:	85 00 00 00 22 00 00 00	call 34
    3051:	63 0a a4 ff 00 00 00 00	*(u32 *)(r10 - 92) = r0
    3052:	b7 01 00 00 04 02 10 10	r1 = 269484548
    3053:	63 1a a0 ff 00 00 00 00	*(u32 *)(r10 - 96) = r1
    3054:	18 01 00 00 02 00 00 00 00 00 00 00 01 00 00 00	r1 = 4294967298 ll
    3056:	7b 1a b0 ff 00 00 00 00	*(u64 *)(r10 - 80) = r1
    3057:	79 a1 d8 fe 00 00 00 00	r1 = *(u64 *)(r10 - 296)
    3058:	73 1a ba ff 00 00 00 00	*(u8 *)(r10 - 70) = r1
    3059:	b7 01 00 00 00 00 00 00	r1 = 0
    3060:	6b 1a b8 ff 00 00 00 00	*(u16 *)(r10 - 72) = r1
    3061:	73 1a bb ff 00 00 00 00	*(u8 *)(r10 - 69) = r1
    3062:	b7 01 00 00 01 00 00 00	r1 = 1
    3063:	63 1a bc ff 00 00 00 00	*(u32 *)(r10 - 68) = r1
    3064:	63 7a a8 ff 00 00 00 00	*(u32 *)(r10 - 88) = r7
    3065:	79 a2 b8 fe 00 00 00 00	r2 = *(u64 *)(r10 - 328)
    3066:	67 02 00 00 20 00 00 00	r2 <<= 32
    3067:	77 02 00 00 20 00 00 00	r2 >>= 32
    3068:	bf 21 00 00 00 00 00 00	r1 = r2
    3069:	ad 72 01 00 00 00 00 00	if r2 < r7 goto +1 <LBB4_381>
    3070:	bf 71 00 00 00 00 00 00	r1 = r7

0000000000005ff8 <LBB4_381>:
    3071:	bf 13 00 00 00 00 00 00	r3 = r1
    3072:	63 3a ac ff 00 00 00 00	*(u32 *)(r10 - 84) = r3
    3073:	67 03 00 00 20 00 00 00	r3 <<= 32
    3074:	18 01 00 00 ff ff ff ff 00 00 00 00 00 00 00 00	r1 = 4294967295 ll
    3076:	4f 13 00 00 00 00 00 00	r3 |= r1
    3077:	bf a4 00 00 00 00 00 00	r4 = r10
    3078:	07 04 00 00 a0 ff ff ff	r4 += -96
    3079:	bf 61 00 00 00 00 00 00	r1 = r6
    3080:	18 02 00 00 00 00 00 00 00 00 00 00 00 00 00 00	r2 = 0 ll
    3082:	b7 05 00 00 20 00 00 00	r5 = 32
    3083:	85 00 00 00 19 00 00 00	call 25

0000000000006060 <LBB4_382>:
    3084:	61 67 00 00 00 00 00 00	r7 = *(u32 *)(r6 + 0)
    3085:	bf 61 00 00 00 00 00 00	r1 = r6
    3086:	85 00 00 00 22 00 00 00	call 34
    3087:	63 0a a4 ff 00 00 00 00	*(u32 *)(r10 - 92) = r0
    3088:	b7 01 00 00 03 04 10 10	r1 = 269485059
    3089:	63 1a a0 ff 00 00 00 00	*(u32 *)(r10 - 96) = r1
    3090:	63 7a a8 ff 00 00 00 00	*(u32 *)(r10 - 88) = r7
    3091:	a5 07 01 00 80 00 00 00	if r7 < 128 goto +1 <LBB4_384>
    3092:	05 00 a5 fd 00 00 00 00	goto -603 <LBB4_283>

00000000000060a8 <LBB4_384>:
    3093:	63 7a ac ff 00 00 00 00	*(u32 *)(r10 - 84) = r7
    3094:	67 07 00 00 20 00 00 00	r7 <<= 32
    3095:	18 01 00 00 ff ff ff ff 00 00 00 00 00 00 00 00	r1 = 4294967295 ll
    3097:	4f 17 00 00 00 00 00 00	r7 |= r1
    3098:	b7 01 00 00 01 00 00 00	r1 = 1
    3099:	7b 1a b0 ff 00 00 00 00	*(u64 *)(r10 - 80) = r1
    3100:	bf a4 00 00 00 00 00 00	r4 = r10
    3101:	07 04 00 00 a0 ff ff ff	r4 += -96
    3102:	bf 61 00 00 00 00 00 00	r1 = r6
    3103:	18 02 00 00 00 00 00 00 00 00 00 00 00 00 00 00	r2 = 0 ll
    3105:	bf 73 00 00 00 00 00 00	r3 = r7
    3106:	b7 05 00 00 18 00 00 00	r5 = 24

0000000000006118 <LBB4_385>:
    3107:	85 00 00 00 19 00 00 00	call 25

0000000000006120 <LBB4_386>:
    3108:	b7 01 00 00 01 00 00 00	r1 = 1
    3109:	b7 02 00 00 00 00 00 00	r2 = 0
    3110:	85 00 00 00 17 00 00 00	call 23
    3111:	bf 07 00 00 00 00 00 00	r7 = r0

0000000000006140 <LBB4_387>:
    3112:	bf 71 00 00 00 00 00 00	r1 = r7
    3113:	67 01 00 00 20 00 00 00	r1 <<= 32
    3114:	77 01 00 00 20 00 00 00	r1 >>= 32
    3115:	b7 02 00 00 01 00 00 00	r2 = 1
    3116:	15 01 01 00 02 00 00 00	if r1 == 2 goto +1 <LBB4_389>
    3117:	b7 02 00 00 00 00 00 00	r2 = 0

0000000000006170 <LBB4_389>:
    3118:	77 01 00 00 1f 00 00 00	r1 >>= 31
    3119:	4f 21 00 00 00 00 00 00	r1 |= r2
    3120:	15 01 2e 00 00 00 00 00	if r1 == 0 goto +46 <LBB4_394>
    3121:	b7 01 00 00 02 00 00 00	r1 = 2
    3122:	63 16 30 00 00 00 00 00	*(u32 *)(r6 + 48) = r1
    3123:	57 09 00 00 ff ff 00 00	r9 &= 65535
    3124:	47 09 00 00 00 00 02 00	r9 |= 131072
    3125:	63 96 34 00 00 00 00 00	*(u32 *)(r6 + 52) = r9
    3126:	63 76 38 00 00 00 00 00	*(u32 *)(r6 + 56) = r7
    3127:	b7 01 00 00 00 00 00 00	r1 = 0
    3128:	63 16 3c 00 00 00 00 00	*(u32 *)(r6 + 60) = r1
    3129:	63 16 40 00 00 00 00 00	*(u32 *)(r6 + 64) = r1
    3130:	61 68 00 00 00 00 00 00	r8 = *(u32 *)(r6 + 0)
    3131:	7b 1a a8 ff 00 00 00 00	*(u64 *)(r10 - 88) = r1
    3132:	7b 1a a0 ff 00 00 00 00	*(u64 *)(r10 - 96) = r1
    3133:	b7 01 00 00 00 02 00 00	r1 = 512
    3134:	7b 1a 78 ff 00 00 00 00	*(u64 *)(r10 - 136) = r1
    3135:	87 07 00 00 00 00 00 00	r7 = -r7
    3136:	73 7a 78 ff 00 00 00 00	*(u8 *)(r10 - 136) = r7
    3137:	bf a2 00 00 00 00 00 00	r2 = r10
    3138:	07 02 00 00 78 ff ff ff	r2 += -136
    3139:	18 01 00 00 00 00 00 00 00 00 00 00 00 00 00 00	r1 = 0 ll
    3141:	85 00 00 00 01 00 00 00	call 1
    3142:	15 00 07 00 00 00 00 00	if r0 == 0 goto +7 <LBB4_392>
    3143:	79 01 00 00 00 00 00 00	r1 = *(u64 *)(r0 + 0)
    3144:	07 01 00 00 01 00 00 00	r1 += 1
    3145:	7b 10 00 00 00 00 00 00	*(u64 *)(r0 + 0) = r1
    3146:	79 01 08 00 00 00 00 00	r1 = *(u64 *)(r0 + 8)
    3147:	0f 81 00 00 00 00 00 00	r1 += r8
    3148:	7b 10 08 00 00 00 00 00	*(u64 *)(r0 + 8) = r1
    3149:	05 00 0b 00 00 00 00 00	goto +11 <LBB4_393>

0000000000006270 <LBB4_392>:
    3150:	7b 8a a8 ff 00 00 00 00	*(u64 *)(r10 - 88) = r8
    3151:	b7 01 00 00 01 00 00 00	r1 = 1
    3152:	7b 1a a0 ff 00 00 00 00	*(u64 *)(r10 - 96) = r1
    3153:	bf a2 00 00 00 00 00 00	r2 = r10
    3154:	07 02 00 00 78 ff ff ff	r2 += -136
    3155:	bf a3 00 00 00 00 00 00	r3 = r10
    3156:	07 03 00 00 a0 ff ff ff	r3 += -96
    3157:	18 01 00 00 00 00 00 00 00 00 00 00 00 00 00 00	r1 = 0 ll
    3159:	b7 04 00 00 00 00 00 00	r4 = 0
    3160:	85 00 00 00 02 00 00 00	call 2

00000000000062c8 <LBB4_393>:
    3161:	bf 61 00 00 00 00 00 00	r1 = r6
    3162:	18 02 00 00 00 00 00 00 00 00 00 00 00 00 00 00	r2 = 0 ll
    3164:	b7 03 00 00 01 00 00 00	r3 = 1
    3165:	85 00 00 00 0c 00 00 00	call 12
    3166:	b7 07 00 00 02 00 00 00	r7 = 2

00000000000062f8 <LBB4_394>:
    3167:	bf 70 00 00 00 00 00 00	r0 = r7
    3168:	95 00 00 00 00 00 00 00	exit

0000000000006308 <LBB4_404>:
    3169:	79 a7 a0 fe 00 00 00 00	r7 = *(u64 *)(r10 - 352)
    3170:	b7 01 00 00 00 00 00 00	r1 = 0
    3171:	73 1a 7e ff 00 00 00 00	*(u8 *)(r10 - 130) = r1
    3172:	6b 1a 7c ff 00 00 00 00	*(u16 *)(r10 - 132) = r1
    3173:	bf a2 00 00 00 00 00 00	r2 = r10
    3174:	07 02 00 00 78 ff ff ff	r2 += -136
    3175:	18 01 00 00 00 00 00 00 00 00 00 00 00 00 00 00	r1 = 0 ll
    3177:	85 00 00 00 01 00 00 00	call 1
    3178:	15 00 06 00 00 00 00 00	if r0 == 0 goto +6 <LBB4_406>
    3179:	b7 01 00 00 01 00 00 00	r1 = 1
    3180:	db 10 08 00 00 00 00 00	lock *(u64 *)(r0 + 8) += r1
    3181:	61 61 00 00 00 00 00 00	r1 = *(u32 *)(r6 + 0)
    3182:	db 10 10 00 00 00 00 00	lock *(u64 *)(r0 + 16) += r1
    3183:	b7 03 00 00 00 00 00 00	r3 = 0
    3184:	05 00 3a fb 00 00 00 00	goto -1222 <LBB4_233>

0000000000006388 <LBB4_406>:
    3185:	6b 8a 7c ff 00 00 00 00	*(u16 *)(r10 - 132) = r8
    3186:	b7 01 00 00 00 00 00 00	r1 = 0
    3187:	63 1a 78 ff 00 00 00 00	*(u32 *)(r10 - 136) = r1
    3188:	73 7a 7e ff 00 00 00 00	*(u8 *)(r10 - 130) = r7
    3189:	bf a2 00 00 00 00 00 00	r2 = r10
    3190:	07 02 00 00 78 ff ff ff	r2 += -136
    3191:	18 01 00 00 00 00 00 00 00 00 00 00 00 00 00 00	r1 = 0 ll
    3193:	85 00 00 00 01 00 00 00	call 1
    3194:	bf 07 00 00 00 00 00 00	r7 = r0
    3195:	15 07 02 00 00 00 00 00	if r7 == 0 goto +2 <LBB4_408>
    3196:	b7 01 00 00 01 00 00 00	r1 = 1
    3197:	05 00 29 fb 00 00 00 00	goto -1239 <LBB4_232>

00000000000063f0 <LBB4_408>:
    3198:	61 61 38 00 00 00 00 00	r1 = *(u32 *)(r6 + 56)
    3199:	b7 03 00 00 00 00 00 00	r3 = 0
    3200:	15 01 01 00 00 00 00 00	if r1 == 0 goto +1 <LBB4_409>
    3201:	05 00 29 fb 00 00 00 00	goto -1239 <LBB4_233>

0000000000006410 <LBB4_409>:
    3202:	bf 61 00 00 00 00 00 00	r1 = r6
    3203:	85 00 00 00 22 00 00 00	call 34
    3204:	63 0a a4 ff 00 00 00 00	*(u32 *)(r10 - 92) = r0
    3205:	b7 01 00 00 02 05 10 10	r1 = 269485314
    3206:	63 1a a0 ff 00 00 00 00	*(u32 *)(r10 - 96) = r1
    3207:	b7 01 00 00 02 00 00 00	r1 = 2
    3208:	63 1a a8 ff 00 00 00 00	*(u32 *)(r10 - 88) = r1
    3209:	63 9a ac ff 00 00 00 00	*(u32 *)(r10 - 84) = r9
    3210:	b7 01 00 00 00 00 00 00	r1 = 0
    3211:	63 1a b0 ff 00 00 00 00	*(u32 *)(r10 - 80) = r1
    3212:	bf a4 00 00 00 00 00 00	r4 = r10
    3213:	07 04 00 00 a0 ff ff ff	r4 += -96
    3214:	bf 61 00 00 00 00 00 00	r1 = r6
    3215:	18 02 00 00 00 00 00 00 00 00 00 00 00 00 00 00	r2 = 0 ll
    3217:	18 03 00 00 ff ff ff ff 00 00 00 00 00 00 00 00	r3 = 4294967295 ll
    3219:	b7 05 00 00 14 00 00 00	r5 = 20
    3220:	85 00 00 00 19 00 00 00	call 25
    3221:	18 03 00 00 7b ff ff ff 00 00 00 00 00 00 00 00	r3 = 4294967163 ll
    3223:	79 a1 d8 fe 00 00 00 00	r1 = *(u64 *)(r10 - 296)
    3224:	47 01 00 00 01 00 00 00	r1 |= 1
    3225:	15 01 11 fb 03 00 00 00	if r1 == 3 goto -1263 <LBB4_233>
    3226:	18 07 00 00 7b ff ff ff 00 00 00 00 00 00 00 00	r7 = 4294967163 ll
    3228:	79 a1 d8 fe 00 00 00 00	r1 = *(u64 *)(r10 - 296)
    3229:	55 01 8a ff 01 00 00 00	if r1 != 1 goto -118 <LBB4_387>
    3230:	18 01 00 00 00 00 00 00 00 00 00 00 00 00 00 00	r1 = 0 ll
    3232:	71 a2 3c ff 00 00 00 00	r2 = *(u8 *)(r10 - 196)
    3233:	15 02 02 00 06 00 00 00	if r2 == 6 goto +2 <LBB4_413>
    3234:	18 01 00 00 00 00 00 00 00 00 00 00 00 00 00 00	r1 = 0 ll

0000000000006520 <LBB4_413>:
    3236:	bf a2 00 00 00 00 00 00	r2 = r10
    3237:	07 02 00 00 18 ff ff ff	r2 += -232
    3238:	85 00 00 00 03 00 00 00	call 3
    3239:	bf 08 00 00 00 00 00 00	r8 = r0
    3240:	67 08 00 00 20 00 00 00	r8 <<= 32
    3241:	c7 08 00 00 20 00 00 00	r8 s>>= 32
    3242:	65 08 7d ff ff ff ff ff	if r8 s> -1 goto -131 <LBB4_387>
    3243:	bf 61 00 00 00 00 00 00	r1 = r6
    3244:	85 00 00 00 22 00 00 00	call 34
    3245:	63 0a a4 ff 00 00 00 00	*(u32 *)(r10 - 92) = r0
    3246:	b7 01 00 00 02 12 10 10	r1 = 269488642
    3247:	63 1a a0 ff 00 00 00 00	*(u32 *)(r10 - 96) = r1
    3248:	b7 01 00 00 03 00 00 00	r1 = 3
    3249:	63 1a a8 ff 00 00 00 00	*(u32 *)(r10 - 88) = r1
    3250:	63 8a ac ff 00 00 00 00	*(u32 *)(r10 - 84) = r8
    3251:	b7 01 00 00 00 00 00 00	r1 = 0
    3252:	63 1a b0 ff 00 00 00 00	*(u32 *)(r10 - 80) = r1
    3253:	bf a4 00 00 00 00 00 00	r4 = r10
    3254:	07 04 00 00 a0 ff ff ff	r4 += -96
    3255:	bf 61 00 00 00 00 00 00	r1 = r6
    3256:	18 02 00 00 00 00 00 00 00 00 00 00 00 00 00 00	r2 = 0 ll
    3258:	18 03 00 00 ff ff ff ff 00 00 00 00 00 00 00 00	r3 = 4294967295 ll
    3260:	b7 05 00 00 14 00 00 00	r5 = 20
    3261:	05 00 49 01 00 00 00 00	goto +329 <LBB4_403>

00000000000065f0 <LBB4_330>:
    3262:	b7 02 00 00 00 00 00 00	r2 = 0
    3263:	63 2a f8 ff 00 00 00 00	*(u32 *)(r10 - 8) = r2
    3264:	7b 2a f0 ff 00 00 00 00	*(u64 *)(r10 - 16) = r2
    3265:	7b 2a e8 ff 00 00 00 00	*(u64 *)(r10 - 24) = r2
    3266:	61 81 26 00 00 00 00 00	r1 = *(u32 *)(r8 + 38)
    3267:	63 1a e8 ff 00 00 00 00	*(u32 *)(r10 - 24) = r1
    3268:	61 81 2a 00 00 00 00 00	r1 = *(u32 *)(r8 + 42)
    3269:	63 1a ec ff 00 00 00 00	*(u32 *)(r10 - 20) = r1
    3270:	61 81 2e 00 00 00 00 00	r1 = *(u32 *)(r8 + 46)
    3271:	63 2a f4 ff 00 00 00 00	*(u32 *)(r10 - 12) = r2
    3272:	63 1a f0 ff 00 00 00 00	*(u32 *)(r10 - 16) = r1
    3273:	b7 01 00 00 02 00 00 00	r1 = 2
    3274:	73 1a f8 ff 00 00 00 00	*(u8 *)(r10 - 8) = r1
    3275:	bf a2 00 00 00 00 00 00	r2 = r10
    3276:	07 02 00 00 e8 ff ff ff	r2 += -24
    3277:	18 01 00 00 00 00 00 00 00 00 00 00 00 00 00 00	r1 = 0 ll
    3279:	85 00 00 00 01 00 00 00	call 1
    3280:	15 00 7a 00 00 00 00 00	if r0 == 0 goto +122 <LBB4_357>
    3281:	71 01 01 00 00 00 00 00	r1 = *(u8 *)(r0 + 1)
    3282:	67 01 00 00 08 00 00 00	r1 <<= 8
    3283:	71 02 00 00 00 00 00 00	r2 = *(u8 *)(r0 + 0)
    3284:	4f 21 00 00 00 00 00 00	r1 |= r2
    3285:	71 02 02 00 00 00 00 00	r2 = *(u8 *)(r0 + 2)
    3286:	71 07 03 00 00 00 00 00	r7 = *(u8 *)(r0 + 3)
    3287:	67 07 00 00 08 00 00 00	r7 <<= 8
    3288:	4f 27 00 00 00 00 00 00	r7 |= r2
    3289:	67 07 00 00 10 00 00 00	r7 <<= 16
    3290:	4f 17 00 00 00 00 00 00	r7 |= r1
    3291:	b7 01 00 00 00 00 00 00	r1 = 0
    3292:	63 1a 90 ff 00 00 00 00	*(u32 *)(r10 - 112) = r1
    3293:	7b 1a 88 ff 00 00 00 00	*(u64 *)(r10 - 120) = r1
    3294:	7b 1a 80 ff 00 00 00 00	*(u64 *)(r10 - 128) = r1
    3295:	b7 01 00 00 02 00 00 00	r1 = 2
    3296:	63 1a 78 ff 00 00 00 00	*(u32 *)(r10 - 136) = r1
    3297:	dc 07 00 00 20 00 00 00	r7 = be32 r7
    3298:	63 7a 7c ff 00 00 00 00	*(u32 *)(r10 - 132) = r7
    3299:	bf 61 00 00 00 00 00 00	r1 = r6
    3300:	85 00 00 00 22 00 00 00	call 34
    3301:	63 0a a4 ff 00 00 00 00	*(u32 *)(r10 - 92) = r0
    3302:	b7 01 00 00 02 03 10 10	r1 = 269484802
    3303:	63 1a a0 ff 00 00 00 00	*(u32 *)(r10 - 96) = r1
    3304:	63 7a a8 ff 00 00 00 00	*(u32 *)(r10 - 88) = r7
    3305:	b7 01 00 00 02 00 00 00	r1 = 2
    3306:	63 1a ac ff 00 00 00 00	*(u32 *)(r10 - 84) = r1
    3307:	b7 01 00 00 00 00 00 00	r1 = 0
    3308:	63 1a b0 ff 00 00 00 00	*(u32 *)(r10 - 80) = r1
    3309:	bf a4 00 00 00 00 00 00	r4 = r10
    3310:	07 04 00 00 a0 ff ff ff	r4 += -96
    3311:	bf 61 00 00 00 00 00 00	r1 = r6
    3312:	18 02 00 00 00 00 00 00 00 00 00 00 00 00 00 00	r2 = 0 ll
    3314:	18 03 00 00 ff ff ff ff 00 00 00 00 00 00 00 00	r3 = 4294967295 ll
    3316:	b7 05 00 00 14 00 00 00	r5 = 20
    3317:	85 00 00 00 19 00 00 00	call 25
    3318:	bf a2 00 00 00 00 00 00	r2 = r10
    3319:	07 02 00 00 78 ff ff ff	r2 += -136
    3320:	bf 61 00 00 00 00 00 00	r1 = r6
    3321:	b7 03 00 00 1c 00 00 00	r3 = 28
    3322:	b7 04 00 00 00 00 00 00	r4 = 0
    3323:	85 00 00 00 15 00 00 00	call 21
    3324:	67 00 00 00 20 00 00 00	r0 <<= 32
    3325:	c7 00 00 00 20 00 00 00	r0 s>>= 32
    3326:	65 00 03 00 ff ff ff ff	if r0 s> -1 goto +3 <LBB4_348>

00000000000067f8 <LBB4_332>:
    3327:	18 07 00 00 73 ff ff ff 00 00 00 00 00 00 00 00	r7 = 4294967155 ll
    3329:	05 00 26 ff 00 00 00 00	goto -218 <LBB4_387>

0000000000006810 <LBB4_348>:
    3330:	61 67 00 00 00 00 00 00	r7 = *(u32 *)(r6 + 0)
    3331:	b7 01 00 00 00 00 00 00	r1 = 0
    3332:	7b 1a a8 ff 00 00 00 00	*(u64 *)(r10 - 88) = r1
    3333:	7b 1a a0 ff 00 00 00 00	*(u64 *)(r10 - 96) = r1
    3334:	b7 01 00 00 00 02 00 00	r1 = 512
    3335:	7b 1a d8 ff 00 00 00 00	*(u64 *)(r10 - 40) = r1
    3336:	bf a2 00 00 00 00 00 00	r2 = r10
    3337:	07 02 00 00 d8 ff ff ff	r2 += -40
    3338:	18 01 00 00 00 00 00 00 00 00 00 00 00 00 00 00	r1 = 0 ll
    3340:	85 00 00 00 01 00 00 00	call 1
    3341:	15 00 07 00 00 00 00 00	if r0 == 0 goto +7 <LBB4_350>
    3342:	79 01 00 00 00 00 00 00	r1 = *(u64 *)(r0 + 0)
    3343:	07 01 00 00 01 00 00 00	r1 += 1
    3344:	7b 10 00 00 00 00 00 00	*(u64 *)(r0 + 0) = r1
    3345:	79 01 08 00 00 00 00 00	r1 = *(u64 *)(r0 + 8)
    3346:	0f 71 00 00 00 00 00 00	r1 += r7
    3347:	7b 10 08 00 00 00 00 00	*(u64 *)(r0 + 8) = r1
    3348:	05 00 0b 00 00 00 00 00	goto +11 <LBB4_351>

00000000000068a8 <LBB4_350>:
    3349:	7b 7a a8 ff 00 00 00 00	*(u64 *)(r10 - 88) = r7
    3350:	b7 01 00 00 01 00 00 00	r1 = 1
    3351:	7b 1a a0 ff 00 00 00 00	*(u64 *)(r10 - 96) = r1
    3352:	bf a2 00 00 00 00 00 00	r2 = r10
    3353:	07 02 00 00 d8 ff ff ff	r2 += -40
    3354:	bf a3 00 00 00 00 00 00	r3 = r10
    3355:	07 03 00 00 a0 ff ff ff	r3 += -96
    3356:	18 01 00 00 00 00 00 00 00 00 00 00 00 00 00 00	r1 = 0 ll
    3358:	b7 04 00 00 00 00 00 00	r4 = 0
    3359:	85 00 00 00 02 00 00 00	call 2

0000000000006900 <LBB4_351>:
    3360:	79 a1 b8 fe 00 00 00 00	r1 = *(u64 *)(r10 - 328)
    3361:	15 01 1e 00 00 00 00 00	if r1 == 0 goto +30 <LBB4_355>
    3362:	61 67 00 00 00 00 00 00	r7 = *(u32 *)(r6 + 0)
    3363:	bf 61 00 00 00 00 00 00	r1 = r6
    3364:	85 00 00 00 22 00 00 00	call 34
    3365:	b7 01 00 00 00 00 00 00	r1 = 0
    3366:	63 1a b8 ff 00 00 00 00	*(u32 *)(r10 - 72) = r1
    3367:	63 0a a4 ff 00 00 00 00	*(u32 *)(r10 - 92) = r0
    3368:	b7 01 00 00 04 04 10 10	r1 = 269485060
    3369:	63 1a a0 ff 00 00 00 00	*(u32 *)(r10 - 96) = r1
    3370:	b7 01 00 00 02 00 00 00	r1 = 2
    3371:	7b 1a b0 ff 00 00 00 00	*(u64 *)(r10 - 80) = r1
    3372:	b7 01 00 00 01 00 00 00	r1 = 1
    3373:	63 1a bc ff 00 00 00 00	*(u32 *)(r10 - 68) = r1
    3374:	63 7a a8 ff 00 00 00 00	*(u32 *)(r10 - 88) = r7
    3375:	79 a3 b8 fe 00 00 00 00	r3 = *(u64 *)(r10 - 328)
    3376:	67 03 00 00 20 00 00 00	r3 <<= 32
    3377:	77 03 00 00 20 00 00 00	r3 >>= 32
    3378:	ad 73 01 00 00 00 00 00	if r3 < r7 goto +1 <LBB4_354>
    3379:	bf 73 00 00 00 00 00 00	r3 = r7

00000000000069a0 <LBB4_354>:
    3380:	63 3a ac ff 00 00 00 00	*(u32 *)(r10 - 84) = r3
    3381:	67 03 00 00 20 00 00 00	r3 <<= 32
    3382:	18 01 00 00 ff ff ff ff 00 00 00 00 00 00 00 00	r1 = 4294967295 ll
    3384:	4f 13 00 00 00 00 00 00	r3 |= r1
    3385:	bf a4 00 00 00 00 00 00	r4 = r10
    3386:	07 04 00 00 a0 ff ff ff	r4 += -96
    3387:	bf 61 00 00 00 00 00 00	r1 = r6
    3388:	18 02 00 00 00 00 00 00 00 00 00 00 00 00 00 00	r2 = 0 ll
    3390:	b7 05 00 00 20 00 00 00	r5 = 32
    3391:	85 00 00 00 19 00 00 00	call 25

0000000000006a00 <LBB4_355>:
    3392:	b7 01 00 00 01 00 00 00	r1 = 1
    3393:	b7 02 00 00 00 00 00 00	r2 = 0
    3394:	85 00 00 00 17 00 00 00	call 23
    3395:	bf 07 00 00 00 00 00 00	r7 = r0
    3396:	bf 71 00 00 00 00 00 00	r1 = r7
    3397:	67 01 00 00 20 00 00 00	r1 <<= 32
    3398:	77 01 00 00 20 00 00 00	r1 >>= 32
    3399:	18 02 00 00 60 ff ff ff 00 00 00 00 00 00 00 00	r2 = 4294967136 ll
    3401:	1d 21 01 00 00 00 00 00	if r1 == r2 goto +1 <LBB4_357>
    3402:	05 00 dd fe 00 00 00 00	goto -291 <LBB4_387>

0000000000006a58 <LBB4_357>:
    3403:	bf 81 00 00 00 00 00 00	r1 = r8
    3404:	07 01 00 00 26 00 00 00	r1 += 38
    3405:	61 11 00 00 00 00 00 00	r1 = *(u32 *)(r1 + 0)
    3406:	55 01 0b 00 00 00 00 00	if r1 != 0 goto +11 <LBB4_361>
    3407:	61 81 2a 00 00 00 00 00	r1 = *(u32 *)(r8 + 42)
    3408:	55 01 09 00 00 00 00 00	if r1 != 0 goto +9 <LBB4_361>
    3409:	61 81 2e 00 00 00 00 00	r1 = *(u32 *)(r8 + 46)
    3410:	18 02 00 00 00 00 ff ff 00 00 00 00 00 00 00 00	r2 = 4294901760 ll
    3412:	5d 21 05 00 00 00 00 00	if r1 != r2 goto +5 <LBB4_361>
    3413:	bf 61 00 00 00 00 00 00	r1 = r6
    3414:	18 02 00 00 00 00 00 00 00 00 00 00 00 00 00 00	r2 = 0 ll
    3416:	b7 03 00 00 08 00 00 00	r3 = 8
    3417:	05 00 39 fc 00 00 00 00	goto -967 <LBB4_277>

0000000000006ad0 <LBB4_361>:
    3418:	bf 61 00 00 00 00 00 00	r1 = r6
    3419:	85 00 00 00 22 00 00 00	call 34
    3420:	63 0a a4 ff 00 00 00 00	*(u32 *)(r10 - 92) = r0
    3421:	b7 01 00 00 02 14 10 10	r1 = 269489154
    3422:	63 1a a0 ff 00 00 00 00	*(u32 *)(r10 - 96) = r1
    3423:	b7 01 00 00 00 00 00 00	r1 = 0
    3424:	7b 1a a8 ff 00 00 00 00	*(u64 *)(r10 - 88) = r1
    3425:	63 1a b0 ff 00 00 00 00	*(u32 *)(r10 - 80) = r1
    3426:	bf a4 00 00 00 00 00 00	r4 = r10
    3427:	07 04 00 00 a0 ff ff ff	r4 += -96
    3428:	bf 61 00 00 00 00 00 00	r1 = r6
    3429:	18 02 00 00 00 00 00 00 00 00 00 00 00 00 00 00	r2 = 0 ll
    3431:	18 03 00 00 ff ff ff ff 00 00 00 00 00 00 00 00	r3 = 4294967295 ll
    3433:	b7 05 00 00 14 00 00 00	r5 = 20
    3434:	85 00 00 00 19 00 00 00	call 25
    3435:	b7 08 00 00 01 00 00 00	r8 = 1
    3436:	30 00 00 00 15 00 00 00	r0 = *(u8 *)skb[21]
    3437:	bf 01 00 00 00 00 00 00	r1 = r0
    3438:	57 01 00 00 fe 00 00 00	r1 &= 254
    3439:	b7 07 00 00 01 00 00 00	r7 = 1
    3440:	15 01 0d 00 00 00 00 00	if r1 == 0 goto +13 <LBB4_363>
    3441:	07 00 00 00 ff 00 00 00	r0 += 255
    3442:	73 0a a0 ff 00 00 00 00	*(u8 *)(r10 - 96) = r0
    3443:	bf a3 00 00 00 00 00 00	r3 = r10
    3444:	07 03 00 00 a0 ff ff ff	r3 += -96
    3445:	bf 61 00 00 00 00 00 00	r1 = r6
    3446:	b7 02 00 00 15 00 00 00	r2 = 21
    3447:	b7 04 00 00 01 00 00 00	r4 = 1
    3448:	b7 05 00 00 01 00 00 00	r5 = 1
    3449:	85 00 00 00 09 00 00 00	call 9
    3450:	bf 07 00 00 00 00 00 00	r7 = r0
    3451:	67 07 00 00 20 00 00 00	r7 <<= 32
    3452:	c7 07 00 00 3f 00 00 00	r7 s>>= 63
    3453:	57 07 00 00 73 ff ff ff	r7 &= -141

0000000000006bf0 <LBB4_363>:
    3454:	15 07 01 00 02 00 00 00	if r7 == 2 goto +1 <LBB4_365>
    3455:	b7 08 00 00 00 00 00 00	r8 = 0

0000000000006c00 <LBB4_365>:
    3456:	18 01 00 00 00 00 00 80 00 00 00 00 00 00 00 00	r1 = 2147483648 ll
    3458:	bf 72 00 00 00 00 00 00	r2 = r7
    3459:	5f 12 00 00 00 00 00 00	r2 &= r1
    3460:	77 02 00 00 1f 00 00 00	r2 >>= 31
    3461:	4f 82 00 00 00 00 00 00	r2 |= r8
    3462:	55 02 0d 00 00 00 00 00	if r2 != 0 goto +13 <LBB4_369>
    3463:	c5 07 01 00 01 00 00 00	if r7 s< 1 goto +1 <LBB4_368>
    3464:	05 00 02 fc 00 00 00 00	goto -1022 <LBB4_276>

0000000000006c48 <LBB4_368>:
    3465:	bf a3 00 00 00 00 00 00	r3 = r10
    3466:	07 03 00 00 70 ff ff ff	r3 += -144
    3467:	bf 61 00 00 00 00 00 00	r1 = r6
    3468:	b7 02 00 00 00 00 00 00	r2 = 0
    3469:	b7 04 00 00 06 00 00 00	r4 = 6
    3470:	b7 05 00 00 00 00 00 00	r5 = 0
    3471:	85 00 00 00 09 00 00 00	call 9
    3472:	bf 07 00 00 00 00 00 00	r7 = r0
    3473:	67 07 00 00 20 00 00 00	r7 <<= 32
    3474:	c7 07 00 00 3f 00 00 00	r7 s>>= 63
    3475:	57 07 00 00 73 ff ff ff	r7 &= -141

0000000000006ca0 <LBB4_369>:
    3476:	55 07 93 fe 00 00 00 00	if r7 != 0 goto -365 <LBB4_387>
    3477:	bf a3 00 00 00 00 00 00	r3 = r10
    3478:	07 03 00 00 a0 ff ff ff	r3 += -96
    3479:	bf 61 00 00 00 00 00 00	r1 = r6
    3480:	b7 02 00 00 0e 00 00 00	r2 = 14
    3481:	b7 04 00 00 04 00 00 00	r4 = 4
    3482:	85 00 00 00 1a 00 00 00	call 26
    3483:	67 00 00 00 20 00 00 00	r0 <<= 32
    3484:	c7 00 00 00 20 00 00 00	r0 s>>= 32
    3485:	65 00 01 00 ff ff ff ff	if r0 s> -1 goto +1 <LBB4_372>
    3486:	05 00 60 ff 00 00 00 00	goto -160 <LBB4_332>

0000000000006cf8 <LBB4_372>:
    3487:	b7 01 00 00 ff ff 0f 00	r1 = 1048575
    3488:	63 1a a0 ff 00 00 00 00	*(u32 *)(r10 - 96) = r1
    3489:	bf a3 00 00 00 00 00 00	r3 = r10
    3490:	07 03 00 00 a0 ff ff ff	r3 += -96
    3491:	bf 61 00 00 00 00 00 00	r1 = r6
    3492:	b7 02 00 00 0e 00 00 00	r2 = 14
    3493:	b7 04 00 00 04 00 00 00	r4 = 4
    3494:	b7 05 00 00 01 00 00 00	r5 = 1
    3495:	85 00 00 00 09 00 00 00	call 9
    3496:	18 07 00 00 73 ff ff ff 00 00 00 00 00 00 00 00	r7 = 4294967155 ll
    3498:	67 00 00 00 20 00 00 00	r0 <<= 32
    3499:	c7 00 00 00 20 00 00 00	r0 s>>= 32
    3500:	c5 00 7b fe 00 00 00 00	if r0 s< 0 goto -389 <LBB4_387>
    3501:	61 67 00 00 00 00 00 00	r7 = *(u32 *)(r6 + 0)
    3502:	b7 01 00 00 00 00 00 00	r1 = 0
    3503:	7b 1a a8 ff 00 00 00 00	*(u64 *)(r10 - 88) = r1
    3504:	7b 1a a0 ff 00 00 00 00	*(u64 *)(r10 - 96) = r1
    3505:	b7 01 00 00 00 02 00 00	r1 = 512
    3506:	7b 1a 78 ff 00 00 00 00	*(u64 *)(r10 - 136) = r1
    3507:	bf a2 00 00 00 00 00 00	r2 = r10
    3508:	07 02 00 00 78 ff ff ff	r2 += -136
    3509:	18 01 00 00 00 00 00 00 00 00 00 00 00 00 00 00	r1 = 0 ll
    3511:	85 00 00 00 01 00 00 00	call 1
    3512:	15 00 07 00 00 00 00 00	if r0 == 0 goto +7 <LBB4_395>
    3513:	79 01 00 00 00 00 00 00	r1 = *(u64 *)(r0 + 0)
    3514:	07 01 00 00 01 00 00 00	r1 += 1
    3515:	7b 10 00 00 00 00 00 00	*(u64 *)(r0 + 0) = r1
    3516:	79 01 08 00 00 00 00 00	r1 = *(u64 *)(r0 + 8)
    3517:	0f 71 00 00 00 00 00 00	r1 += r7
    3518:	7b 10 08 00 00 00 00 00	*(u64 *)(r0 + 8) = r1
    3519:	05 00 0b 00 00 00 00 00	goto +11 <LBB4_396>

0000000000006e00 <LBB4_395>:
    3520:	7b 7a a8 ff 00 00 00 00	*(u64 *)(r10 - 88) = r7
    3521:	b7 01 00 00 01 00 00 00	r1 = 1
    3522:	7b 1a a0 ff 00 00 00 00	*(u64 *)(r10 - 96) = r1
    3523:	bf a2 00 00 00 00 00 00	r2 = r10
    3524:	07 02 00 00 78 ff ff ff	r2 += -136
    3525:	bf a3 00 00 00 00 00 00	r3 = r10
    3526:	07 03 00 00 a0 ff ff ff	r3 += -96
    3527:	18 01 00 00 00 00 00 00 00 00 00 00 00 00 00 00	r1 = 0 ll
    3529:	b7 04 00 00 00 00 00 00	r4 = 0
    3530:	85 00 00 00 02 00 00 00	call 2

0000000000006e58 <LBB4_396>:
    3531:	79 a1 b8 fe 00 00 00 00	r1 = *(u64 *)(r10 - 328)
    3532:	15 01 23 00 00 00 00 00	if r1 == 0 goto +35 <LBB4_400>
    3533:	61 67 00 00 00 00 00 00	r7 = *(u32 *)(r6 + 0)
    3534:	bf 61 00 00 00 00 00 00	r1 = r6
    3535:	85 00 00 00 22 00 00 00	call 34
    3536:	63 0a a4 ff 00 00 00 00	*(u32 *)(r10 - 92) = r0
    3537:	b7 01 00 00 04 03 10 10	r1 = 269484804
    3538:	63 1a a0 ff 00 00 00 00	*(u32 *)(r10 - 96) = r1
    3539:	b7 01 00 00 02 00 00 00	r1 = 2
    3540:	63 1a b0 ff 00 00 00 00	*(u32 *)(r10 - 80) = r1
    3541:	63 9a b4 ff 00 00 00 00	*(u32 *)(r10 - 76) = r9
    3542:	79 a1 d8 fe 00 00 00 00	r1 = *(u64 *)(r10 - 296)
    3543:	73 1a ba ff 00 00 00 00	*(u8 *)(r10 - 70) = r1
    3544:	b7 01 00 00 00 00 00 00	r1 = 0
    3545:	6b 1a b8 ff 00 00 00 00	*(u16 *)(r10 - 72) = r1
    3546:	73 1a bb ff 00 00 00 00	*(u8 *)(r10 - 69) = r1
    3547:	63 1a bc ff 00 00 00 00	*(u32 *)(r10 - 68) = r1
    3548:	63 7a a8 ff 00 00 00 00	*(u32 *)(r10 - 88) = r7
    3549:	79 a2 b8 fe 00 00 00 00	r2 = *(u64 *)(r10 - 328)
    3550:	67 02 00 00 20 00 00 00	r2 <<= 32
    3551:	77 02 00 00 20 00 00 00	r2 >>= 32
    3552:	bf 21 00 00 00 00 00 00	r1 = r2
    3553:	ad 72 01 00 00 00 00 00	if r2 < r7 goto +1 <LBB4_399>
    3554:	bf 71 00 00 00 00 00 00	r1 = r7

0000000000006f18 <LBB4_399>:
    3555:	bf 13 00 00 00 00 00 00	r3 = r1
    3556:	63 3a ac ff 00 00 00 00	*(u32 *)(r10 - 84) = r3
    3557:	67 03 00 00 20 00 00 00	r3 <<= 32
    3558:	18 01 00 00 ff ff ff ff 00 00 00 00 00 00 00 00	r1 = 4294967295 ll
    3560:	4f 13 00 00 00 00 00 00	r3 |= r1
    3561:	bf a4 00 00 00 00 00 00	r4 = r10
    3562:	07 04 00 00 a0 ff ff ff	r4 += -96
    3563:	bf 61 00 00 00 00 00 00	r1 = r6
    3564:	18 02 00 00 00 00 00 00 00 00 00 00 00 00 00 00	r2 = 0 ll
    3566:	b7 05 00 00 20 00 00 00	r5 = 32
    3567:	85 00 00 00 19 00 00 00	call 25

0000000000006f80 <LBB4_400>:
    3568:	61 68 00 00 00 00 00 00	r8 = *(u32 *)(r6 + 0)
    3569:	bf 61 00 00 00 00 00 00	r1 = r6
    3570:	85 00 00 00 22 00 00 00	call 34
    3571:	63 0a a4 ff 00 00 00 00	*(u32 *)(r10 - 92) = r0
    3572:	b7 01 00 00 03 04 10 10	r1 = 269485059
    3573:	63 1a a0 ff 00 00 00 00	*(u32 *)(r10 - 96) = r1
    3574:	63 8a a8 ff 00 00 00 00	*(u32 *)(r10 - 88) = r8
    3575:	a5 08 01 00 80 00 00 00	if r8 < 128 goto +1 <LBB4_402>
    3576:	b7 08 00 00 80 00 00 00	r8 = 128

0000000000006fc8 <LBB4_402>:
    3577:	63 8a ac ff 00 00 00 00	*(u32 *)(r10 - 84) = r8
    3578:	67 08 00 00 20 00 00 00	r8 <<= 32
    3579:	18 01 00 00 ff ff ff ff 00 00 00 00 00 00 00 00	r1 = 4294967295 ll
    3581:	4f 18 00 00 00 00 00 00	r8 |= r1
    3582:	b7 07 00 00 00 00 00 00	r7 = 0
    3583:	7b 7a b0 ff 00 00 00 00	*(u64 *)(r10 - 80) = r7
    3584:	bf a4 00 00 00 00 00 00	r4 = r10
    3585:	07 04 00 00 a0 ff ff ff	r4 += -96
    3586:	bf 61 00 00 00 00 00 00	r1 = r6
    3587:	18 02 00 00 00 00 00 00 00 00 00 00 00 00 00 00	r2 = 0 ll
    3589:	bf 83 00 00 00 00 00 00	r3 = r8
    3590:	b7 05 00 00 18 00 00 00	r5 = 24

0000000000007038 <LBB4_403>:
    3591:	85 00 00 00 19 00 00 00	call 25
    3592:	05 00 1f fe 00 00 00 00	goto -481 <LBB4_387>

Disassembly of section 2/7:

0000000000000000 <tail_handle_ipv4>:
       0:	bf 19 00 00 00 00 00 00	r9 = r1
       1:	b7 01 00 00 00 00 00 00	r1 = 0
       2:	6b 1a 94 ff 00 00 00 00	*(u16 *)(r10 - 108) = r1
       3:	63 1a 90 ff 00 00 00 00	*(u32 *)(r10 - 112) = r1
       4:	7b 1a 88 ff 00 00 00 00	*(u64 *)(r10 - 120) = r1
       5:	18 02 00 00 de ad be ef 00 00 00 00 c0 de 00 00	r2 = 244920237338078 ll
       7:	7b 2a 80 ff 00 00 00 00	*(u64 *)(r10 - 128) = r2
       8:	7b 1a 78 ff 00 00 00 00	*(u64 *)(r10 - 136) = r1
       9:	7b 1a 70 ff 00 00 00 00	*(u64 *)(r10 - 144) = r1
      10:	7b 1a 68 ff 00 00 00 00	*(u64 *)(r10 - 152) = r1
      11:	7b 1a 60 ff 00 00 00 00	*(u64 *)(r10 - 160) = r1
      12:	61 91 50 00 00 00 00 00	r1 = *(u32 *)(r9 + 80)
      13:	61 98 4c 00 00 00 00 00	r8 = *(u32 *)(r9 + 76)
      14:	bf 82 00 00 00 00 00 00	r2 = r8
      15:	07 02 00 00 22 00 00 00	r2 += 34
      16:	b7 04 00 00 00 00 00 00	r4 = 0
      17:	18 07 00 00 7a ff ff ff 00 00 00 00 00 00 00 00	r7 = 4294967162 ll
      19:	2d 12 05 0e 00 00 00 00	if r2 > r1 goto +3589 <LBB5_377>
      20:	18 07 00 00 7e ff ff ff 00 00 00 00 00 00 00 00	r7 = 4294967166 ll
      22:	71 81 17 00 00 00 00 00	r1 = *(u8 *)(r8 + 23)
      23:	73 1a 94 ff 00 00 00 00	*(u8 *)(r10 - 108) = r1
      24:	61 82 06 00 00 00 00 00	r2 = *(u32 *)(r8 + 6)
      25:	18 03 00 00 aa bb cc dd 00 00 00 00 00 00 00 00	r3 = 3721182122 ll
      27:	b7 04 00 00 00 00 00 00	r4 = 0
      28:	5d 32 fc 0d 00 00 00 00	if r2 != r3 goto +3580 <LBB5_377>
      29:	69 82 0a 00 00 00 00 00	r2 = *(u16 *)(r8 + 10)
      30:	b7 04 00 00 00 00 00 00	r4 = 0
      31:	55 02 f9 0d ee ff 00 00	if r2 != 65518 goto +3577 <LBB5_377>
      32:	18 07 00 00 7d ff ff ff 00 00 00 00 00 00 00 00	r7 = 4294967165 ll
      34:	61 82 00 00 00 00 00 00	r2 = *(u32 *)(r8 + 0)
      35:	18 03 00 00 de ad be ef 00 00 00 00 00 00 00 00	r3 = 4022250974 ll
      37:	b7 04 00 00 00 00 00 00	r4 = 0
      38:	5d 32 f2 0d 00 00 00 00	if r2 != r3 goto +3570 <LBB5_377>
      39:	69 82 04 00 00 00 00 00	r2 = *(u16 *)(r8 + 4)
      40:	b7 04 00 00 00 00 00 00	r4 = 0
      41:	55 02 ef 0d c0 de 00 00	if r2 != 57024 goto +3567 <LBB5_377>
      42:	18 07 00 00 7c ff ff ff 00 00 00 00 00 00 00 00	r7 = 4294967164 ll
      44:	61 82 1a 00 00 00 00 00	r2 = *(u32 *)(r8 + 26)
      45:	b7 04 00 00 00 00 00 00	r4 = 0
      46:	55 02 ea 0d 40 30 20 10	if r2 != 270544960 goto +3562 <LBB5_377>
      47:	61 82 1e 00 00 00 00 00	r2 = *(u32 *)(r8 + 30)
      48:	b7 03 00 00 40 30 20 10	r3 = 270544960
      49:	63 3a 8c ff 00 00 00 00	*(u32 *)(r10 - 116) = r3
      50:	63 2a 88 ff 00 00 00 00	*(u32 *)(r10 - 120) = r2
      51:	71 86 0e 00 00 00 00 00	r6 = *(u8 *)(r8 + 14)
      52:	63 2a 78 ff 00 00 00 00	*(u32 *)(r10 - 136) = r2
      53:	18 07 00 00 72 ff ff ff 00 00 00 00 00 00 00 00	r7 = 4294967154 ll
      55:	b7 02 00 00 00 00 00 00	r2 = 0
      56:	7b 2a 30 ff 00 00 00 00	*(u64 *)(r10 - 208) = r2
      57:	67 06 00 00 02 00 00 00	r6 <<= 2
      58:	57 06 00 00 3c 00 00 00	r6 &= 60
      59:	07 06 00 00 0e 00 00 00	r6 += 14
      60:	7b 9a 40 ff 00 00 00 00	*(u64 *)(r10 - 192) = r9
      61:	65 01 06 00 10 00 00 00	if r1 s> 16 goto +6 <LBB5_9>
      62:	b7 09 00 00 00 00 00 00	r9 = 0
      63:	15 01 1c 00 01 00 00 00	if r1 == 1 goto +28 <LBB5_15>
      64:	b7 09 00 00 10 00 00 00	r9 = 16
      65:	b7 02 00 00 00 00 00 00	r2 = 0
      66:	15 01 07 00 06 00 00 00	if r1 == 6 goto +7 <LBB5_12>
      67:	05 00 1a 00 00 00 00 00	goto +26 <LBB5_16>

0000000000000220 <LBB5_9>:
      68:	15 01 94 00 3a 00 00 00	if r1 == 58 goto +148 <LBB5_38>
      69:	b7 02 00 00 00 00 00 00	r2 = 0
      70:	55 01 17 00 11 00 00 00	if r1 != 17 goto +23 <LBB5_16>
      71:	b7 09 00 00 06 00 00 00	r9 = 6
      72:	b7 01 00 00 20 00 00 00	r1 = 32
      73:	7b 1a 30 ff 00 00 00 00	*(u64 *)(r10 - 208) = r1

0000000000000250 <LBB5_12>:
      74:	bf 62 00 00 00 00 00 00	r2 = r6
      75:	07 02 00 00 02 00 00 00	r2 += 2
      76:	bf a3 00 00 00 00 00 00	r3 = r10
      77:	07 03 00 00 7c ff ff ff	r3 += -132
      78:	79 a1 40 ff 00 00 00 00	r1 = *(u64 *)(r10 - 192)
      79:	b7 04 00 00 02 00 00 00	r4 = 2
      80:	85 00 00 00 1a 00 00 00	call 26
      81:	bf 07 00 00 00 00 00 00	r7 = r0
      82:	bf 71 00 00 00 00 00 00	r1 = r7
      83:	67 01 00 00 20 00 00 00	r1 <<= 32
      84:	77 01 00 00 20 00 00 00	r1 >>= 32
      85:	b7 02 00 00 01 00 00 00	r2 = 1
      86:	15 01 01 00 02 00 00 00	if r1 == 2 goto +1 <LBB5_14>
      87:	b7 02 00 00 00 00 00 00	r2 = 0

00000000000002c0 <LBB5_14>:
      88:	77 01 00 00 1f 00 00 00	r1 >>= 31
      89:	4f 21 00 00 00 00 00 00	r1 |= r2
      90:	bf 92 00 00 00 00 00 00	r2 = r9
      91:	55 01 02 00 00 00 00 00	if r1 != 0 goto +2 <LBB5_16>

00000000000002e0 <LBB5_15>:
      92:	b7 07 00 00 00 00 00 00	r7 = 0
      93:	bf 92 00 00 00 00 00 00	r2 = r9

00000000000002f0 <LBB5_16>:
      94:	7b 2a 08 ff 00 00 00 00	*(u64 *)(r10 - 248) = r2
      95:	bf 71 00 00 00 00 00 00	r1 = r7
      96:	67 01 00 00 20 00 00 00	r1 <<= 32
      97:	77 01 00 00 20 00 00 00	r1 >>= 32
      98:	b7 02 00 00 01 00 00 00	r2 = 1
      99:	15 01 01 00 02 00 00 00	if r1 == 2 goto +1 <LBB5_18>
     100:	b7 02 00 00 00 00 00 00	r2 = 0

0000000000000328 <LBB5_18>:
     101:	77 01 00 00 1f 00 00 00	r1 >>= 31
     102:	4f 21 00 00 00 00 00 00	r1 |= r2
     103:	79 a9 40 ff 00 00 00 00	r9 = *(u64 *)(r10 - 192)
     104:	15 01 11 00 00 00 00 00	if r1 == 0 goto +17 <LBB5_20>
     105:	b7 01 00 00 00 00 00 00	r1 = 0
     106:	7b 1a 28 ff 00 00 00 00	*(u64 *)(r10 - 216) = r1
     107:	bf 71 00 00 00 00 00 00	r1 = r7
     108:	67 01 00 00 20 00 00 00	r1 <<= 32
     109:	77 01 00 00 20 00 00 00	r1 >>= 32
     110:	18 02 00 00 72 ff ff ff 00 00 00 00 00 00 00 00	r2 = 4294967154 ll
     112:	b7 03 00 00 00 00 00 00	r3 = 0
     113:	7b 3a f8 fe 00 00 00 00	*(u64 *)(r10 - 264) = r3
     114:	b7 03 00 00 00 00 00 00	r3 = 0
     115:	7b 3a 10 ff 00 00 00 00	*(u64 *)(r10 - 240) = r3
     116:	b7 03 00 00 00 00 00 00	r3 = 0
     117:	7b 3a e8 fe 00 00 00 00	*(u64 *)(r10 - 280) = r3
     118:	b7 08 00 00 00 00 00 00	r8 = 0
     119:	b7 04 00 00 00 00 00 00	r4 = 0
     120:	1d 21 86 01 00 00 00 00	if r1 == r2 goto +390 <LBB5_72>
     121:	05 00 9f 0d 00 00 00 00	goto +3487 <LBB5_377>

00000000000003d0 <LBB5_20>:
     122:	69 a1 7c ff 00 00 00 00	r1 = *(u16 *)(r10 - 132)
     123:	15 01 0d 00 00 00 00 00	if r1 == 0 goto +13 <LBB5_24>
     124:	bf a2 00 00 00 00 00 00	r2 = r10
     125:	07 02 00 00 78 ff ff ff	r2 += -136
     126:	18 01 00 00 00 00 00 00 00 00 00 00 00 00 00 00	r1 = 0 ll
     128:	85 00 00 00 01 00 00 00	call 1
     129:	15 00 05 00 00 00 00 00	if r0 == 0 goto +5 <LBB5_23>
     130:	71 01 06 00 00 00 00 00	r1 = *(u8 *)(r0 + 6)
     131:	71 02 07 00 00 00 00 00	r2 = *(u8 *)(r0 + 7)
     132:	67 02 00 00 08 00 00 00	r2 <<= 8
     133:	4f 12 00 00 00 00 00 00	r2 |= r1
     134:	55 02 28 00 00 00 00 00	if r2 != 0 goto +40 <LBB5_27>

0000000000000438 <LBB5_23>:
     135:	b7 01 00 00 00 00 00 00	r1 = 0
     136:	6b 1a 7c ff 00 00 00 00	*(u16 *)(r10 - 132) = r1

0000000000000448 <LBB5_24>:
     137:	bf a2 00 00 00 00 00 00	r2 = r10
     138:	07 02 00 00 78 ff ff ff	r2 += -136
     139:	18 01 00 00 00 00 00 00 00 00 00 00 00 00 00 00	r1 = 0 ll
     141:	85 00 00 00 01 00 00 00	call 1
     142:	15 00 05 00 00 00 00 00	if r0 == 0 goto +5 <LBB5_26>
     143:	71 01 06 00 00 00 00 00	r1 = *(u8 *)(r0 + 6)
     144:	71 02 07 00 00 00 00 00	r2 = *(u8 *)(r0 + 7)
     145:	67 02 00 00 08 00 00 00	r2 <<= 8
     146:	4f 12 00 00 00 00 00 00	r2 |= r1
     147:	55 02 1b 00 00 00 00 00	if r2 != 0 goto +27 <LBB5_27>

00000000000004a0 <LBB5_26>:
     148:	bf 91 00 00 00 00 00 00	r1 = r9
     149:	85 00 00 00 22 00 00 00	call 34
     150:	63 0a 9c ff 00 00 00 00	*(u32 *)(r10 - 100) = r0
     151:	b7 01 00 00 02 1d 10 10	r1 = 269491458
     152:	63 1a 98 ff 00 00 00 00	*(u32 *)(r10 - 104) = r1
     153:	b7 02 00 00 00 00 00 00	r2 = 0
     154:	7b 2a a0 ff 00 00 00 00	*(u64 *)(r10 - 96) = r2
     155:	b7 01 00 00 00 00 00 00	r1 = 0
     156:	7b 1a 28 ff 00 00 00 00	*(u64 *)(r10 - 216) = r1
     157:	63 2a a8 ff 00 00 00 00	*(u32 *)(r10 - 88) = r2
     158:	bf a4 00 00 00 00 00 00	r4 = r10
     159:	07 04 00 00 98 ff ff ff	r4 += -104
     160:	bf 91 00 00 00 00 00 00	r1 = r9
     161:	18 02 00 00 00 00 00 00 00 00 00 00 00 00 00 00	r2 = 0 ll
     163:	18 03 00 00 ff ff ff ff 00 00 00 00 00 00 00 00	r3 = 4294967295 ll
     165:	b7 05 00 00 14 00 00 00	r5 = 20
     166:	85 00 00 00 19 00 00 00	call 25
     167:	b7 01 00 00 00 00 00 00	r1 = 0
     168:	7b 1a f8 fe 00 00 00 00	*(u64 *)(r10 - 264) = r1
     169:	b7 01 00 00 00 00 00 00	r1 = 0
     170:	7b 1a 10 ff 00 00 00 00	*(u64 *)(r10 - 240) = r1
     171:	b7 01 00 00 00 00 00 00	r1 = 0
     172:	7b 1a e8 fe 00 00 00 00	*(u64 *)(r10 - 280) = r1
     173:	b7 08 00 00 00 00 00 00	r8 = 0
     174:	05 00 50 01 00 00 00 00	goto +336 <LBB5_72>

0000000000000578 <LBB5_27>:
     175:	61 81 1a 00 00 00 00 00	r1 = *(u32 *)(r8 + 26)
     176:	71 a3 94 ff 00 00 00 00	r3 = *(u8 *)(r10 - 108)
     177:	63 1a 48 ff 00 00 00 00	*(u32 *)(r10 - 184) = r1
     178:	18 08 00 00 00 00 00 00 00 00 00 00 00 00 00 00	r8 = 0 ll
     180:	15 03 02 00 06 00 00 00	if r3 == 6 goto +2 <LBB5_29>
     181:	18 08 00 00 00 00 00 00 00 00 00 00 00 00 00 00	r8 = 0 ll

00000000000005b8 <LBB5_29>:
     183:	b7 01 00 00 00 00 00 00	r1 = 0
     184:	63 1a f8 ff 00 00 00 00	*(u32 *)(r10 - 8) = r1
     185:	71 a7 95 ff 00 00 00 00	r7 = *(u8 *)(r10 - 107)
     186:	b7 02 00 00 04 00 00 00	r2 = 4
     187:	73 2a 95 ff 00 00 00 00	*(u8 *)(r10 - 107) = r2
     188:	6b 1a d8 ff 00 00 00 00	*(u16 *)(r10 - 40) = r1
     189:	7b 7a 38 ff 00 00 00 00	*(u64 *)(r10 - 200) = r7
     190:	15 03 4b 00 11 00 00 00	if r3 == 17 goto +75 <LBB5_46>
     191:	15 03 1b 00 06 00 00 00	if r3 == 6 goto +27 <LBB5_39>
     192:	55 03 34 00 01 00 00 00	if r3 != 1 goto +52 <LBB5_41>
     193:	7b 3a 10 ff 00 00 00 00	*(u64 *)(r10 - 240) = r3
     194:	7b 0a f8 fe 00 00 00 00	*(u64 *)(r10 - 264) = r0
     195:	bf a3 00 00 00 00 00 00	r3 = r10
     196:	07 03 00 00 98 ff ff ff	r3 += -104
     197:	b7 01 00 00 01 00 00 00	r1 = 1
     198:	7b 1a 28 ff 00 00 00 00	*(u64 *)(r10 - 216) = r1
     199:	bf 91 00 00 00 00 00 00	r1 = r9
     200:	bf 62 00 00 00 00 00 00	r2 = r6
     201:	b7 04 00 00 01 00 00 00	r4 = 1
     202:	85 00 00 00 1a 00 00 00	call 26
     203:	67 00 00 00 20 00 00 00	r0 <<= 32
     204:	c7 00 00 00 20 00 00 00	r0 s>>= 32
     205:	c5 00 19 01 00 00 00 00	if r0 s< 0 goto +281 <LBB5_67>
     206:	b7 01 00 00 00 00 00 00	r1 = 0
     207:	63 1a 90 ff 00 00 00 00	*(u32 *)(r10 - 112) = r1
     208:	71 a1 98 ff 00 00 00 00	r1 = *(u8 *)(r10 - 104)
     209:	65 01 2d 00 0a 00 00 00	if r1 s> 10 goto +45 <LBB5_42>
     210:	15 01 32 00 00 00 00 00	if r1 == 0 goto +50 <LBB5_44>
     211:	15 01 2d 00 03 00 00 00	if r1 == 3 goto +45 <LBB5_43>
     212:	15 01 01 00 08 00 00 00	if r1 == 8 goto +1 <LBB5_37>
     213:	05 00 41 00 00 00 00 00	goto +65 <LBB5_47>

00000000000006b0 <LBB5_37>:
     214:	b7 01 00 00 08 00 00 00	r1 = 8
     215:	6b 1a 92 ff 00 00 00 00	*(u16 *)(r10 - 110) = r1
     216:	05 00 3e 00 00 00 00 00	goto +62 <LBB5_47>

00000000000006c8 <LBB5_38>:
     217:	b7 09 00 00 02 00 00 00	r9 = 2
     218:	05 00 81 ff 00 00 00 00	goto -127 <LBB5_15>

00000000000006d8 <LBB5_39>:
     219:	7b 3a 10 ff 00 00 00 00	*(u64 *)(r10 - 240) = r3
     220:	7b 0a f8 fe 00 00 00 00	*(u64 *)(r10 - 264) = r0
     221:	bf 62 00 00 00 00 00 00	r2 = r6
     222:	07 02 00 00 0c 00 00 00	r2 += 12
     223:	bf a3 00 00 00 00 00 00	r3 = r10
     224:	07 03 00 00 d8 ff ff ff	r3 += -40
     225:	bf 91 00 00 00 00 00 00	r1 = r9
     226:	b7 04 00 00 02 00 00 00	r4 = 2
     227:	85 00 00 00 1a 00 00 00	call 26
     228:	67 00 00 00 20 00 00 00	r0 <<= 32
