
./ebpf-samples/all/lb.o:	file format elf64-bpf

Disassembly of section loadbalancer:

0000000000000000 <lb>:
       0:	bf 16 00 00 00 00 00 00	r6 = r1
       1:	18 01 00 00 0e 00 e0 ff 00 00 00 00 00 00 00 00	r1 = 4292870158 ll
       3:	63 16 30 00 00 00 00 00	*(u32 *)(r6 + 48) = r1
       4:	61 60 10 00 00 00 00 00	r0 = *(u32 *)(r6 + 16)
       5:	15 00 0a 00 86 dd 00 00	if r0 == 56710 goto +10 <LBB0_3>
       6:	55 00 33 00 08 00 00 00	if r0 != 8 goto +51 <LBB0_4>
       7:	18 01 00 00 1a 00 e0 ff 00 00 00 00 00 00 00 00	r1 = 4292870170 ll
       9:	40 10 00 00 00 00 00 00	r0 = *(u32 *)skb[r1]
      10:	bf 07 00 00 00 00 00 00	r7 = r0
      11:	18 01 00 00 1e 00 e0 ff 00 00 00 00 00 00 00 00	r1 = 4292870174 ll
      13:	40 10 00 00 00 00 00 00	r0 = *(u32 *)skb[r1]
      14:	0f 70 00 00 00 00 00 00	r0 += r7
      15:	05 00 2a 00 00 00 00 00	goto +42 <LBB0_4>

0000000000000080 <LBB0_3>:
      16:	18 01 00 00 32 00 e0 ff 00 00 00 00 00 00 00 00	r1 = 4292870194 ll
      18:	40 10 00 00 00 00 00 00	r0 = *(u32 *)skb[r1]
      19:	7b 0a f8 ff 00 00 00 00	*(u64 *)(r10 - 8) = r0
      20:	18 01 00 00 22 00 e0 ff 00 00 00 00 00 00 00 00	r1 = 4292870178 ll
      22:	40 10 00 00 00 00 00 00	r0 = *(u32 *)skb[r1]
      23:	7b 0a f0 ff 00 00 00 00	*(u64 *)(r10 - 16) = r0
      24:	18 01 00 00 2e 00 e0 ff 00 00 00 00 00 00 00 00	r1 = 4292870190 ll
      26:	40 10 00 00 00 00 00 00	r0 = *(u32 *)skb[r1]
      27:	7b 0a e8 ff 00 00 00 00	*(u64 *)(r10 - 24) = r0
      28:	18 01 00 00 1e 00 e0 ff 00 00 00 00 00 00 00 00	r1 = 4292870174 ll
      30:	40 10 00 00 00 00 00 00	r0 = *(u32 *)skb[r1]
      31:	7b 0a e0 ff 00 00 00 00	*(u64 *)(r10 - 32) = r0
      32:	18 01 00 00 2a 00 e0 ff 00 00 00 00 00 00 00 00	r1 = 4292870186 ll
      34:	40 10 00 00 00 00 00 00	r0 = *(u32 *)skb[r1]
      35:	bf 08 00 00 00 00 00 00	r8 = r0
      36:	18 01 00 00 1a 00 e0 ff 00 00 00 00 00 00 00 00	r1 = 4292870170 ll
      38:	40 10 00 00 00 00 00 00	r0 = *(u32 *)skb[r1]
      39:	bf 09 00 00 00 00 00 00	r9 = r0
      40:	18 01 00 00 16 00 e0 ff 00 00 00 00 00 00 00 00	r1 = 4292870166 ll
      42:	40 10 00 00 00 00 00 00	r0 = *(u32 *)skb[r1]
      43:	bf 07 00 00 00 00 00 00	r7 = r0
      44:	18 01 00 00 26 00 e0 ff 00 00 00 00 00 00 00 00	r1 = 4292870182 ll
      46:	40 10 00 00 00 00 00 00	r0 = *(u32 *)skb[r1]
      47:	0f 70 00 00 00 00 00 00	r0 += r7
      48:	0f 90 00 00 00 00 00 00	r0 += r9
      49:	0f 80 00 00 00 00 00 00	r0 += r8
      50:	79 a1 e0 ff 00 00 00 00	r1 = *(u64 *)(r10 - 32)
      51:	0f 10 00 00 00 00 00 00	r0 += r1
      52:	79 a1 e8 ff 00 00 00 00	r1 = *(u64 *)(r10 - 24)
      53:	0f 10 00 00 00 00 00 00	r0 += r1
      54:	79 a1 f0 ff 00 00 00 00	r1 = *(u64 *)(r10 - 16)
      55:	0f 10 00 00 00 00 00 00	r0 += r1
      56:	79 a1 f8 ff 00 00 00 00	r1 = *(u64 *)(r10 - 8)
      57:	0f 10 00 00 00 00 00 00	r0 += r1

00000000000001d0 <LBB0_4>:
      58:	95 00 00 00 00 00 00 00	exit
