
./ebpf-samples/all/map_perf_test_kern.o:	file format elf64-bpf

Disassembly of section kprobe/sys_getuid:

0000000000000000 <stress_hmap>:
       0:	85 00 00 00 0e 00 00 00	call 14
       1:	63 0a fc ff 00 00 00 00	*(u32 *)(r10 - 4) = r0
       2:	b7 01 00 00 01 00 00 00	r1 = 1
       3:	7b 1a f0 ff 00 00 00 00	*(u64 *)(r10 - 16) = r1
       4:	bf a6 00 00 00 00 00 00	r6 = r10
       5:	07 06 00 00 fc ff ff ff	r6 += -4
       6:	bf a3 00 00 00 00 00 00	r3 = r10
       7:	07 03 00 00 f0 ff ff ff	r3 += -16
       8:	18 01 00 00 00 00 00 00 00 00 00 00 00 00 00 00	r1 = 0 ll
      10:	bf 62 00 00 00 00 00 00	r2 = r6
      11:	b7 04 00 00 00 00 00 00	r4 = 0
      12:	85 00 00 00 02 00 00 00	call 2
      13:	18 01 00 00 00 00 00 00 00 00 00 00 00 00 00 00	r1 = 0 ll
      15:	bf 62 00 00 00 00 00 00	r2 = r6
      16:	85 00 00 00 01 00 00 00	call 1
      17:	15 00 05 00 00 00 00 00	if r0 == 0 goto +5 <LBB0_2>
      18:	bf a2 00 00 00 00 00 00	r2 = r10
      19:	07 02 00 00 fc ff ff ff	r2 += -4
      20:	18 01 00 00 00 00 00 00 00 00 00 00 00 00 00 00	r1 = 0 ll
      22:	85 00 00 00 03 00 00 00	call 3

00000000000000b8 <LBB0_2>:
      23:	b7 00 00 00 00 00 00 00	r0 = 0
      24:	95 00 00 00 00 00 00 00	exit

Disassembly of section kprobe/sys_geteuid:

0000000000000000 <stress_percpu_hmap>:
       0:	85 00 00 00 0e 00 00 00	call 14
       1:	63 0a fc ff 00 00 00 00	*(u32 *)(r10 - 4) = r0
       2:	b7 01 00 00 01 00 00 00	r1 = 1
       3:	7b 1a f0 ff 00 00 00 00	*(u64 *)(r10 - 16) = r1
       4:	bf a6 00 00 00 00 00 00	r6 = r10
       5:	07 06 00 00 fc ff ff ff	r6 += -4
       6:	bf a3 00 00 00 00 00 00	r3 = r10
       7:	07 03 00 00 f0 ff ff ff	r3 += -16
       8:	18 01 00 00 00 00 00 00 00 00 00 00 00 00 00 00	r1 = 0 ll
      10:	bf 62 00 00 00 00 00 00	r2 = r6
      11:	b7 04 00 00 00 00 00 00	r4 = 0
      12:	85 00 00 00 02 00 00 00	call 2
      13:	18 01 00 00 00 00 00 00 00 00 00 00 00 00 00 00	r1 = 0 ll
      15:	bf 62 00 00 00 00 00 00	r2 = r6
      16:	85 00 00 00 01 00 00 00	call 1
      17:	15 00 05 00 00 00 00 00	if r0 == 0 goto +5 <LBB1_2>
      18:	bf a2 00 00 00 00 00 00	r2 = r10
      19:	07 02 00 00 fc ff ff ff	r2 += -4
      20:	18 01 00 00 00 00 00 00 00 00 00 00 00 00 00 00	r1 = 0 ll
      22:	85 00 00 00 03 00 00 00	call 3

00000000000000b8 <LBB1_2>:
      23:	b7 00 00 00 00 00 00 00	r0 = 0
      24:	95 00 00 00 00 00 00 00	exit

Disassembly of section kprobe/sys_getgid:

0000000000000000 <stress_hmap_alloc>:
       0:	85 00 00 00 0e 00 00 00	call 14
       1:	63 0a fc ff 00 00 00 00	*(u32 *)(r10 - 4) = r0
       2:	b7 01 00 00 01 00 00 00	r1 = 1
       3:	7b 1a f0 ff 00 00 00 00	*(u64 *)(r10 - 16) = r1
       4:	bf a6 00 00 00 00 00 00	r6 = r10
       5:	07 06 00 00 fc ff ff ff	r6 += -4
       6:	bf a3 00 00 00 00 00 00	r3 = r10
       7:	07 03 00 00 f0 ff ff ff	r3 += -16
       8:	18 01 00 00 00 00 00 00 00 00 00 00 00 00 00 00	r1 = 0 ll
      10:	bf 62 00 00 00 00 00 00	r2 = r6
      11:	b7 04 00 00 00 00 00 00	r4 = 0
      12:	85 00 00 00 02 00 00 00	call 2
      13:	18 01 00 00 00 00 00 00 00 00 00 00 00 00 00 00	r1 = 0 ll
      15:	bf 62 00 00 00 00 00 00	r2 = r6
      16:	85 00 00 00 01 00 00 00	call 1
      17:	15 00 05 00 00 00 00 00	if r0 == 0 goto +5 <LBB2_2>
      18:	bf a2 00 00 00 00 00 00	r2 = r10
      19:	07 02 00 00 fc ff ff ff	r2 += -4
      20:	18 01 00 00 00 00 00 00 00 00 00 00 00 00 00 00	r1 = 0 ll
      22:	85 00 00 00 03 00 00 00	call 3

00000000000000b8 <LBB2_2>:
      23:	b7 00 00 00 00 00 00 00	r0 = 0
      24:	95 00 00 00 00 00 00 00	exit

Disassembly of section kprobe/sys_getegid:

0000000000000000 <stress_percpu_hmap_alloc>:
       0:	85 00 00 00 0e 00 00 00	call 14
       1:	63 0a fc ff 00 00 00 00	*(u32 *)(r10 - 4) = r0
       2:	b7 01 00 00 01 00 00 00	r1 = 1
       3:	7b 1a f0 ff 00 00 00 00	*(u64 *)(r10 - 16) = r1
       4:	bf a6 00 00 00 00 00 00	r6 = r10
       5:	07 06 00 00 fc ff ff ff	r6 += -4
       6:	bf a3 00 00 00 00 00 00	r3 = r10
       7:	07 03 00 00 f0 ff ff ff	r3 += -16
       8:	18 01 00 00 00 00 00 00 00 00 00 00 00 00 00 00	r1 = 0 ll
      10:	bf 62 00 00 00 00 00 00	r2 = r6
      11:	b7 04 00 00 00 00 00 00	r4 = 0
      12:	85 00 00 00 02 00 00 00	call 2
      13:	18 01 00 00 00 00 00 00 00 00 00 00 00 00 00 00	r1 = 0 ll
      15:	bf 62 00 00 00 00 00 00	r2 = r6
      16:	85 00 00 00 01 00 00 00	call 1
      17:	15 00 05 00 00 00 00 00	if r0 == 0 goto +5 <LBB3_2>
      18:	bf a2 00 00 00 00 00 00	r2 = r10
      19:	07 02 00 00 fc ff ff ff	r2 += -4
      20:	18 01 00 00 00 00 00 00 00 00 00 00 00 00 00 00	r1 = 0 ll
      22:	85 00 00 00 03 00 00 00	call 3

00000000000000b8 <LBB3_2>:
      23:	b7 00 00 00 00 00 00 00	r0 = 0
      24:	95 00 00 00 00 00 00 00	exit

Disassembly of section kprobe/sys_connect:

0000000000000000 <stress_lru_hmap_alloc>:
       0:	18 02 00 00 20 72 65 74 00 00 00 00 3a 25 64 6e	r2 = 7954523774834274848 ll
       2:	7b 2a f0 ff 00 00 00 00	*(u64 *)(r10 - 16) = r2
       3:	18 02 00 00 70 5f 61 6c 00 00 00 00 6c 6f 63 2e	r2 = 3342637859904511856 ll
       5:	7b 2a e8 ff 00 00 00 00	*(u64 *)(r10 - 24) = r2
       6:	18 02 00 00 5f 6c 72 75 00 00 00 00 5f 68 6d 61	r2 = 7020382153342086239 ll
       8:	7b 2a e0 ff 00 00 00 00	*(u64 *)(r10 - 32) = r2
       9:	18 02 00 00 74 20 73 74 00 00 00 00 72 65 73 73	r2 = 8319104478937817204 ll
      11:	7b 2a d8 ff 00 00 00 00	*(u64 *)(r10 - 40) = r2
      12:	18 02 00 00 46 61 69 6c 00 00 00 00 65 64 20 61	r2 = 6998704207707070790 ll
      14:	7b 2a d0 ff 00 00 00 00	*(u64 *)(r10 - 48) = r2
      15:	b7 02 00 00 00 00 00 00	r2 = 0
      16:	73 2a f8 ff 00 00 00 00	*(u8 *)(r10 - 8) = r2
      17:	b7 03 00 00 01 00 00 00	r3 = 1
      18:	7b 3a b8 ff 00 00 00 00	*(u64 *)(r10 - 72) = r3
      19:	63 2a b4 ff 00 00 00 00	*(u32 *)(r10 - 76) = r2
      20:	61 12 60 00 00 00 00 00	r2 = *(u32 *)(r1 + 96)
      21:	55 02 24 01 1c 00 00 00	if r2 != 28 goto +292 <LBB4_15>
      22:	79 13 68 00 00 00 00 00	r3 = *(u64 *)(r1 + 104)
      23:	07 03 00 00 08 00 00 00	r3 += 8
      24:	bf a1 00 00 00 00 00 00	r1 = r10
      25:	07 01 00 00 c0 ff ff ff	r1 += -64
      26:	b7 02 00 00 10 00 00 00	r2 = 16
      27:	85 00 00 00 04 00 00 00	call 4
      28:	bf 01 00 00 00 00 00 00	r1 = r0
      29:	67 01 00 00 20 00 00 00	r1 <<= 32
      30:	77 01 00 00 20 00 00 00	r1 >>= 32
      31:	55 01 15 01 00 00 00 00	if r1 != 0 goto +277 <LBB4_14>
      32:	69 a1 c0 ff 00 00 00 00	r1 = *(u16 *)(r10 - 64)
      33:	55 01 18 01 ad de 00 00	if r1 != 57005 goto +280 <LBB4_15>
      34:	69 a1 c2 ff 00 00 00 00	r1 = *(u16 *)(r10 - 62)
      35:	55 01 16 01 ef be 00 00	if r1 != 48879 goto +278 <LBB4_15>
      36:	69 a6 c4 ff 00 00 00 00	r6 = *(u16 *)(r10 - 60)
      37:	15 06 0e 00 03 00 00 00	if r6 == 3 goto +14 <LBB4_16>
      38:	85 00 00 00 07 00 00 00	call 7
      39:	63 0a b4 ff 00 00 00 00	*(u32 *)(r10 - 76) = r0
      40:	15 06 f0 00 02 00 00 00	if r6 == 2 goto +240 <LBB4_10>
      41:	15 06 ff 00 01 00 00 00	if r6 == 1 goto +255 <LBB4_9>
      42:	18 00 00 00 ea ff ff ff 00 00 00 00 00 00 00 00	r0 = 4294967274 ll
      44:	55 06 08 01 00 00 00 00	if r6 != 0 goto +264 <LBB4_14>
      45:	bf a2 00 00 00 00 00 00	r2 = r10
      46:	07 02 00 00 b4 ff ff ff	r2 += -76
      47:	bf a3 00 00 00 00 00 00	r3 = r10
      48:	07 03 00 00 b8 ff ff ff	r3 += -72
      49:	18 01 00 00 00 00 00 00 00 00 00 00 00 00 00 00	r1 = 0 ll
      51:	05 00 fb 00 00 00 00 00	goto +251 <LBB4_12>

00000000000001a0 <LBB4_16>:
      52:	61 a1 cc ff 00 00 00 00	r1 = *(u32 *)(r10 - 52)
      53:	63 1a b4 ff 00 00 00 00	*(u32 *)(r10 - 76) = r1
      54:	bf a6 00 00 00 00 00 00	r6 = r10
      55:	07 06 00 00 b4 ff ff ff	r6 += -76
      56:	18 01 00 00 00 00 00 00 00 00 00 00 00 00 00 00	r1 = 0 ll
      58:	bf 62 00 00 00 00 00 00	r2 = r6
      59:	85 00 00 00 01 00 00 00	call 1
      60:	61 a1 b4 ff 00 00 00 00	r1 = *(u32 *)(r10 - 76)
      61:	07 01 00 00 01 00 00 00	r1 += 1
      62:	63 1a b4 ff 00 00 00 00	*(u32 *)(r10 - 76) = r1
      63:	18 01 00 00 00 00 00 00 00 00 00 00 00 00 00 00	r1 = 0 ll
      65:	bf 62 00 00 00 00 00 00	r2 = r6
      66:	85 00 00 00 01 00 00 00	call 1
      67:	61 a1 b4 ff 00 00 00 00	r1 = *(u32 *)(r10 - 76)
      68:	07 01 00 00 01 00 00 00	r1 += 1
      69:	63 1a b4 ff 00 00 00 00	*(u32 *)(r10 - 76) = r1
      70:	18 01 00 00 00 00 00 00 00 00 00 00 00 00 00 00	r1 = 0 ll
      72:	bf 62 00 00 00 00 00 00	r2 = r6
      73:	85 00 00 00 01 00 00 00	call 1
      74:	61 a1 b4 ff 00 00 00 00	r1 = *(u32 *)(r10 - 76)
      75:	07 01 00 00 01 00 00 00	r1 += 1
      76:	63 1a b4 ff 00 00 00 00	*(u32 *)(r10 - 76) = r1
      77:	18 01 00 00 00 00 00 00 00 00 00 00 00 00 00 00	r1 = 0 ll
      79:	bf 62 00 00 00 00 00 00	r2 = r6
      80:	85 00 00 00 01 00 00 00	call 1
      81:	61 a1 b4 ff 00 00 00 00	r1 = *(u32 *)(r10 - 76)
      82:	07 01 00 00 01 00 00 00	r1 += 1
      83:	63 1a b4 ff 00 00 00 00	*(u32 *)(r10 - 76) = r1
      84:	18 01 00 00 00 00 00 00 00 00 00 00 00 00 00 00	r1 = 0 ll
      86:	bf 62 00 00 00 00 00 00	r2 = r6
      87:	85 00 00 00 01 00 00 00	call 1
      88:	61 a1 b4 ff 00 00 00 00	r1 = *(u32 *)(r10 - 76)
      89:	07 01 00 00 01 00 00 00	r1 += 1
      90:	63 1a b4 ff 00 00 00 00	*(u32 *)(r10 - 76) = r1
      91:	18 01 00 00 00 00 00 00 00 00 00 00 00 00 00 00	r1 = 0 ll
      93:	bf 62 00 00 00 00 00 00	r2 = r6
      94:	85 00 00 00 01 00 00 00	call 1
      95:	61 a1 b4 ff 00 00 00 00	r1 = *(u32 *)(r10 - 76)
      96:	07 01 00 00 01 00 00 00	r1 += 1
      97:	63 1a b4 ff 00 00 00 00	*(u32 *)(r10 - 76) = r1
      98:	18 01 00 00 00 00 00 00 00 00 00 00 00 00 00 00	r1 = 0 ll
     100:	bf 62 00 00 00 00 00 00	r2 = r6
     101:	85 00 00 00 01 00 00 00	call 1
     102:	61 a1 b4 ff 00 00 00 00	r1 = *(u32 *)(r10 - 76)
     103:	07 01 00 00 01 00 00 00	r1 += 1
     104:	63 1a b4 ff 00 00 00 00	*(u32 *)(r10 - 76) = r1
     105:	18 01 00 00 00 00 00 00 00 00 00 00 00 00 00 00	r1 = 0 ll
     107:	bf 62 00 00 00 00 00 00	r2 = r6
     108:	85 00 00 00 01 00 00 00	call 1
     109:	61 a1 b4 ff 00 00 00 00	r1 = *(u32 *)(r10 - 76)
     110:	07 01 00 00 01 00 00 00	r1 += 1
     111:	63 1a b4 ff 00 00 00 00	*(u32 *)(r10 - 76) = r1
     112:	18 01 00 00 00 00 00 00 00 00 00 00 00 00 00 00	r1 = 0 ll
     114:	bf 62 00 00 00 00 00 00	r2 = r6
     115:	85 00 00 00 01 00 00 00	call 1
     116:	61 a1 b4 ff 00 00 00 00	r1 = *(u32 *)(r10 - 76)
     117:	07 01 00 00 01 00 00 00	r1 += 1
     118:	63 1a b4 ff 00 00 00 00	*(u32 *)(r10 - 76) = r1
     119:	18 01 00 00 00 00 00 00 00 00 00 00 00 00 00 00	r1 = 0 ll
     121:	bf 62 00 00 00 00 00 00	r2 = r6
     122:	85 00 00 00 01 00 00 00	call 1
     123:	61 a1 b4 ff 00 00 00 00	r1 = *(u32 *)(r10 - 76)
     124:	07 01 00 00 01 00 00 00	r1 += 1
     125:	63 1a b4 ff 00 00 00 00	*(u32 *)(r10 - 76) = r1
     126:	18 01 00 00 00 00 00 00 00 00 00 00 00 00 00 00	r1 = 0 ll
     128:	bf 62 00 00 00 00 00 00	r2 = r6
     129:	85 00 00 00 01 00 00 00	call 1
     130:	61 a1 b4 ff 00 00 00 00	r1 = *(u32 *)(r10 - 76)
     131:	07 01 00 00 01 00 00 00	r1 += 1
     132:	63 1a b4 ff 00 00 00 00	*(u32 *)(r10 - 76) = r1
     133:	18 01 00 00 00 00 00 00 00 00 00 00 00 00 00 00	r1 = 0 ll
     135:	bf 62 00 00 00 00 00 00	r2 = r6
     136:	85 00 00 00 01 00 00 00	call 1
     137:	61 a1 b4 ff 00 00 00 00	r1 = *(u32 *)(r10 - 76)
     138:	07 01 00 00 01 00 00 00	r1 += 1
     139:	63 1a b4 ff 00 00 00 00	*(u32 *)(r10 - 76) = r1
     140:	18 01 00 00 00 00 00 00 00 00 00 00 00 00 00 00	r1 = 0 ll
     142:	bf 62 00 00 00 00 00 00	r2 = r6
     143:	85 00 00 00 01 00 00 00	call 1
     144:	61 a1 b4 ff 00 00 00 00	r1 = *(u32 *)(r10 - 76)
     145:	07 01 00 00 01 00 00 00	r1 += 1
     146:	63 1a b4 ff 00 00 00 00	*(u32 *)(r10 - 76) = r1
     147:	18 01 00 00 00 00 00 00 00 00 00 00 00 00 00 00	r1 = 0 ll
     149:	bf 62 00 00 00 00 00 00	r2 = r6
     150:	85 00 00 00 01 00 00 00	call 1
     151:	61 a1 b4 ff 00 00 00 00	r1 = *(u32 *)(r10 - 76)
     152:	07 01 00 00 01 00 00 00	r1 += 1
     153:	63 1a b4 ff 00 00 00 00	*(u32 *)(r10 - 76) = r1
     154:	18 01 00 00 00 00 00 00 00 00 00 00 00 00 00 00	r1 = 0 ll
     156:	bf 62 00 00 00 00 00 00	r2 = r6
     157:	85 00 00 00 01 00 00 00	call 1
     158:	61 a1 b4 ff 00 00 00 00	r1 = *(u32 *)(r10 - 76)
     159:	07 01 00 00 01 00 00 00	r1 += 1
     160:	63 1a b4 ff 00 00 00 00	*(u32 *)(r10 - 76) = r1
     161:	18 01 00 00 00 00 00 00 00 00 00 00 00 00 00 00	r1 = 0 ll
     163:	bf 62 00 00 00 00 00 00	r2 = r6
     164:	85 00 00 00 01 00 00 00	call 1
     165:	61 a1 b4 ff 00 00 00 00	r1 = *(u32 *)(r10 - 76)
     166:	07 01 00 00 01 00 00 00	r1 += 1
     167:	63 1a b4 ff 00 00 00 00	*(u32 *)(r10 - 76) = r1
     168:	18 01 00 00 00 00 00 00 00 00 00 00 00 00 00 00	r1 = 0 ll
     170:	bf 62 00 00 00 00 00 00	r2 = r6
     171:	85 00 00 00 01 00 00 00	call 1
     172:	61 a1 b4 ff 00 00 00 00	r1 = *(u32 *)(r10 - 76)
     173:	07 01 00 00 01 00 00 00	r1 += 1
     174:	63 1a b4 ff 00 00 00 00	*(u32 *)(r10 - 76) = r1
     175:	18 01 00 00 00 00 00 00 00 00 00 00 00 00 00 00	r1 = 0 ll
     177:	bf 62 00 00 00 00 00 00	r2 = r6
     178:	85 00 00 00 01 00 00 00	call 1
     179:	61 a1 b4 ff 00 00 00 00	r1 = *(u32 *)(r10 - 76)
     180:	07 01 00 00 01 00 00 00	r1 += 1
     181:	63 1a b4 ff 00 00 00 00	*(u32 *)(r10 - 76) = r1
     182:	18 01 00 00 00 00 00 00 00 00 00 00 00 00 00 00	r1 = 0 ll
     184:	bf 62 00 00 00 00 00 00	r2 = r6
     185:	85 00 00 00 01 00 00 00	call 1
     186:	61 a1 b4 ff 00 00 00 00	r1 = *(u32 *)(r10 - 76)
     187:	07 01 00 00 01 00 00 00	r1 += 1
     188:	63 1a b4 ff 00 00 00 00	*(u32 *)(r10 - 76) = r1
     189:	18 01 00 00 00 00 00 00 00 00 00 00 00 00 00 00	r1 = 0 ll
     191:	bf 62 00 00 00 00 00 00	r2 = r6
     192:	85 00 00 00 01 00 00 00	call 1
     193:	61 a1 b4 ff 00 00 00 00	r1 = *(u32 *)(r10 - 76)
     194:	07 01 00 00 01 00 00 00	r1 += 1
     195:	63 1a b4 ff 00 00 00 00	*(u32 *)(r10 - 76) = r1
     196:	18 01 00 00 00 00 00 00 00 00 00 00 00 00 00 00	r1 = 0 ll
     198:	bf 62 00 00 00 00 00 00	r2 = r6
     199:	85 00 00 00 01 00 00 00	call 1
     200:	61 a1 b4 ff 00 00 00 00	r1 = *(u32 *)(r10 - 76)
     201:	07 01 00 00 01 00 00 00	r1 += 1
     202:	63 1a b4 ff 00 00 00 00	*(u32 *)(r10 - 76) = r1
     203:	18 01 00 00 00 00 00 00 00 00 00 00 00 00 00 00	r1 = 0 ll
     205:	bf 62 00 00 00 00 00 00	r2 = r6
     206:	85 00 00 00 01 00 00 00	call 1
     207:	61 a1 b4 ff 00 00 00 00	r1 = *(u32 *)(r10 - 76)
     208:	07 01 00 00 01 00 00 00	r1 += 1
     209:	63 1a b4 ff 00 00 00 00	*(u32 *)(r10 - 76) = r1
     210:	18 01 00 00 00 00 00 00 00 00 00 00 00 00 00 00	r1 = 0 ll
     212:	bf 62 00 00 00 00 00 00	r2 = r6
     213:	85 00 00 00 01 00 00 00	call 1
     214:	61 a1 b4 ff 00 00 00 00	r1 = *(u32 *)(r10 - 76)
     215:	07 01 00 00 01 00 00 00	r1 += 1
     216:	63 1a b4 ff 00 00 00 00	*(u32 *)(r10 - 76) = r1
     217:	18 01 00 00 00 00 00 00 00 00 00 00 00 00 00 00	r1 = 0 ll
     219:	bf 62 00 00 00 00 00 00	r2 = r6
     220:	85 00 00 00 01 00 00 00	call 1
     221:	61 a1 b4 ff 00 00 00 00	r1 = *(u32 *)(r10 - 76)
     222:	07 01 00 00 01 00 00 00	r1 += 1
     223:	63 1a b4 ff 00 00 00 00	*(u32 *)(r10 - 76) = r1
     224:	18 01 00 00 00 00 00 00 00 00 00 00 00 00 00 00	r1 = 0 ll
     226:	bf 62 00 00 00 00 00 00	r2 = r6
     227:	85 00 00 00 01 00 00 00	call 1
     228:	61 a1 b4 ff 00 00 00 00	r1 = *(u32 *)(r10 - 76)
     229:	07 01 00 00 01 00 00 00	r1 += 1
     230:	63 1a b4 ff 00 00 00 00	*(u32 *)(r10 - 76) = r1
     231:	18 01 00 00 00 00 00 00 00 00 00 00 00 00 00 00	r1 = 0 ll
     233:	bf 62 00 00 00 00 00 00	r2 = r6
     234:	85 00 00 00 01 00 00 00	call 1
     235:	61 a1 b4 ff 00 00 00 00	r1 = *(u32 *)(r10 - 76)
     236:	07 01 00 00 01 00 00 00	r1 += 1
     237:	63 1a b4 ff 00 00 00 00	*(u32 *)(r10 - 76) = r1
     238:	18 01 00 00 00 00 00 00 00 00 00 00 00 00 00 00	r1 = 0 ll
     240:	bf 62 00 00 00 00 00 00	r2 = r6
     241:	85 00 00 00 01 00 00 00	call 1
     242:	61 a1 b4 ff 00 00 00 00	r1 = *(u32 *)(r10 - 76)
     243:	07 01 00 00 01 00 00 00	r1 += 1
     244:	63 1a b4 ff 00 00 00 00	*(u32 *)(r10 - 76) = r1
     245:	18 01 00 00 00 00 00 00 00 00 00 00 00 00 00 00	r1 = 0 ll
     247:	bf 62 00 00 00 00 00 00	r2 = r6
     248:	85 00 00 00 01 00 00 00	call 1
     249:	61 a1 b4 ff 00 00 00 00	r1 = *(u32 *)(r10 - 76)
     250:	07 01 00 00 01 00 00 00	r1 += 1
     251:	63 1a b4 ff 00 00 00 00	*(u32 *)(r10 - 76) = r1
     252:	18 01 00 00 00 00 00 00 00 00 00 00 00 00 00 00	r1 = 0 ll
     254:	bf 62 00 00 00 00 00 00	r2 = r6
     255:	85 00 00 00 01 00 00 00	call 1
     256:	61 a1 b4 ff 00 00 00 00	r1 = *(u32 *)(r10 - 76)
     257:	07 01 00 00 01 00 00 00	r1 += 1
     258:	63 1a b4 ff 00 00 00 00	*(u32 *)(r10 - 76) = r1
     259:	18 01 00 00 00 00 00 00 00 00 00 00 00 00 00 00	r1 = 0 ll
     261:	bf 62 00 00 00 00 00 00	r2 = r6
     262:	85 00 00 00 01 00 00 00	call 1
     263:	61 a1 b4 ff 00 00 00 00	r1 = *(u32 *)(r10 - 76)
     264:	07 01 00 00 01 00 00 00	r1 += 1
     265:	63 1a b4 ff 00 00 00 00	*(u32 *)(r10 - 76) = r1
     266:	18 01 00 00 00 00 00 00 00 00 00 00 00 00 00 00	r1 = 0 ll
     268:	bf 62 00 00 00 00 00 00	r2 = r6
     269:	85 00 00 00 01 00 00 00	call 1
     270:	61 a1 b4 ff 00 00 00 00	r1 = *(u32 *)(r10 - 76)
     271:	07 01 00 00 01 00 00 00	r1 += 1
     272:	63 1a b4 ff 00 00 00 00	*(u32 *)(r10 - 76) = r1
     273:	18 01 00 00 00 00 00 00 00 00 00 00 00 00 00 00	r1 = 0 ll
     275:	bf 62 00 00 00 00 00 00	r2 = r6
     276:	85 00 00 00 01 00 00 00	call 1
     277:	61 a1 b4 ff 00 00 00 00	r1 = *(u32 *)(r10 - 76)
     278:	07 01 00 00 01 00 00 00	r1 += 1
     279:	63 1a b4 ff 00 00 00 00	*(u32 *)(r10 - 76) = r1
     280:	05 00 21 00 00 00 00 00	goto +33 <LBB4_15>

00000000000008c8 <LBB4_10>:
     281:	85 00 00 00 08 00 00 00	call 8
     282:	63 0a b0 ff 00 00 00 00	*(u32 *)(r10 - 80) = r0
     283:	bf a2 00 00 00 00 00 00	r2 = r10
     284:	07 02 00 00 b0 ff ff ff	r2 += -80
     285:	18 01 00 00 00 00 00 00 00 00 00 00 00 00 00 00	r1 = 0 ll
     287:	85 00 00 00 01 00 00 00	call 1
     288:	bf 01 00 00 00 00 00 00	r1 = r0
     289:	18 00 00 00 fe ff ff ff 00 00 00 00 00 00 00 00	r0 = 4294967294 ll
     291:	15 01 0d 00 00 00 00 00	if r1 == 0 goto +13 <LBB4_13>
     292:	bf a2 00 00 00 00 00 00	r2 = r10
     293:	07 02 00 00 b4 ff ff ff	r2 += -76
     294:	bf a3 00 00 00 00 00 00	r3 = r10
     295:	07 03 00 00 b8 ff ff ff	r3 += -72
     296:	05 00 06 00 00 00 00 00	goto +6 <LBB4_12>

0000000000000948 <LBB4_9>:
     297:	bf a2 00 00 00 00 00 00	r2 = r10
     298:	07 02 00 00 b4 ff ff ff	r2 += -76
     299:	bf a3 00 00 00 00 00 00	r3 = r10
     300:	07 03 00 00 b8 ff ff ff	r3 += -72
     301:	18 01 00 00 00 00 00 00 00 00 00 00 00 00 00 00	r1 = 0 ll

0000000000000978 <LBB4_12>:
     303:	b7 04 00 00 00 00 00 00	r4 = 0
     304:	85 00 00 00 02 00 00 00	call 2

0000000000000988 <LBB4_13>:
     305:	bf 01 00 00 00 00 00 00	r1 = r0
     306:	67 01 00 00 20 00 00 00	r1 <<= 32
     307:	77 01 00 00 20 00 00 00	r1 >>= 32
     308:	15 01 05 00 00 00 00 00	if r1 == 0 goto +5 <LBB4_15>

00000000000009a8 <LBB4_14>:
     309:	bf a1 00 00 00 00 00 00	r1 = r10
     310:	07 01 00 00 d0 ff ff ff	r1 += -48
     311:	b7 02 00 00 29 00 00 00	r2 = 41
     312:	bf 03 00 00 00 00 00 00	r3 = r0
     313:	85 00 00 00 06 00 00 00	call 6

00000000000009d0 <LBB4_15>:
     314:	b7 00 00 00 00 00 00 00	r0 = 0
     315:	95 00 00 00 00 00 00 00	exit

Disassembly of section kprobe/sys_gettid:

0000000000000000 <stress_lpm_trie_map_alloc>:
       0:	18 01 00 00 20 00 00 00 00 00 00 00 c0 a8 00 01	r1 = 72243136625115168 ll
       2:	7b 1a f8 ff 00 00 00 00	*(u64 *)(r10 - 8) = r1
       3:	bf a6 00 00 00 00 00 00	r6 = r10
       4:	07 06 00 00 f8 ff ff ff	r6 += -8
       5:	18 01 00 00 00 00 00 00 00 00 00 00 00 00 00 00	r1 = 0 ll
       7:	bf 62 00 00 00 00 00 00	r2 = r6
       8:	85 00 00 00 01 00 00 00	call 1
       9:	18 01 00 00 00 00 00 00 00 00 00 00 00 00 00 00	r1 = 0 ll
      11:	bf 62 00 00 00 00 00 00	r2 = r6
      12:	85 00 00 00 01 00 00 00	call 1
      13:	18 01 00 00 00 00 00 00 00 00 00 00 00 00 00 00	r1 = 0 ll
      15:	bf 62 00 00 00 00 00 00	r2 = r6
      16:	85 00 00 00 01 00 00 00	call 1
      17:	18 01 00 00 00 00 00 00 00 00 00 00 00 00 00 00	r1 = 0 ll
      19:	bf 62 00 00 00 00 00 00	r2 = r6
      20:	85 00 00 00 01 00 00 00	call 1
      21:	18 01 00 00 00 00 00 00 00 00 00 00 00 00 00 00	r1 = 0 ll
      23:	bf 62 00 00 00 00 00 00	r2 = r6
      24:	85 00 00 00 01 00 00 00	call 1
      25:	18 01 00 00 00 00 00 00 00 00 00 00 00 00 00 00	r1 = 0 ll
      27:	bf 62 00 00 00 00 00 00	r2 = r6
      28:	85 00 00 00 01 00 00 00	call 1
      29:	18 01 00 00 00 00 00 00 00 00 00 00 00 00 00 00	r1 = 0 ll
      31:	bf 62 00 00 00 00 00 00	r2 = r6
      32:	85 00 00 00 01 00 00 00	call 1
      33:	18 01 00 00 00 00 00 00 00 00 00 00 00 00 00 00	r1 = 0 ll
      35:	bf 62 00 00 00 00 00 00	r2 = r6
      36:	85 00 00 00 01 00 00 00	call 1
      37:	18 01 00 00 00 00 00 00 00 00 00 00 00 00 00 00	r1 = 0 ll
      39:	bf 62 00 00 00 00 00 00	r2 = r6
      40:	85 00 00 00 01 00 00 00	call 1
      41:	18 01 00 00 00 00 00 00 00 00 00 00 00 00 00 00	r1 = 0 ll
      43:	bf 62 00 00 00 00 00 00	r2 = r6
      44:	85 00 00 00 01 00 00 00	call 1
      45:	18 01 00 00 00 00 00 00 00 00 00 00 00 00 00 00	r1 = 0 ll
      47:	bf 62 00 00 00 00 00 00	r2 = r6
      48:	85 00 00 00 01 00 00 00	call 1
      49:	18 01 00 00 00 00 00 00 00 00 00 00 00 00 00 00	r1 = 0 ll
      51:	bf 62 00 00 00 00 00 00	r2 = r6
      52:	85 00 00 00 01 00 00 00	call 1
      53:	18 01 00 00 00 00 00 00 00 00 00 00 00 00 00 00	r1 = 0 ll
      55:	bf 62 00 00 00 00 00 00	r2 = r6
      56:	85 00 00 00 01 00 00 00	call 1
      57:	18 01 00 00 00 00 00 00 00 00 00 00 00 00 00 00	r1 = 0 ll
      59:	bf 62 00 00 00 00 00 00	r2 = r6
      60:	85 00 00 00 01 00 00 00	call 1
      61:	18 01 00 00 00 00 00 00 00 00 00 00 00 00 00 00	r1 = 0 ll
      63:	bf 62 00 00 00 00 00 00	r2 = r6
      64:	85 00 00 00 01 00 00 00	call 1
      65:	18 01 00 00 00 00 00 00 00 00 00 00 00 00 00 00	r1 = 0 ll
      67:	bf 62 00 00 00 00 00 00	r2 = r6
      68:	85 00 00 00 01 00 00 00	call 1
      69:	18 01 00 00 00 00 00 00 00 00 00 00 00 00 00 00	r1 = 0 ll
      71:	bf 62 00 00 00 00 00 00	r2 = r6
      72:	85 00 00 00 01 00 00 00	call 1
      73:	18 01 00 00 00 00 00 00 00 00 00 00 00 00 00 00	r1 = 0 ll
      75:	bf 62 00 00 00 00 00 00	r2 = r6
      76:	85 00 00 00 01 00 00 00	call 1
      77:	18 01 00 00 00 00 00 00 00 00 00 00 00 00 00 00	r1 = 0 ll
      79:	bf 62 00 00 00 00 00 00	r2 = r6
      80:	85 00 00 00 01 00 00 00	call 1
      81:	18 01 00 00 00 00 00 00 00 00 00 00 00 00 00 00	r1 = 0 ll
      83:	bf 62 00 00 00 00 00 00	r2 = r6
      84:	85 00 00 00 01 00 00 00	call 1
      85:	18 01 00 00 00 00 00 00 00 00 00 00 00 00 00 00	r1 = 0 ll
      87:	bf 62 00 00 00 00 00 00	r2 = r6
      88:	85 00 00 00 01 00 00 00	call 1
      89:	18 01 00 00 00 00 00 00 00 00 00 00 00 00 00 00	r1 = 0 ll
      91:	bf 62 00 00 00 00 00 00	r2 = r6
      92:	85 00 00 00 01 00 00 00	call 1
      93:	18 01 00 00 00 00 00 00 00 00 00 00 00 00 00 00	r1 = 0 ll
      95:	bf 62 00 00 00 00 00 00	r2 = r6
      96:	85 00 00 00 01 00 00 00	call 1
      97:	18 01 00 00 00 00 00 00 00 00 00 00 00 00 00 00	r1 = 0 ll
      99:	bf 62 00 00 00 00 00 00	r2 = r6
     100:	85 00 00 00 01 00 00 00	call 1
     101:	18 01 00 00 00 00 00 00 00 00 00 00 00 00 00 00	r1 = 0 ll
     103:	bf 62 00 00 00 00 00 00	r2 = r6
     104:	85 00 00 00 01 00 00 00	call 1
     105:	18 01 00 00 00 00 00 00 00 00 00 00 00 00 00 00	r1 = 0 ll
     107:	bf 62 00 00 00 00 00 00	r2 = r6
     108:	85 00 00 00 01 00 00 00	call 1
     109:	18 01 00 00 00 00 00 00 00 00 00 00 00 00 00 00	r1 = 0 ll
     111:	bf 62 00 00 00 00 00 00	r2 = r6
     112:	85 00 00 00 01 00 00 00	call 1
     113:	18 01 00 00 00 00 00 00 00 00 00 00 00 00 00 00	r1 = 0 ll
     115:	bf 62 00 00 00 00 00 00	r2 = r6
     116:	85 00 00 00 01 00 00 00	call 1
     117:	18 01 00 00 00 00 00 00 00 00 00 00 00 00 00 00	r1 = 0 ll
     119:	bf 62 00 00 00 00 00 00	r2 = r6
     120:	85 00 00 00 01 00 00 00	call 1
     121:	18 01 00 00 00 00 00 00 00 00 00 00 00 00 00 00	r1 = 0 ll
     123:	bf 62 00 00 00 00 00 00	r2 = r6
     124:	85 00 00 00 01 00 00 00	call 1
     125:	18 01 00 00 00 00 00 00 00 00 00 00 00 00 00 00	r1 = 0 ll
     127:	bf 62 00 00 00 00 00 00	r2 = r6
     128:	85 00 00 00 01 00 00 00	call 1
     129:	18 01 00 00 00 00 00 00 00 00 00 00 00 00 00 00	r1 = 0 ll
     131:	bf 62 00 00 00 00 00 00	r2 = r6
     132:	85 00 00 00 01 00 00 00	call 1
     133:	b7 00 00 00 00 00 00 00	r0 = 0
     134:	95 00 00 00 00 00 00 00	exit

Disassembly of section kprobe/sys_getpgid:

0000000000000000 <stress_hash_map_lookup>:
       0:	b7 01 00 00 01 00 00 00	r1 = 1
       1:	63 1a fc ff 00 00 00 00	*(u32 *)(r10 - 4) = r1
       2:	bf a6 00 00 00 00 00 00	r6 = r10
       3:	07 06 00 00 fc ff ff ff	r6 += -4
       4:	18 01 00 00 00 00 00 00 00 00 00 00 00 00 00 00	r1 = 0 ll
       6:	bf 62 00 00 00 00 00 00	r2 = r6
       7:	85 00 00 00 01 00 00 00	call 1
       8:	18 01 00 00 00 00 00 00 00 00 00 00 00 00 00 00	r1 = 0 ll
      10:	bf 62 00 00 00 00 00 00	r2 = r6
      11:	85 00 00 00 01 00 00 00	call 1
      12:	18 01 00 00 00 00 00 00 00 00 00 00 00 00 00 00	r1 = 0 ll
      14:	bf 62 00 00 00 00 00 00	r2 = r6
      15:	85 00 00 00 01 00 00 00	call 1
      16:	18 01 00 00 00 00 00 00 00 00 00 00 00 00 00 00	r1 = 0 ll
      18:	bf 62 00 00 00 00 00 00	r2 = r6
      19:	85 00 00 00 01 00 00 00	call 1
      20:	18 01 00 00 00 00 00 00 00 00 00 00 00 00 00 00	r1 = 0 ll
      22:	bf 62 00 00 00 00 00 00	r2 = r6
      23:	85 00 00 00 01 00 00 00	call 1
      24:	18 01 00 00 00 00 00 00 00 00 00 00 00 00 00 00	r1 = 0 ll
      26:	bf 62 00 00 00 00 00 00	r2 = r6
      27:	85 00 00 00 01 00 00 00	call 1
      28:	18 01 00 00 00 00 00 00 00 00 00 00 00 00 00 00	r1 = 0 ll
      30:	bf 62 00 00 00 00 00 00	r2 = r6
      31:	85 00 00 00 01 00 00 00	call 1
      32:	18 01 00 00 00 00 00 00 00 00 00 00 00 00 00 00	r1 = 0 ll
      34:	bf 62 00 00 00 00 00 00	r2 = r6
      35:	85 00 00 00 01 00 00 00	call 1
      36:	18 01 00 00 00 00 00 00 00 00 00 00 00 00 00 00	r1 = 0 ll
      38:	bf 62 00 00 00 00 00 00	r2 = r6
      39:	85 00 00 00 01 00 00 00	call 1
      40:	18 01 00 00 00 00 00 00 00 00 00 00 00 00 00 00	r1 = 0 ll
      42:	bf 62 00 00 00 00 00 00	r2 = r6
      43:	85 00 00 00 01 00 00 00	call 1
      44:	18 01 00 00 00 00 00 00 00 00 00 00 00 00 00 00	r1 = 0 ll
      46:	bf 62 00 00 00 00 00 00	r2 = r6
      47:	85 00 00 00 01 00 00 00	call 1
      48:	18 01 00 00 00 00 00 00 00 00 00 00 00 00 00 00	r1 = 0 ll
      50:	bf 62 00 00 00 00 00 00	r2 = r6
      51:	85 00 00 00 01 00 00 00	call 1
      52:	18 01 00 00 00 00 00 00 00 00 00 00 00 00 00 00	r1 = 0 ll
      54:	bf 62 00 00 00 00 00 00	r2 = r6
      55:	85 00 00 00 01 00 00 00	call 1
      56:	18 01 00 00 00 00 00 00 00 00 00 00 00 00 00 00	r1 = 0 ll
      58:	bf 62 00 00 00 00 00 00	r2 = r6
      59:	85 00 00 00 01 00 00 00	call 1
      60:	18 01 00 00 00 00 00 00 00 00 00 00 00 00 00 00	r1 = 0 ll
      62:	bf 62 00 00 00 00 00 00	r2 = r6
      63:	85 00 00 00 01 00 00 00	call 1
      64:	18 01 00 00 00 00 00 00 00 00 00 00 00 00 00 00	r1 = 0 ll
      66:	bf 62 00 00 00 00 00 00	r2 = r6
      67:	85 00 00 00 01 00 00 00	call 1
      68:	18 01 00 00 00 00 00 00 00 00 00 00 00 00 00 00	r1 = 0 ll
      70:	bf 62 00 00 00 00 00 00	r2 = r6
      71:	85 00 00 00 01 00 00 00	call 1
      72:	18 01 00 00 00 00 00 00 00 00 00 00 00 00 00 00	r1 = 0 ll
      74:	bf 62 00 00 00 00 00 00	r2 = r6
      75:	85 00 00 00 01 00 00 00	call 1
      76:	18 01 00 00 00 00 00 00 00 00 00 00 00 00 00 00	r1 = 0 ll
      78:	bf 62 00 00 00 00 00 00	r2 = r6
      79:	85 00 00 00 01 00 00 00	call 1
      80:	18 01 00 00 00 00 00 00 00 00 00 00 00 00 00 00	r1 = 0 ll
      82:	bf 62 00 00 00 00 00 00	r2 = r6
      83:	85 00 00 00 01 00 00 00	call 1
      84:	18 01 00 00 00 00 00 00 00 00 00 00 00 00 00 00	r1 = 0 ll
      86:	bf 62 00 00 00 00 00 00	r2 = r6
      87:	85 00 00 00 01 00 00 00	call 1
      88:	18 01 00 00 00 00 00 00 00 00 00 00 00 00 00 00	r1 = 0 ll
      90:	bf 62 00 00 00 00 00 00	r2 = r6
      91:	85 00 00 00 01 00 00 00	call 1
      92:	18 01 00 00 00 00 00 00 00 00 00 00 00 00 00 00	r1 = 0 ll
      94:	bf 62 00 00 00 00 00 00	r2 = r6
      95:	85 00 00 00 01 00 00 00	call 1
      96:	18 01 00 00 00 00 00 00 00 00 00 00 00 00 00 00	r1 = 0 ll
      98:	bf 62 00 00 00 00 00 00	r2 = r6
      99:	85 00 00 00 01 00 00 00	call 1
     100:	18 01 00 00 00 00 00 00 00 00 00 00 00 00 00 00	r1 = 0 ll
     102:	bf 62 00 00 00 00 00 00	r2 = r6
     103:	85 00 00 00 01 00 00 00	call 1
     104:	18 01 00 00 00 00 00 00 00 00 00 00 00 00 00 00	r1 = 0 ll
     106:	bf 62 00 00 00 00 00 00	r2 = r6
     107:	85 00 00 00 01 00 00 00	call 1
     108:	18 01 00 00 00 00 00 00 00 00 00 00 00 00 00 00	r1 = 0 ll
     110:	bf 62 00 00 00 00 00 00	r2 = r6
     111:	85 00 00 00 01 00 00 00	call 1
     112:	18 01 00 00 00 00 00 00 00 00 00 00 00 00 00 00	r1 = 0 ll
     114:	bf 62 00 00 00 00 00 00	r2 = r6
     115:	85 00 00 00 01 00 00 00	call 1
     116:	18 01 00 00 00 00 00 00 00 00 00 00 00 00 00 00	r1 = 0 ll
     118:	bf 62 00 00 00 00 00 00	r2 = r6
     119:	85 00 00 00 01 00 00 00	call 1
     120:	18 01 00 00 00 00 00 00 00 00 00 00 00 00 00 00	r1 = 0 ll
     122:	bf 62 00 00 00 00 00 00	r2 = r6
     123:	85 00 00 00 01 00 00 00	call 1
     124:	18 01 00 00 00 00 00 00 00 00 00 00 00 00 00 00	r1 = 0 ll
     126:	bf 62 00 00 00 00 00 00	r2 = r6
     127:	85 00 00 00 01 00 00 00	call 1
     128:	18 01 00 00 00 00 00 00 00 00 00 00 00 00 00 00	r1 = 0 ll
     130:	bf 62 00 00 00 00 00 00	r2 = r6
     131:	85 00 00 00 01 00 00 00	call 1
     132:	18 01 00 00 00 00 00 00 00 00 00 00 00 00 00 00	r1 = 0 ll
     134:	bf 62 00 00 00 00 00 00	r2 = r6
     135:	85 00 00 00 01 00 00 00	call 1
     136:	18 01 00 00 00 00 00 00 00 00 00 00 00 00 00 00	r1 = 0 ll
     138:	bf 62 00 00 00 00 00 00	r2 = r6
     139:	85 00 00 00 01 00 00 00	call 1
     140:	18 01 00 00 00 00 00 00 00 00 00 00 00 00 00 00	r1 = 0 ll
     142:	bf 62 00 00 00 00 00 00	r2 = r6
     143:	85 00 00 00 01 00 00 00	call 1
     144:	18 01 00 00 00 00 00 00 00 00 00 00 00 00 00 00	r1 = 0 ll
     146:	bf 62 00 00 00 00 00 00	r2 = r6
     147:	85 00 00 00 01 00 00 00	call 1
     148:	18 01 00 00 00 00 00 00 00 00 00 00 00 00 00 00	r1 = 0 ll
     150:	bf 62 00 00 00 00 00 00	r2 = r6
     151:	85 00 00 00 01 00 00 00	call 1
     152:	18 01 00 00 00 00 00 00 00 00 00 00 00 00 00 00	r1 = 0 ll
     154:	bf 62 00 00 00 00 00 00	r2 = r6
     155:	85 00 00 00 01 00 00 00	call 1
     156:	18 01 00 00 00 00 00 00 00 00 00 00 00 00 00 00	r1 = 0 ll
     158:	bf 62 00 00 00 00 00 00	r2 = r6
     159:	85 00 00 00 01 00 00 00	call 1
     160:	18 01 00 00 00 00 00 00 00 00 00 00 00 00 00 00	r1 = 0 ll
     162:	bf 62 00 00 00 00 00 00	r2 = r6
     163:	85 00 00 00 01 00 00 00	call 1
     164:	18 01 00 00 00 00 00 00 00 00 00 00 00 00 00 00	r1 = 0 ll
     166:	bf 62 00 00 00 00 00 00	r2 = r6
     167:	85 00 00 00 01 00 00 00	call 1
     168:	18 01 00 00 00 00 00 00 00 00 00 00 00 00 00 00	r1 = 0 ll
     170:	bf 62 00 00 00 00 00 00	r2 = r6
     171:	85 00 00 00 01 00 00 00	call 1
     172:	18 01 00 00 00 00 00 00 00 00 00 00 00 00 00 00	r1 = 0 ll
     174:	bf 62 00 00 00 00 00 00	r2 = r6
     175:	85 00 00 00 01 00 00 00	call 1
     176:	18 01 00 00 00 00 00 00 00 00 00 00 00 00 00 00	r1 = 0 ll
     178:	bf 62 00 00 00 00 00 00	r2 = r6
     179:	85 00 00 00 01 00 00 00	call 1
     180:	18 01 00 00 00 00 00 00 00 00 00 00 00 00 00 00	r1 = 0 ll
     182:	bf 62 00 00 00 00 00 00	r2 = r6
     183:	85 00 00 00 01 00 00 00	call 1
     184:	18 01 00 00 00 00 00 00 00 00 00 00 00 00 00 00	r1 = 0 ll
     186:	bf 62 00 00 00 00 00 00	r2 = r6
     187:	85 00 00 00 01 00 00 00	call 1
     188:	18 01 00 00 00 00 00 00 00 00 00 00 00 00 00 00	r1 = 0 ll
     190:	bf 62 00 00 00 00 00 00	r2 = r6
     191:	85 00 00 00 01 00 00 00	call 1
     192:	18 01 00 00 00 00 00 00 00 00 00 00 00 00 00 00	r1 = 0 ll
     194:	bf 62 00 00 00 00 00 00	r2 = r6
     195:	85 00 00 00 01 00 00 00	call 1
     196:	18 01 00 00 00 00 00 00 00 00 00 00 00 00 00 00	r1 = 0 ll
     198:	bf 62 00 00 00 00 00 00	r2 = r6
     199:	85 00 00 00 01 00 00 00	call 1
     200:	18 01 00 00 00 00 00 00 00 00 00 00 00 00 00 00	r1 = 0 ll
     202:	bf 62 00 00 00 00 00 00	r2 = r6
     203:	85 00 00 00 01 00 00 00	call 1
     204:	18 01 00 00 00 00 00 00 00 00 00 00 00 00 00 00	r1 = 0 ll
     206:	bf 62 00 00 00 00 00 00	r2 = r6
     207:	85 00 00 00 01 00 00 00	call 1
     208:	18 01 00 00 00 00 00 00 00 00 00 00 00 00 00 00	r1 = 0 ll
     210:	bf 62 00 00 00 00 00 00	r2 = r6
     211:	85 00 00 00 01 00 00 00	call 1
     212:	18 01 00 00 00 00 00 00 00 00 00 00 00 00 00 00	r1 = 0 ll
     214:	bf 62 00 00 00 00 00 00	r2 = r6
     215:	85 00 00 00 01 00 00 00	call 1
     216:	18 01 00 00 00 00 00 00 00 00 00 00 00 00 00 00	r1 = 0 ll
     218:	bf 62 00 00 00 00 00 00	r2 = r6
     219:	85 00 00 00 01 00 00 00	call 1
     220:	18 01 00 00 00 00 00 00 00 00 00 00 00 00 00 00	r1 = 0 ll
     222:	bf 62 00 00 00 00 00 00	r2 = r6
     223:	85 00 00 00 01 00 00 00	call 1
     224:	18 01 00 00 00 00 00 00 00 00 00 00 00 00 00 00	r1 = 0 ll
     226:	bf 62 00 00 00 00 00 00	r2 = r6
     227:	85 00 00 00 01 00 00 00	call 1
     228:	18 01 00 00 00 00 00 00 00 00 00 00 00 00 00 00	r1 = 0 ll
     230:	bf 62 00 00 00 00 00 00	r2 = r6
     231:	85 00 00 00 01 00 00 00	call 1
     232:	18 01 00 00 00 00 00 00 00 00 00 00 00 00 00 00	r1 = 0 ll
     234:	bf 62 00 00 00 00 00 00	r2 = r6
     235:	85 00 00 00 01 00 00 00	call 1
     236:	18 01 00 00 00 00 00 00 00 00 00 00 00 00 00 00	r1 = 0 ll
     238:	bf 62 00 00 00 00 00 00	r2 = r6
     239:	85 00 00 00 01 00 00 00	call 1
     240:	18 01 00 00 00 00 00 00 00 00 00 00 00 00 00 00	r1 = 0 ll
     242:	bf 62 00 00 00 00 00 00	r2 = r6
     243:	85 00 00 00 01 00 00 00	call 1
     244:	18 01 00 00 00 00 00 00 00 00 00 00 00 00 00 00	r1 = 0 ll
     246:	bf 62 00 00 00 00 00 00	r2 = r6
     247:	85 00 00 00 01 00 00 00	call 1
     248:	18 01 00 00 00 00 00 00 00 00 00 00 00 00 00 00	r1 = 0 ll
     250:	bf 62 00 00 00 00 00 00	r2 = r6
     251:	85 00 00 00 01 00 00 00	call 1
     252:	18 01 00 00 00 00 00 00 00 00 00 00 00 00 00 00	r1 = 0 ll
     254:	bf 62 00 00 00 00 00 00	r2 = r6
     255:	85 00 00 00 01 00 00 00	call 1
     256:	18 01 00 00 00 00 00 00 00 00 00 00 00 00 00 00	r1 = 0 ll
     258:	bf 62 00 00 00 00 00 00	r2 = r6
     259:	85 00 00 00 01 00 00 00	call 1
     260:	b7 00 00 00 00 00 00 00	r0 = 0
     261:	95 00 00 00 00 00 00 00	exit

Disassembly of section kprobe/sys_getppid:

0000000000000000 <stress_array_map_lookup>:
       0:	b7 01 00 00 01 00 00 00	r1 = 1
       1:	63 1a fc ff 00 00 00 00	*(u32 *)(r10 - 4) = r1
       2:	bf a6 00 00 00 00 00 00	r6 = r10
       3:	07 06 00 00 fc ff ff ff	r6 += -4
       4:	18 01 00 00 00 00 00 00 00 00 00 00 00 00 00 00	r1 = 0 ll
       6:	bf 62 00 00 00 00 00 00	r2 = r6
       7:	85 00 00 00 01 00 00 00	call 1
       8:	18 01 00 00 00 00 00 00 00 00 00 00 00 00 00 00	r1 = 0 ll
      10:	bf 62 00 00 00 00 00 00	r2 = r6
      11:	85 00 00 00 01 00 00 00	call 1
      12:	18 01 00 00 00 00 00 00 00 00 00 00 00 00 00 00	r1 = 0 ll
      14:	bf 62 00 00 00 00 00 00	r2 = r6
      15:	85 00 00 00 01 00 00 00	call 1
      16:	18 01 00 00 00 00 00 00 00 00 00 00 00 00 00 00	r1 = 0 ll
      18:	bf 62 00 00 00 00 00 00	r2 = r6
      19:	85 00 00 00 01 00 00 00	call 1
      20:	18 01 00 00 00 00 00 00 00 00 00 00 00 00 00 00	r1 = 0 ll
      22:	bf 62 00 00 00 00 00 00	r2 = r6
      23:	85 00 00 00 01 00 00 00	call 1
      24:	18 01 00 00 00 00 00 00 00 00 00 00 00 00 00 00	r1 = 0 ll
      26:	bf 62 00 00 00 00 00 00	r2 = r6
      27:	85 00 00 00 01 00 00 00	call 1
      28:	18 01 00 00 00 00 00 00 00 00 00 00 00 00 00 00	r1 = 0 ll
      30:	bf 62 00 00 00 00 00 00	r2 = r6
      31:	85 00 00 00 01 00 00 00	call 1
      32:	18 01 00 00 00 00 00 00 00 00 00 00 00 00 00 00	r1 = 0 ll
      34:	bf 62 00 00 00 00 00 00	r2 = r6
      35:	85 00 00 00 01 00 00 00	call 1
      36:	18 01 00 00 00 00 00 00 00 00 00 00 00 00 00 00	r1 = 0 ll
      38:	bf 62 00 00 00 00 00 00	r2 = r6
      39:	85 00 00 00 01 00 00 00	call 1
      40:	18 01 00 00 00 00 00 00 00 00 00 00 00 00 00 00	r1 = 0 ll
      42:	bf 62 00 00 00 00 00 00	r2 = r6
      43:	85 00 00 00 01 00 00 00	call 1
      44:	18 01 00 00 00 00 00 00 00 00 00 00 00 00 00 00	r1 = 0 ll
      46:	bf 62 00 00 00 00 00 00	r2 = r6
      47:	85 00 00 00 01 00 00 00	call 1
      48:	18 01 00 00 00 00 00 00 00 00 00 00 00 00 00 00	r1 = 0 ll
      50:	bf 62 00 00 00 00 00 00	r2 = r6
      51:	85 00 00 00 01 00 00 00	call 1
      52:	18 01 00 00 00 00 00 00 00 00 00 00 00 00 00 00	r1 = 0 ll
      54:	bf 62 00 00 00 00 00 00	r2 = r6
      55:	85 00 00 00 01 00 00 00	call 1
      56:	18 01 00 00 00 00 00 00 00 00 00 00 00 00 00 00	r1 = 0 ll
      58:	bf 62 00 00 00 00 00 00	r2 = r6
      59:	85 00 00 00 01 00 00 00	call 1
      60:	18 01 00 00 00 00 00 00 00 00 00 00 00 00 00 00	r1 = 0 ll
      62:	bf 62 00 00 00 00 00 00	r2 = r6
      63:	85 00 00 00 01 00 00 00	call 1
      64:	18 01 00 00 00 00 00 00 00 00 00 00 00 00 00 00	r1 = 0 ll
      66:	bf 62 00 00 00 00 00 00	r2 = r6
      67:	85 00 00 00 01 00 00 00	call 1
      68:	18 01 00 00 00 00 00 00 00 00 00 00 00 00 00 00	r1 = 0 ll
      70:	bf 62 00 00 00 00 00 00	r2 = r6
      71:	85 00 00 00 01 00 00 00	call 1
      72:	18 01 00 00 00 00 00 00 00 00 00 00 00 00 00 00	r1 = 0 ll
      74:	bf 62 00 00 00 00 00 00	r2 = r6
      75:	85 00 00 00 01 00 00 00	call 1
      76:	18 01 00 00 00 00 00 00 00 00 00 00 00 00 00 00	r1 = 0 ll
      78:	bf 62 00 00 00 00 00 00	r2 = r6
      79:	85 00 00 00 01 00 00 00	call 1
      80:	18 01 00 00 00 00 00 00 00 00 00 00 00 00 00 00	r1 = 0 ll
      82:	bf 62 00 00 00 00 00 00	r2 = r6
      83:	85 00 00 00 01 00 00 00	call 1
      84:	18 01 00 00 00 00 00 00 00 00 00 00 00 00 00 00	r1 = 0 ll
      86:	bf 62 00 00 00 00 00 00	r2 = r6
      87:	85 00 00 00 01 00 00 00	call 1
      88:	18 01 00 00 00 00 00 00 00 00 00 00 00 00 00 00	r1 = 0 ll
      90:	bf 62 00 00 00 00 00 00	r2 = r6
      91:	85 00 00 00 01 00 00 00	call 1
      92:	18 01 00 00 00 00 00 00 00 00 00 00 00 00 00 00	r1 = 0 ll
      94:	bf 62 00 00 00 00 00 00	r2 = r6
      95:	85 00 00 00 01 00 00 00	call 1
      96:	18 01 00 00 00 00 00 00 00 00 00 00 00 00 00 00	r1 = 0 ll
      98:	bf 62 00 00 00 00 00 00	r2 = r6
      99:	85 00 00 00 01 00 00 00	call 1
     100:	18 01 00 00 00 00 00 00 00 00 00 00 00 00 00 00	r1 = 0 ll
     102:	bf 62 00 00 00 00 00 00	r2 = r6
     103:	85 00 00 00 01 00 00 00	call 1
     104:	18 01 00 00 00 00 00 00 00 00 00 00 00 00 00 00	r1 = 0 ll
     106:	bf 62 00 00 00 00 00 00	r2 = r6
     107:	85 00 00 00 01 00 00 00	call 1
     108:	18 01 00 00 00 00 00 00 00 00 00 00 00 00 00 00	r1 = 0 ll
     110:	bf 62 00 00 00 00 00 00	r2 = r6
     111:	85 00 00 00 01 00 00 00	call 1
     112:	18 01 00 00 00 00 00 00 00 00 00 00 00 00 00 00	r1 = 0 ll
     114:	bf 62 00 00 00 00 00 00	r2 = r6
     115:	85 00 00 00 01 00 00 00	call 1
     116:	18 01 00 00 00 00 00 00 00 00 00 00 00 00 00 00	r1 = 0 ll
     118:	bf 62 00 00 00 00 00 00	r2 = r6
     119:	85 00 00 00 01 00 00 00	call 1
     120:	18 01 00 00 00 00 00 00 00 00 00 00 00 00 00 00	r1 = 0 ll
     122:	bf 62 00 00 00 00 00 00	r2 = r6
     123:	85 00 00 00 01 00 00 00	call 1
     124:	18 01 00 00 00 00 00 00 00 00 00 00 00 00 00 00	r1 = 0 ll
     126:	bf 62 00 00 00 00 00 00	r2 = r6
     127:	85 00 00 00 01 00 00 00	call 1
     128:	18 01 00 00 00 00 00 00 00 00 00 00 00 00 00 00	r1 = 0 ll
     130:	bf 62 00 00 00 00 00 00	r2 = r6
     131:	85 00 00 00 01 00 00 00	call 1
     132:	18 01 00 00 00 00 00 00 00 00 00 00 00 00 00 00	r1 = 0 ll
     134:	bf 62 00 00 00 00 00 00	r2 = r6
     135:	85 00 00 00 01 00 00 00	call 1
     136:	18 01 00 00 00 00 00 00 00 00 00 00 00 00 00 00	r1 = 0 ll
     138:	bf 62 00 00 00 00 00 00	r2 = r6
     139:	85 00 00 00 01 00 00 00	call 1
     140:	18 01 00 00 00 00 00 00 00 00 00 00 00 00 00 00	r1 = 0 ll
     142:	bf 62 00 00 00 00 00 00	r2 = r6
     143:	85 00 00 00 01 00 00 00	call 1
     144:	18 01 00 00 00 00 00 00 00 00 00 00 00 00 00 00	r1 = 0 ll
     146:	bf 62 00 00 00 00 00 00	r2 = r6
     147:	85 00 00 00 01 00 00 00	call 1
     148:	18 01 00 00 00 00 00 00 00 00 00 00 00 00 00 00	r1 = 0 ll
     150:	bf 62 00 00 00 00 00 00	r2 = r6
     151:	85 00 00 00 01 00 00 00	call 1
     152:	18 01 00 00 00 00 00 00 00 00 00 00 00 00 00 00	r1 = 0 ll
     154:	bf 62 00 00 00 00 00 00	r2 = r6
     155:	85 00 00 00 01 00 00 00	call 1
     156:	18 01 00 00 00 00 00 00 00 00 00 00 00 00 00 00	r1 = 0 ll
     158:	bf 62 00 00 00 00 00 00	r2 = r6
     159:	85 00 00 00 01 00 00 00	call 1
     160:	18 01 00 00 00 00 00 00 00 00 00 00 00 00 00 00	r1 = 0 ll
     162:	bf 62 00 00 00 00 00 00	r2 = r6
     163:	85 00 00 00 01 00 00 00	call 1
     164:	18 01 00 00 00 00 00 00 00 00 00 00 00 00 00 00	r1 = 0 ll
     166:	bf 62 00 00 00 00 00 00	r2 = r6
     167:	85 00 00 00 01 00 00 00	call 1
     168:	18 01 00 00 00 00 00 00 00 00 00 00 00 00 00 00	r1 = 0 ll
     170:	bf 62 00 00 00 00 00 00	r2 = r6
     171:	85 00 00 00 01 00 00 00	call 1
     172:	18 01 00 00 00 00 00 00 00 00 00 00 00 00 00 00	r1 = 0 ll
     174:	bf 62 00 00 00 00 00 00	r2 = r6
     175:	85 00 00 00 01 00 00 00	call 1
     176:	18 01 00 00 00 00 00 00 00 00 00 00 00 00 00 00	r1 = 0 ll
     178:	bf 62 00 00 00 00 00 00	r2 = r6
     179:	85 00 00 00 01 00 00 00	call 1
     180:	18 01 00 00 00 00 00 00 00 00 00 00 00 00 00 00	r1 = 0 ll
     182:	bf 62 00 00 00 00 00 00	r2 = r6
     183:	85 00 00 00 01 00 00 00	call 1
     184:	18 01 00 00 00 00 00 00 00 00 00 00 00 00 00 00	r1 = 0 ll
     186:	bf 62 00 00 00 00 00 00	r2 = r6
     187:	85 00 00 00 01 00 00 00	call 1
     188:	18 01 00 00 00 00 00 00 00 00 00 00 00 00 00 00	r1 = 0 ll
     190:	bf 62 00 00 00 00 00 00	r2 = r6
     191:	85 00 00 00 01 00 00 00	call 1
     192:	18 01 00 00 00 00 00 00 00 00 00 00 00 00 00 00	r1 = 0 ll
     194:	bf 62 00 00 00 00 00 00	r2 = r6
     195:	85 00 00 00 01 00 00 00	call 1
     196:	18 01 00 00 00 00 00 00 00 00 00 00 00 00 00 00	r1 = 0 ll
     198:	bf 62 00 00 00 00 00 00	r2 = r6
     199:	85 00 00 00 01 00 00 00	call 1
     200:	18 01 00 00 00 00 00 00 00 00 00 00 00 00 00 00	r1 = 0 ll
     202:	bf 62 00 00 00 00 00 00	r2 = r6
     203:	85 00 00 00 01 00 00 00	call 1
     204:	18 01 00 00 00 00 00 00 00 00 00 00 00 00 00 00	r1 = 0 ll
     206:	bf 62 00 00 00 00 00 00	r2 = r6
     207:	85 00 00 00 01 00 00 00	call 1
     208:	18 01 00 00 00 00 00 00 00 00 00 00 00 00 00 00	r1 = 0 ll
     210:	bf 62 00 00 00 00 00 00	r2 = r6
     211:	85 00 00 00 01 00 00 00	call 1
     212:	18 01 00 00 00 00 00 00 00 00 00 00 00 00 00 00	r1 = 0 ll
     214:	bf 62 00 00 00 00 00 00	r2 = r6
     215:	85 00 00 00 01 00 00 00	call 1
     216:	18 01 00 00 00 00 00 00 00 00 00 00 00 00 00 00	r1 = 0 ll
     218:	bf 62 00 00 00 00 00 00	r2 = r6
     219:	85 00 00 00 01 00 00 00	call 1
     220:	18 01 00 00 00 00 00 00 00 00 00 00 00 00 00 00	r1 = 0 ll
     222:	bf 62 00 00 00 00 00 00	r2 = r6
     223:	85 00 00 00 01 00 00 00	call 1
     224:	18 01 00 00 00 00 00 00 00 00 00 00 00 00 00 00	r1 = 0 ll
     226:	bf 62 00 00 00 00 00 00	r2 = r6
     227:	85 00 00 00 01 00 00 00	call 1
     228:	18 01 00 00 00 00 00 00 00 00 00 00 00 00 00 00	r1 = 0 ll
     230:	bf 62 00 00 00 00 00 00	r2 = r6
     231:	85 00 00 00 01 00 00 00	call 1
     232:	18 01 00 00 00 00 00 00 00 00 00 00 00 00 00 00	r1 = 0 ll
     234:	bf 62 00 00 00 00 00 00	r2 = r6
     235:	85 00 00 00 01 00 00 00	call 1
     236:	18 01 00 00 00 00 00 00 00 00 00 00 00 00 00 00	r1 = 0 ll
     238:	bf 62 00 00 00 00 00 00	r2 = r6
     239:	85 00 00 00 01 00 00 00	call 1
     240:	18 01 00 00 00 00 00 00 00 00 00 00 00 00 00 00	r1 = 0 ll
     242:	bf 62 00 00 00 00 00 00	r2 = r6
     243:	85 00 00 00 01 00 00 00	call 1
     244:	18 01 00 00 00 00 00 00 00 00 00 00 00 00 00 00	r1 = 0 ll
     246:	bf 62 00 00 00 00 00 00	r2 = r6
     247:	85 00 00 00 01 00 00 00	call 1
     248:	18 01 00 00 00 00 00 00 00 00 00 00 00 00 00 00	r1 = 0 ll
     250:	bf 62 00 00 00 00 00 00	r2 = r6
     251:	85 00 00 00 01 00 00 00	call 1
     252:	18 01 00 00 00 00 00 00 00 00 00 00 00 00 00 00	r1 = 0 ll
     254:	bf 62 00 00 00 00 00 00	r2 = r6
     255:	85 00 00 00 01 00 00 00	call 1
     256:	18 01 00 00 00 00 00 00 00 00 00 00 00 00 00 00	r1 = 0 ll
     258:	bf 62 00 00 00 00 00 00	r2 = r6
     259:	85 00 00 00 01 00 00 00	call 1
     260:	b7 00 00 00 00 00 00 00	r0 = 0
     261:	95 00 00 00 00 00 00 00	exit
