
./ebpf-samples/all/stackok.o:	file format elf64-bpf

Disassembly of section .text:

0000000000000000 <func>:
       0:	b7 01 00 00 00 00 00 00	r1 = 0
       1:	7b 1a f8 ff 00 00 00 00	*(u64 *)(r10 - 8) = r1
       2:	7b 1a f0 ff 00 00 00 00	*(u64 *)(r10 - 16) = r1
       3:	7b 1a e8 ff 00 00 00 00	*(u64 *)(r10 - 24) = r1
       4:	7b 1a e0 ff 00 00 00 00	*(u64 *)(r10 - 32) = r1
       5:	7b 1a d8 ff 00 00 00 00	*(u64 *)(r10 - 40) = r1
       6:	7b 1a d0 ff 00 00 00 00	*(u64 *)(r10 - 48) = r1
       7:	7b 1a c8 ff 00 00 00 00	*(u64 *)(r10 - 56) = r1
       8:	7b 1a c0 ff 00 00 00 00	*(u64 *)(r10 - 64) = r1
       9:	7b 1a b8 ff 00 00 00 00	*(u64 *)(r10 - 72) = r1
      10:	7b 1a b0 ff 00 00 00 00	*(u64 *)(r10 - 80) = r1
      11:	7b 1a a8 ff 00 00 00 00	*(u64 *)(r10 - 88) = r1
      12:	7b 1a a0 ff 00 00 00 00	*(u64 *)(r10 - 96) = r1
      13:	7b 1a 98 ff 00 00 00 00	*(u64 *)(r10 - 104) = r1
      14:	7b 1a 90 ff 00 00 00 00	*(u64 *)(r10 - 112) = r1
      15:	7b 1a 88 ff 00 00 00 00	*(u64 *)(r10 - 120) = r1
      16:	7b 1a 80 ff 00 00 00 00	*(u64 *)(r10 - 128) = r1
      17:	7b 1a 78 ff 00 00 00 00	*(u64 *)(r10 - 136) = r1
      18:	7b 1a 70 ff 00 00 00 00	*(u64 *)(r10 - 144) = r1
      19:	7b 1a 68 ff 00 00 00 00	*(u64 *)(r10 - 152) = r1
      20:	7b 1a 60 ff 00 00 00 00	*(u64 *)(r10 - 160) = r1
      21:	7b 1a 58 ff 00 00 00 00	*(u64 *)(r10 - 168) = r1
      22:	7b 1a 50 ff 00 00 00 00	*(u64 *)(r10 - 176) = r1
      23:	7b 1a 48 ff 00 00 00 00	*(u64 *)(r10 - 184) = r1
      24:	7b 1a 40 ff 00 00 00 00	*(u64 *)(r10 - 192) = r1
      25:	7b 1a 38 ff 00 00 00 00	*(u64 *)(r10 - 200) = r1
      26:	7b 1a 30 ff 00 00 00 00	*(u64 *)(r10 - 208) = r1
      27:	7b 1a 28 ff 00 00 00 00	*(u64 *)(r10 - 216) = r1
      28:	7b 1a 20 ff 00 00 00 00	*(u64 *)(r10 - 224) = r1
      29:	7b 1a 18 ff 00 00 00 00	*(u64 *)(r10 - 232) = r1
      30:	7b 1a 10 ff 00 00 00 00	*(u64 *)(r10 - 240) = r1
      31:	7b 1a 08 ff 00 00 00 00	*(u64 *)(r10 - 248) = r1
      32:	7b 1a 00 ff 00 00 00 00	*(u64 *)(r10 - 256) = r1
      33:	85 00 00 00 07 00 00 00	call 7
      34:	57 00 00 00 ff 00 00 00	r0 &= 255
      35:	bf a1 00 00 00 00 00 00	r1 = r10
      36:	07 01 00 00 00 ff ff ff	r1 += -256
      37:	0f 01 00 00 00 00 00 00	r1 += r0
      38:	71 10 00 00 00 00 00 00	r0 = *(u8 *)(r1 + 0)
      39:	67 00 00 00 38 00 00 00	r0 <<= 56
      40:	c7 00 00 00 38 00 00 00	r0 s>>= 56
      41:	95 00 00 00 00 00 00 00	exit
