
./ebpf-samples/all/tcp_clamp_kern.o:	file format elf64-bpf

Disassembly of section sockops:

0000000000000000 <bpf_clamp>:
       0:	bf 16 00 00 00 00 00 00	r6 = r1
       1:	b7 01 00 00 f0 49 02 00	r1 = 150000
       2:	63 1a fc ff 00 00 00 00	*(u32 *)(r10 - 4) = r1
       3:	b7 01 00 00 64 00 00 00	r1 = 100
       4:	63 1a f8 ff 00 00 00 00	*(u32 *)(r10 - 8) = r1
       5:	61 61 40 00 00 00 00 00	r1 = *(u32 *)(r6 + 64)
       6:	15 01 05 00 00 00 d9 31	if r1 == 836304896 goto +5 <LBB0_2>
       7:	b7 00 00 00 00 00 00 00	r0 = 0
       8:	18 07 00 00 ff ff ff ff 00 00 00 00 00 00 00 00	r7 = 4294967295 ll
      10:	61 61 44 00 00 00 00 00	r1 = *(u32 *)(r6 + 68)
      11:	55 01 6a 00 31 d9 00 00	if r1 != 55601 goto +106 <LBB0_15>

0000000000000060 <LBB0_2>:
      12:	61 68 00 00 00 00 00 00	r8 = *(u32 *)(r6 + 0)
      13:	b7 01 00 00 00 00 00 00	r1 = 0
      14:	73 1a f0 ff 00 00 00 00	*(u8 *)(r10 - 16) = r1
      15:	18 01 00 00 61 6e 64 3a 00 00 00 00 20 25 64 0a	r1 = 748764258399186529 ll
      17:	7b 1a e8 ff 00 00 00 00	*(u64 *)(r10 - 24) = r1
      18:	18 01 00 00 42 50 46 20 00 00 00 00 63 6f 6d 6d	r1 = 7885080994129530946 ll
      20:	7b 1a e0 ff 00 00 00 00	*(u64 *)(r10 - 32) = r1
      21:	bf a1 00 00 00 00 00 00	r1 = r10
      22:	07 01 00 00 e0 ff ff ff	r1 += -32
      23:	b7 02 00 00 11 00 00 00	r2 = 17
      24:	bf 83 00 00 00 00 00 00	r3 = r8
      25:	85 00 00 00 06 00 00 00	call 6
      26:	61 61 14 00 00 00 00 00	r1 = *(u32 *)(r6 + 20)
      27:	18 07 00 00 ff ff ff ff 00 00 00 00 00 00 00 00	r7 = 4294967295 ll
      29:	55 01 4b 00 0a 00 00 00	if r1 != 10 goto +75 <LBB0_14>
      30:	61 61 20 00 00 00 00 00	r1 = *(u32 *)(r6 + 32)
      31:	61 62 30 00 00 00 00 00	r2 = *(u32 *)(r6 + 48)
      32:	18 07 00 00 ff ff ff ff 00 00 00 00 00 00 00 00	r7 = 4294967295 ll
      34:	5d 12 46 00 00 00 00 00	if r2 != r1 goto +70 <LBB0_14>
      35:	61 61 34 00 00 00 00 00	r1 = *(u32 *)(r6 + 52)
      36:	61 62 24 00 00 00 00 00	r2 = *(u32 *)(r6 + 36)
      37:	af 12 00 00 00 00 00 00	r2 ^= r1
      38:	57 02 00 00 ff f0 00 00	r2 &= 61695
      39:	18 07 00 00 ff ff ff ff 00 00 00 00 00 00 00 00	r7 = 4294967295 ll
      41:	55 02 3f 00 00 00 00 00	if r2 != 0 goto +63 <LBB0_14>
      42:	65 08 16 00 03 00 00 00	if r8 s> 3 goto +22 <LBB0_8>
      43:	b7 07 00 00 0a 00 00 00	r7 = 10
      44:	15 08 3c 00 01 00 00 00	if r8 == 1 goto +60 <LBB0_14>
      45:	15 08 01 00 03 00 00 00	if r8 == 3 goto +1 <LBB0_10>
      46:	05 00 38 00 00 00 00 00	goto +56 <LBB0_13>

0000000000000178 <LBB0_10>:
      47:	bf a7 00 00 00 00 00 00	r7 = r10
      48:	07 07 00 00 fc ff ff ff	r7 += -4
      49:	bf 61 00 00 00 00 00 00	r1 = r6
      50:	b7 02 00 00 01 00 00 00	r2 = 1
      51:	b7 03 00 00 07 00 00 00	r3 = 7
      52:	bf 74 00 00 00 00 00 00	r4 = r7
      53:	b7 05 00 00 04 00 00 00	r5 = 4
      54:	85 00 00 00 31 00 00 00	call 49
      55:	bf 08 00 00 00 00 00 00	r8 = r0
      56:	bf 61 00 00 00 00 00 00	r1 = r6
      57:	b7 02 00 00 01 00 00 00	r2 = 1
      58:	b7 03 00 00 08 00 00 00	r3 = 8
      59:	bf 74 00 00 00 00 00 00	r4 = r7
      60:	b7 05 00 00 04 00 00 00	r5 = 4
      61:	85 00 00 00 31 00 00 00	call 49
      62:	bf 07 00 00 00 00 00 00	r7 = r0
      63:	0f 87 00 00 00 00 00 00	r7 += r8
      64:	05 00 28 00 00 00 00 00	goto +40 <LBB0_14>

0000000000000208 <LBB0_8>:
      65:	15 08 1c 00 04 00 00 00	if r8 == 4 goto +28 <LBB0_11>
      66:	15 08 01 00 05 00 00 00	if r8 == 5 goto +1 <LBB0_12>
      67:	05 00 23 00 00 00 00 00	goto +35 <LBB0_13>

0000000000000220 <LBB0_12>:
      68:	bf a4 00 00 00 00 00 00	r4 = r10
      69:	07 04 00 00 f8 ff ff ff	r4 += -8
      70:	bf 61 00 00 00 00 00 00	r1 = r6
      71:	b7 02 00 00 06 00 00 00	r2 = 6
      72:	b7 03 00 00 ea 03 00 00	r3 = 1002
      73:	b7 05 00 00 04 00 00 00	r5 = 4
      74:	85 00 00 00 31 00 00 00	call 49
      75:	bf 08 00 00 00 00 00 00	r8 = r0
      76:	bf a9 00 00 00 00 00 00	r9 = r10
      77:	07 09 00 00 fc ff ff ff	r9 += -4
      78:	bf 61 00 00 00 00 00 00	r1 = r6
      79:	b7 02 00 00 01 00 00 00	r2 = 1
      80:	b7 03 00 00 07 00 00 00	r3 = 7
      81:	bf 94 00 00 00 00 00 00	r4 = r9
      82:	b7 05 00 00 04 00 00 00	r5 = 4
      83:	85 00 00 00 31 00 00 00	call 49
      84:	bf 07 00 00 00 00 00 00	r7 = r0
      85:	0f 87 00 00 00 00 00 00	r7 += r8
      86:	bf 61 00 00 00 00 00 00	r1 = r6
      87:	b7 02 00 00 01 00 00 00	r2 = 1
      88:	b7 03 00 00 08 00 00 00	r3 = 8
      89:	bf 94 00 00 00 00 00 00	r4 = r9
      90:	b7 05 00 00 04 00 00 00	r5 = 4
      91:	85 00 00 00 31 00 00 00	call 49
      92:	0f 07 00 00 00 00 00 00	r7 += r0
      93:	05 00 0b 00 00 00 00 00	goto +11 <LBB0_14>

00000000000002f0 <LBB0_11>:
      94:	bf a4 00 00 00 00 00 00	r4 = r10
      95:	07 04 00 00 f8 ff ff ff	r4 += -8
      96:	bf 61 00 00 00 00 00 00	r1 = r6
      97:	b7 02 00 00 06 00 00 00	r2 = 6
      98:	b7 03 00 00 ea 03 00 00	r3 = 1002
      99:	b7 05 00 00 04 00 00 00	r5 = 4
     100:	85 00 00 00 31 00 00 00	call 49
     101:	bf 07 00 00 00 00 00 00	r7 = r0
     102:	05 00 02 00 00 00 00 00	goto +2 <LBB0_14>

0000000000000338 <LBB0_13>:
     103:	18 07 00 00 ff ff ff ff 00 00 00 00 00 00 00 00	r7 = 4294967295 ll

0000000000000348 <LBB0_14>:
     105:	b7 01 00 00 0a 00 00 00	r1 = 10
     106:	6b 1a ec ff 00 00 00 00	*(u16 *)(r10 - 20) = r1
     107:	b7 01 00 00 67 20 25 64	r1 = 1680154727
     108:	63 1a e8 ff 00 00 00 00	*(u32 *)(r10 - 24) = r1
     109:	18 01 00 00 52 65 74 75 00 00 00 00 72 6e 69 6e	r1 = 7956011654602581330 ll
     111:	7b 1a e0 ff 00 00 00 00	*(u64 *)(r10 - 32) = r1
     112:	bf a1 00 00 00 00 00 00	r1 = r10
     113:	07 01 00 00 e0 ff ff ff	r1 += -32
     114:	b7 02 00 00 0e 00 00 00	r2 = 14
     115:	bf 73 00 00 00 00 00 00	r3 = r7
     116:	85 00 00 00 06 00 00 00	call 6
     117:	b7 00 00 00 01 00 00 00	r0 = 1

00000000000003b0 <LBB0_15>:
     118:	63 76 04 00 00 00 00 00	*(u32 *)(r6 + 4) = r7
     119:	95 00 00 00 00 00 00 00	exit
