
./ebpf-samples/all/test_overhead_kprobe_kern.o:	file format elf64-bpf

Disassembly of section kprobe/__set_task_comm:

0000000000000000 <prog>:
       0:	bf 17 00 00 00 00 00 00	r7 = r1
       1:	b7 08 00 00 00 00 00 00	r8 = 0
       2:	7b 8a f8 ff 00 00 00 00	*(u64 *)(r10 - 8) = r8
       3:	7b 8a f0 ff 00 00 00 00	*(u64 *)(r10 - 16) = r8
       4:	7b 8a e8 ff 00 00 00 00	*(u64 *)(r10 - 24) = r8
       5:	7b 8a e0 ff 00 00 00 00	*(u64 *)(r10 - 32) = r8
       6:	79 76 70 00 00 00 00 00	r6 = *(u64 *)(r7 + 112)
       7:	63 8a d8 ff 00 00 00 00	*(u32 *)(r10 - 40) = r8
       8:	bf 63 00 00 00 00 00 00	r3 = r6
       9:	07 03 00 00 a8 08 00 00	r3 += 2216
      10:	bf a1 00 00 00 00 00 00	r1 = r10
      11:	07 01 00 00 d8 ff ff ff	r1 += -40
      12:	b7 02 00 00 04 00 00 00	r2 = 4
      13:	85 00 00 00 04 00 00 00	call 4
      14:	bf 63 00 00 00 00 00 00	r3 = r6
      15:	07 03 00 00 50 0a 00 00	r3 += 2640
      16:	bf a1 00 00 00 00 00 00	r1 = r10
      17:	07 01 00 00 f0 ff ff ff	r1 += -16
      18:	b7 02 00 00 10 00 00 00	r2 = 16
      19:	85 00 00 00 04 00 00 00	call 4
      20:	79 73 68 00 00 00 00 00	r3 = *(u64 *)(r7 + 104)
      21:	bf a1 00 00 00 00 00 00	r1 = r10
      22:	07 01 00 00 e0 ff ff ff	r1 += -32
      23:	b7 02 00 00 10 00 00 00	r2 = 16
      24:	85 00 00 00 04 00 00 00	call 4
      25:	07 06 00 00 a8 0a 00 00	r6 += 2728
      26:	7b 8a d8 ff 00 00 00 00	*(u64 *)(r10 - 40) = r8
      27:	bf a1 00 00 00 00 00 00	r1 = r10
      28:	07 01 00 00 d8 ff ff ff	r1 += -40
      29:	b7 02 00 00 08 00 00 00	r2 = 8
      30:	bf 63 00 00 00 00 00 00	r3 = r6
      31:	85 00 00 00 04 00 00 00	call 4
      32:	79 a3 d8 ff 00 00 00 00	r3 = *(u64 *)(r10 - 40)
      33:	6b 8a d8 ff 00 00 00 00	*(u16 *)(r10 - 40) = r8
      34:	07 03 00 00 f2 03 00 00	r3 += 1010
      35:	bf a1 00 00 00 00 00 00	r1 = r10
      36:	07 01 00 00 d8 ff ff ff	r1 += -40
      37:	b7 02 00 00 02 00 00 00	r2 = 2
      38:	85 00 00 00 04 00 00 00	call 4
      39:	b7 00 00 00 00 00 00 00	r0 = 0
      40:	95 00 00 00 00 00 00 00	exit

Disassembly of section kprobe/urandom_read:

0000000000000000 <prog2>:
       0:	b7 00 00 00 00 00 00 00	r0 = 0
       1:	95 00 00 00 00 00 00 00	exit
