
./ebpf-samples/all/test_probe_write_user_kern.o:	file format elf64-bpf

Disassembly of section kprobe/sys_connect:

0000000000000000 <bpf_prog1>:
       0:	b7 02 00 00 00 00 00 00	r2 = 0
       1:	7b 2a e8 ff 00 00 00 00	*(u64 *)(r10 - 24) = r2
       2:	7b 2a e0 ff 00 00 00 00	*(u64 *)(r10 - 32) = r2
       3:	61 12 60 00 00 00 00 00	r2 = *(u32 *)(r1 + 96)
       4:	67 02 00 00 20 00 00 00	r2 <<= 32
       5:	c7 02 00 00 20 00 00 00	r2 s>>= 32
       6:	25 02 1e 00 10 00 00 00	if r2 > 16 goto +30 <LBB0_4>
       7:	79 16 68 00 00 00 00 00	r6 = *(u64 *)(r1 + 104)
       8:	bf a1 00 00 00 00 00 00	r1 = r10
       9:	07 01 00 00 e0 ff ff ff	r1 += -32
      10:	b7 02 00 00 10 00 00 00	r2 = 16
      11:	bf 63 00 00 00 00 00 00	r3 = r6
      12:	85 00 00 00 04 00 00 00	call 4
      13:	67 00 00 00 20 00 00 00	r0 <<= 32
      14:	77 00 00 00 20 00 00 00	r0 >>= 32
      15:	55 00 15 00 00 00 00 00	if r0 != 0 goto +21 <LBB0_4>
      16:	bf a2 00 00 00 00 00 00	r2 = r10
      17:	07 02 00 00 e0 ff ff ff	r2 += -32
      18:	18 01 00 00 00 00 00 00 00 00 00 00 00 00 00 00	r1 = 0 ll
      20:	85 00 00 00 01 00 00 00	call 1
      21:	15 00 0f 00 00 00 00 00	if r0 == 0 goto +15 <LBB0_4>
      22:	61 01 0c 00 00 00 00 00	r1 = *(u32 *)(r0 + 12)
      23:	67 01 00 00 20 00 00 00	r1 <<= 32
      24:	61 02 08 00 00 00 00 00	r2 = *(u32 *)(r0 + 8)
      25:	4f 21 00 00 00 00 00 00	r1 |= r2
      26:	7b 1a f8 ff 00 00 00 00	*(u64 *)(r10 - 8) = r1
      27:	61 01 00 00 00 00 00 00	r1 = *(u32 *)(r0 + 0)
      28:	61 02 04 00 00 00 00 00	r2 = *(u32 *)(r0 + 4)
      29:	67 02 00 00 20 00 00 00	r2 <<= 32
      30:	4f 12 00 00 00 00 00 00	r2 |= r1
      31:	7b 2a f0 ff 00 00 00 00	*(u64 *)(r10 - 16) = r2
      32:	bf a2 00 00 00 00 00 00	r2 = r10
      33:	07 02 00 00 f0 ff ff ff	r2 += -16
      34:	bf 61 00 00 00 00 00 00	r1 = r6
      35:	b7 03 00 00 10 00 00 00	r3 = 16
      36:	85 00 00 00 24 00 00 00	call 36

0000000000000128 <LBB0_4>:
      37:	b7 00 00 00 00 00 00 00	r0 = 0
      38:	95 00 00 00 00 00 00 00	exit
