
./ebpf-samples/all/tracex4_kern.o:	file format elf64-bpf

Disassembly of section kprobe/kmem_cache_free:

0000000000000000 <bpf_prog1>:
       0:	79 11 68 00 00 00 00 00	r1 = *(u64 *)(r1 + 104)
       1:	7b 1a f8 ff 00 00 00 00	*(u64 *)(r10 - 8) = r1
       2:	bf a2 00 00 00 00 00 00	r2 = r10
       3:	07 02 00 00 f8 ff ff ff	r2 += -8
       4:	18 01 00 00 00 00 00 00 00 00 00 00 00 00 00 00	r1 = 0 ll
       6:	85 00 00 00 03 00 00 00	call 3
       7:	b7 00 00 00 00 00 00 00	r0 = 0
       8:	95 00 00 00 00 00 00 00	exit

Disassembly of section kretprobe/kmem_cache_alloc_node:

0000000000000000 <bpf_prog2>:
       0:	79 12 50 00 00 00 00 00	r2 = *(u64 *)(r1 + 80)
       1:	7b 2a f8 ff 00 00 00 00	*(u64 *)(r10 - 8) = r2
       2:	b7 02 00 00 00 00 00 00	r2 = 0
       3:	7b 2a f0 ff 00 00 00 00	*(u64 *)(r10 - 16) = r2
       4:	79 13 20 00 00 00 00 00	r3 = *(u64 *)(r1 + 32)
       5:	07 03 00 00 08 00 00 00	r3 += 8
       6:	bf a1 00 00 00 00 00 00	r1 = r10
       7:	07 01 00 00 f0 ff ff ff	r1 += -16
       8:	b7 02 00 00 08 00 00 00	r2 = 8
       9:	85 00 00 00 04 00 00 00	call 4
      10:	85 00 00 00 05 00 00 00	call 5
      11:	7b 0a e0 ff 00 00 00 00	*(u64 *)(r10 - 32) = r0
      12:	79 a1 f0 ff 00 00 00 00	r1 = *(u64 *)(r10 - 16)
      13:	7b 1a e8 ff 00 00 00 00	*(u64 *)(r10 - 24) = r1
      14:	bf a2 00 00 00 00 00 00	r2 = r10
      15:	07 02 00 00 f8 ff ff ff	r2 += -8
      16:	bf a3 00 00 00 00 00 00	r3 = r10
      17:	07 03 00 00 e0 ff ff ff	r3 += -32
      18:	18 01 00 00 00 00 00 00 00 00 00 00 00 00 00 00	r1 = 0 ll
      20:	b7 04 00 00 00 00 00 00	r4 = 0
      21:	85 00 00 00 02 00 00 00	call 2
      22:	b7 00 00 00 00 00 00 00	r0 = 0
      23:	95 00 00 00 00 00 00 00	exit
