
./ebpf-samples/all/xdp_vlan01_kern.o:	file format elf64-bpf

Disassembly of section xdp_drop_vlan_4011:

0000000000000000 <xdp_prognum0>:
       0:	b7 00 00 00 00 00 00 00	r0 = 0
       1:	61 12 04 00 00 00 00 00	r2 = *(u32 *)(r1 + 4)
       2:	61 11 00 00 00 00 00 00	r1 = *(u32 *)(r1 + 0)
       3:	bf 13 00 00 00 00 00 00	r3 = r1
       4:	07 03 00 00 16 00 00 00	r3 += 22
       5:	2d 23 0c 00 00 00 00 00	if r3 > r2 goto +12 <LBB0_5>
       6:	71 13 0c 00 00 00 00 00	r3 = *(u8 *)(r1 + 12)
       7:	71 12 0d 00 00 00 00 00	r2 = *(u8 *)(r1 + 13)
       8:	67 02 00 00 08 00 00 00	r2 <<= 8
       9:	4f 32 00 00 00 00 00 00	r2 |= r3
      10:	15 02 02 00 88 a8 00 00	if r2 == 43144 goto +2 <LBB0_3>
      11:	b7 00 00 00 02 00 00 00	r0 = 2
      12:	55 02 05 00 81 00 00 00	if r2 != 129 goto +5 <LBB0_5>

0000000000000068 <LBB0_3>:
      13:	69 11 0e 00 00 00 00 00	r1 = *(u16 *)(r1 + 14)
      14:	57 01 00 00 0f ff 00 00	r1 &= 65295
      15:	b7 00 00 00 00 00 00 00	r0 = 0
      16:	15 01 01 00 0f ab 00 00	if r1 == 43791 goto +1 <LBB0_5>
      17:	b7 00 00 00 02 00 00 00	r0 = 2

0000000000000090 <LBB0_5>:
      18:	95 00 00 00 00 00 00 00	exit

Disassembly of section xdp_vlan_change:

0000000000000000 <xdp_prognum1>:
       0:	b7 00 00 00 00 00 00 00	r0 = 0
       1:	61 12 04 00 00 00 00 00	r2 = *(u32 *)(r1 + 4)
       2:	61 11 00 00 00 00 00 00	r1 = *(u32 *)(r1 + 0)
       3:	bf 13 00 00 00 00 00 00	r3 = r1
       4:	07 03 00 00 16 00 00 00	r3 += 22
       5:	2d 23 0f 00 00 00 00 00	if r3 > r2 goto +15 <LBB1_5>
       6:	71 13 0c 00 00 00 00 00	r3 = *(u8 *)(r1 + 12)
       7:	71 12 0d 00 00 00 00 00	r2 = *(u8 *)(r1 + 13)
       8:	67 02 00 00 08 00 00 00	r2 <<= 8
       9:	4f 32 00 00 00 00 00 00	r2 |= r3
      10:	b7 00 00 00 02 00 00 00	r0 = 2
      11:	15 02 01 00 88 a8 00 00	if r2 == 43144 goto +1 <LBB1_3>
      12:	55 02 08 00 81 00 00 00	if r2 != 129 goto +8 <LBB1_5>

0000000000000068 <LBB1_3>:
      13:	69 12 0e 00 00 00 00 00	r2 = *(u16 *)(r1 + 14)
      14:	57 02 00 00 0f ff 00 00	r2 &= 65295
      15:	55 02 05 00 0f ab 00 00	if r2 != 43791 goto +5 <LBB1_5>
      16:	69 12 0e 00 00 00 00 00	r2 = *(u16 *)(r1 + 14)
      17:	67 02 00 00 08 00 00 00	r2 <<= 8
      18:	57 02 00 00 00 f0 ff ff	r2 &= -4096
      19:	dc 02 00 00 10 00 00 00	r2 = be16 r2
      20:	6b 21 0e 00 00 00 00 00	*(u16 *)(r1 + 14) = r2

00000000000000a8 <LBB1_5>:
      21:	95 00 00 00 00 00 00 00	exit

Disassembly of section xdp_vlan_remove_outer:

0000000000000000 <xdp_prognum2>:
       0:	b7 06 00 00 00 00 00 00	r6 = 0
       1:	61 13 04 00 00 00 00 00	r3 = *(u32 *)(r1 + 4)
       2:	61 12 00 00 00 00 00 00	r2 = *(u32 *)(r1 + 0)
       3:	bf 24 00 00 00 00 00 00	r4 = r2
       4:	07 04 00 00 16 00 00 00	r4 += 22
       5:	2d 34 21 00 00 00 00 00	if r4 > r3 goto +33 <LBB2_4>
       6:	71 24 0c 00 00 00 00 00	r4 = *(u8 *)(r2 + 12)
       7:	71 23 0d 00 00 00 00 00	r3 = *(u8 *)(r2 + 13)
       8:	67 03 00 00 08 00 00 00	r3 <<= 8
       9:	4f 43 00 00 00 00 00 00	r3 |= r4
      10:	b7 06 00 00 02 00 00 00	r6 = 2
      11:	15 03 01 00 88 a8 00 00	if r3 == 43144 goto +1 <LBB2_3>
      12:	55 03 1a 00 81 00 00 00	if r3 != 129 goto +26 <LBB2_4>

0000000000000068 <LBB2_3>:
      13:	71 23 0b 00 00 00 00 00	r3 = *(u8 *)(r2 + 11)
      14:	73 32 0f 00 00 00 00 00	*(u8 *)(r2 + 15) = r3
      15:	71 23 0a 00 00 00 00 00	r3 = *(u8 *)(r2 + 10)
      16:	73 32 0e 00 00 00 00 00	*(u8 *)(r2 + 14) = r3
      17:	71 23 09 00 00 00 00 00	r3 = *(u8 *)(r2 + 9)
      18:	73 32 0d 00 00 00 00 00	*(u8 *)(r2 + 13) = r3
      19:	71 23 08 00 00 00 00 00	r3 = *(u8 *)(r2 + 8)
      20:	73 32 0c 00 00 00 00 00	*(u8 *)(r2 + 12) = r3
      21:	71 23 07 00 00 00 00 00	r3 = *(u8 *)(r2 + 7)
      22:	73 32 0b 00 00 00 00 00	*(u8 *)(r2 + 11) = r3
      23:	71 23 05 00 00 00 00 00	r3 = *(u8 *)(r2 + 5)
      24:	73 32 09 00 00 00 00 00	*(u8 *)(r2 + 9) = r3
      25:	71 23 04 00 00 00 00 00	r3 = *(u8 *)(r2 + 4)
      26:	73 32 08 00 00 00 00 00	*(u8 *)(r2 + 8) = r3
      27:	71 23 03 00 00 00 00 00	r3 = *(u8 *)(r2 + 3)
      28:	73 32 07 00 00 00 00 00	*(u8 *)(r2 + 7) = r3
      29:	71 23 01 00 00 00 00 00	r3 = *(u8 *)(r2 + 1)
      30:	73 32 05 00 00 00 00 00	*(u8 *)(r2 + 5) = r3
      31:	71 23 00 00 00 00 00 00	r3 = *(u8 *)(r2 + 0)
      32:	73 32 04 00 00 00 00 00	*(u8 *)(r2 + 4) = r3
      33:	71 23 06 00 00 00 00 00	r3 = *(u8 *)(r2 + 6)
      34:	73 32 0a 00 00 00 00 00	*(u8 *)(r2 + 10) = r3
      35:	71 23 02 00 00 00 00 00	r3 = *(u8 *)(r2 + 2)
      36:	73 32 06 00 00 00 00 00	*(u8 *)(r2 + 6) = r3
      37:	b7 02 00 00 04 00 00 00	r2 = 4
      38:	85 00 00 00 2c 00 00 00	call 44

0000000000000138 <LBB2_4>:
      39:	bf 60 00 00 00 00 00 00	r0 = r6
      40:	95 00 00 00 00 00 00 00	exit

Disassembly of section xdp_vlan_remove_outer2:

0000000000000000 <xdp_prognum3>:
       0:	b7 06 00 00 00 00 00 00	r6 = 0
       1:	61 13 04 00 00 00 00 00	r3 = *(u32 *)(r1 + 4)
       2:	61 12 00 00 00 00 00 00	r2 = *(u32 *)(r1 + 0)
       3:	bf 24 00 00 00 00 00 00	r4 = r2
       4:	07 04 00 00 16 00 00 00	r4 += 22
       5:	2d 34 0f 00 00 00 00 00	if r4 > r3 goto +15 <LBB3_4>
       6:	71 24 0c 00 00 00 00 00	r4 = *(u8 *)(r2 + 12)
       7:	71 23 0d 00 00 00 00 00	r3 = *(u8 *)(r2 + 13)
       8:	67 03 00 00 08 00 00 00	r3 <<= 8
       9:	4f 43 00 00 00 00 00 00	r3 |= r4
      10:	b7 06 00 00 02 00 00 00	r6 = 2
      11:	15 03 01 00 88 a8 00 00	if r3 == 43144 goto +1 <LBB3_3>
      12:	55 03 08 00 81 00 00 00	if r3 != 129 goto +8 <LBB3_4>

0000000000000068 <LBB3_3>:
      13:	61 23 08 00 00 00 00 00	r3 = *(u32 *)(r2 + 8)
      14:	63 32 0c 00 00 00 00 00	*(u32 *)(r2 + 12) = r3
      15:	61 23 04 00 00 00 00 00	r3 = *(u32 *)(r2 + 4)
      16:	61 24 00 00 00 00 00 00	r4 = *(u32 *)(r2 + 0)
      17:	63 42 04 00 00 00 00 00	*(u32 *)(r2 + 4) = r4
      18:	63 32 08 00 00 00 00 00	*(u32 *)(r2 + 8) = r3
      19:	b7 02 00 00 04 00 00 00	r2 = 4
      20:	85 00 00 00 2c 00 00 00	call 44

00000000000000a8 <LBB3_4>:
      21:	bf 60 00 00 00 00 00 00	r0 = r6
      22:	95 00 00 00 00 00 00 00	exit

Disassembly of section tc_vlan_push:

0000000000000000 <_tc_progA>:
       0:	b7 02 00 00 81 00 00 00	r2 = 129
       1:	b7 03 00 00 ab 0f 00 00	r3 = 4011
       2:	85 00 00 00 12 00 00 00	call 18
       3:	b7 00 00 00 00 00 00 00	r0 = 0
       4:	95 00 00 00 00 00 00 00	exit
