
./ebpf-samples/all/xdp_redirect_kern.o:	file format elf64-bpf

Disassembly of section xdp_redirect:

0000000000000000 <xdp_redirect_prog>:
       0:	61 12 04 00 00 00 00 00	r2 = *(u32 *)(r1 + 4)
       1:	61 18 00 00 00 00 00 00	r8 = *(u32 *)(r1 + 0)
       2:	b7 01 00 00 00 00 00 00	r1 = 0
       3:	63 1a fc ff 00 00 00 00	*(u32 *)(r10 - 4) = r1
       4:	63 1a f8 ff 00 00 00 00	*(u32 *)(r10 - 8) = r1
       5:	b7 07 00 00 01 00 00 00	r7 = 1
       6:	bf 81 00 00 00 00 00 00	r1 = r8
       7:	07 01 00 00 0e 00 00 00	r1 += 14
       8:	2d 21 20 00 00 00 00 00	if r1 > r2 goto +32 <LBB0_5>
       9:	bf a2 00 00 00 00 00 00	r2 = r10
      10:	07 02 00 00 fc ff ff ff	r2 += -4
      11:	18 01 00 00 00 00 00 00 00 00 00 00 00 00 00 00	r1 = 0 ll
      13:	85 00 00 00 01 00 00 00	call 1
      14:	bf 06 00 00 00 00 00 00	r6 = r0
      15:	15 06 19 00 00 00 00 00	if r6 == 0 goto +25 <LBB0_5>
      16:	bf a2 00 00 00 00 00 00	r2 = r10
      17:	07 02 00 00 f8 ff ff ff	r2 += -8
      18:	18 01 00 00 00 00 00 00 00 00 00 00 00 00 00 00	r1 = 0 ll
      20:	85 00 00 00 01 00 00 00	call 1
      21:	15 00 03 00 00 00 00 00	if r0 == 0 goto +3 <LBB0_4>
      22:	79 01 00 00 00 00 00 00	r1 = *(u64 *)(r0 + 0)
      23:	07 01 00 00 01 00 00 00	r1 += 1
      24:	7b 10 00 00 00 00 00 00	*(u64 *)(r0 + 0) = r1

00000000000000c8 <LBB0_4>:
      25:	69 81 00 00 00 00 00 00	r1 = *(u16 *)(r8 + 0)
      26:	69 82 06 00 00 00 00 00	r2 = *(u16 *)(r8 + 6)
      27:	6b 28 00 00 00 00 00 00	*(u16 *)(r8 + 0) = r2
      28:	69 82 08 00 00 00 00 00	r2 = *(u16 *)(r8 + 8)
      29:	69 83 02 00 00 00 00 00	r3 = *(u16 *)(r8 + 2)
      30:	6b 38 08 00 00 00 00 00	*(u16 *)(r8 + 8) = r3
      31:	6b 28 02 00 00 00 00 00	*(u16 *)(r8 + 2) = r2
      32:	69 82 0a 00 00 00 00 00	r2 = *(u16 *)(r8 + 10)
      33:	69 83 04 00 00 00 00 00	r3 = *(u16 *)(r8 + 4)
      34:	6b 38 0a 00 00 00 00 00	*(u16 *)(r8 + 10) = r3
      35:	6b 28 04 00 00 00 00 00	*(u16 *)(r8 + 4) = r2
      36:	6b 18 06 00 00 00 00 00	*(u16 *)(r8 + 6) = r1
      37:	61 61 00 00 00 00 00 00	r1 = *(u32 *)(r6 + 0)
      38:	b7 02 00 00 00 00 00 00	r2 = 0
      39:	85 00 00 00 17 00 00 00	call 23
      40:	bf 07 00 00 00 00 00 00	r7 = r0

0000000000000148 <LBB0_5>:
      41:	bf 70 00 00 00 00 00 00	r0 = r7
      42:	95 00 00 00 00 00 00 00	exit

Disassembly of section xdp_redirect_dummy:

0000000000000000 <xdp_redirect_dummy_prog>:
       0:	b7 00 00 00 02 00 00 00	r0 = 2
       1:	95 00 00 00 00 00 00 00	exit
